
prog.o:     file format elf32-i386


Disassembly of section .text:

00010000 <_start>:
   10000:	fa                   	cli    
   10001:	b0 00                	mov    $0x0,%al
   10003:	e6 70                	out    %al,$0x70
   10005:	31 c0                	xor    %eax,%eax
   10007:	66 b8 18 00          	mov    $0x18,%ax
   1000b:	8e d8                	mov    %eax,%ds
   1000d:	8e c0                	mov    %eax,%es
   1000f:	8e e0                	mov    %eax,%fs
   10011:	8e e8                	mov    %eax,%gs
   10013:	66 b8 20 00          	mov    $0x20,%ax
   10017:	8e d0                	mov    %eax,%ss
   10019:	bd 00 00 01 00       	mov    $0x10000,%ebp
   1001e:	89 ec                	mov    %ebp,%esp
   10020:	bf c4 b5 01 00       	mov    $0x1b5c4,%edi

00010025 <clearbss>:
   10025:	c7 07 00 00 00 00    	movl   $0x0,(%edi)
   1002b:	83 c7 04             	add    $0x4,%edi
   1002e:	81 ff 88 dc 01 00    	cmp    $0x1dc88,%edi
   10034:	72 ef                	jb     10025 <clearbss>
   10036:	e8 00 53 00 00       	call   1533b <_init>
   1003b:	e9 88 00 00 00       	jmp    100c8 <__isr_restore>

00010040 <__inb>:
   10040:	c8 00 00 00          	enter  $0x0,$0x0
   10044:	31 c0                	xor    %eax,%eax
   10046:	8b 55 08             	mov    0x8(%ebp),%edx
   10049:	ec                   	in     (%dx),%al
   1004a:	c9                   	leave  
   1004b:	c3                   	ret    

0001004c <__inw>:
   1004c:	c8 00 00 00          	enter  $0x0,$0x0
   10050:	31 c0                	xor    %eax,%eax
   10052:	8b 55 08             	mov    0x8(%ebp),%edx
   10055:	66 ed                	in     (%dx),%ax
   10057:	c9                   	leave  
   10058:	c3                   	ret    

00010059 <__inl>:
   10059:	c8 00 00 00          	enter  $0x0,$0x0
   1005d:	31 c0                	xor    %eax,%eax
   1005f:	8b 55 08             	mov    0x8(%ebp),%edx
   10062:	ed                   	in     (%dx),%eax
   10063:	c9                   	leave  
   10064:	c3                   	ret    

00010065 <__outb>:
   10065:	c8 00 00 00          	enter  $0x0,$0x0
   10069:	8b 55 08             	mov    0x8(%ebp),%edx
   1006c:	8b 45 0c             	mov    0xc(%ebp),%eax
   1006f:	ee                   	out    %al,(%dx)
   10070:	c9                   	leave  
   10071:	c3                   	ret    

00010072 <__outw>:
   10072:	c8 00 00 00          	enter  $0x0,$0x0
   10076:	8b 55 08             	mov    0x8(%ebp),%edx
   10079:	8b 45 0c             	mov    0xc(%ebp),%eax
   1007c:	66 ef                	out    %ax,(%dx)
   1007e:	c9                   	leave  
   1007f:	c3                   	ret    

00010080 <__outl>:
   10080:	c8 00 00 00          	enter  $0x0,$0x0
   10084:	8b 55 08             	mov    0x8(%ebp),%edx
   10087:	8b 45 0c             	mov    0xc(%ebp),%eax
   1008a:	ef                   	out    %eax,(%dx)
   1008b:	c9                   	leave  
   1008c:	c3                   	ret    

0001008d <__get_flags>:
   1008d:	9c                   	pushf  
   1008e:	58                   	pop    %eax
   1008f:	c3                   	ret    

00010090 <__pause>:
   10090:	c8 00 00 00          	enter  $0x0,$0x0
   10094:	fb                   	sti    
   10095:	f4                   	hlt    
   10096:	c9                   	leave  
   10097:	c3                   	ret    

00010098 <__get_ra>:
   10098:	8b 45 04             	mov    0x4(%ebp),%eax
   1009b:	c3                   	ret    

0001009c <isr_save>:
   1009c:	60                   	pusha  
   1009d:	1e                   	push   %ds
   1009e:	06                   	push   %es
   1009f:	0f a0                	push   %fs
   100a1:	0f a8                	push   %gs
   100a3:	16                   	push   %ss
   100a4:	8b 44 24 34          	mov    0x34(%esp),%eax
   100a8:	8b 5c 24 38          	mov    0x38(%esp),%ebx
   100ac:	8b 15 64 cc 01 00    	mov    0x1cc64,%edx
   100b2:	89 22                	mov    %esp,(%edx)
   100b4:	8b 25 80 dc 01 00    	mov    0x1dc80,%esp
   100ba:	53                   	push   %ebx
   100bb:	50                   	push   %eax
   100bc:	8b 1c 85 a0 c7 01 00 	mov    0x1c7a0(,%eax,4),%ebx
   100c3:	ff d3                	call   *%ebx
   100c5:	83 c4 08             	add    $0x8,%esp

000100c8 <__isr_restore>:
   100c8:	8b 1d 64 cc 01 00    	mov    0x1cc64,%ebx
   100ce:	8b 23                	mov    (%ebx),%esp
   100d0:	31 c0                	xor    %eax,%eax
   100d2:	66 8b 43 12          	mov    0x12(%ebx),%ax
   100d6:	50                   	push   %eax
   100d7:	66 8b 43 10          	mov    0x10(%ebx),%ax
   100db:	50                   	push   %eax
   100dc:	ff 35 a0 cb 01 00    	pushl  0x1cba0
   100e2:	68 ff 00 01 00       	push   $0x100ff
   100e7:	6a 01                	push   $0x1
   100e9:	6a 00                	push   $0x0
   100eb:	e8 45 17 00 00       	call   11835 <c_printf_at>
   100f0:	83 c4 18             	add    $0x18,%esp
   100f3:	17                   	pop    %ss
   100f4:	0f a9                	pop    %gs
   100f6:	0f a1                	pop    %fs
   100f8:	07                   	pop    %es
   100f9:	1f                   	pop    %ds
   100fa:	61                   	popa   
   100fb:	83 c4 08             	add    $0x8,%esp
   100fe:	cf                   	iret   

000100ff <fmt>:
   100ff:	74 69                	je     1016a <fmt+0x6b>
   10101:	6d                   	insl   (%dx),%es:(%edi)
   10102:	65 20 25 30 38 78 20 	and    %ah,%gs:0x20783830
   10109:	70 69                	jo     10174 <fmt+0x75>
   1010b:	64 20 25 35 64 20 70 	and    %ah,%fs:0x70206435
   10112:	70 69                	jo     1017d <fmt+0x7e>
   10114:	64 20 25 35 64 0a 20 	and    %ah,%fs:0x200a6435
   1011b:	73 73                	jae    10190 <fmt+0x91>
   1011d:	3d 25 30 38 78       	cmp    $0x78383025,%eax
   10122:	20 20                	and    %ah,(%eax)
   10124:	67 73 3d             	addr16 jae 10164 <fmt+0x65>
   10127:	25 30 38 78 20       	and    $0x20783830,%eax
   1012c:	20 66 73             	and    %ah,0x73(%esi)
   1012f:	3d 25 30 38 78       	cmp    $0x78383025,%eax
   10134:	20 20                	and    %ah,(%eax)
   10136:	65 73 3d             	gs jae 10176 <fmt+0x77>
   10139:	25 30 38 78 20       	and    $0x20783830,%eax
   1013e:	20 64 73 3d          	and    %ah,0x3d(%ebx,%esi,2)
   10142:	25 30 38 78 0a       	and    $0xa783830,%eax
   10147:	65 64 69 3d 25 30 38 	gs imul $0x69736520,%fs:0x78383025,%edi
   1014e:	78 20 65 73 69 
   10153:	3d 25 30 38 78       	cmp    $0x78383025,%eax
   10158:	20 65 62             	and    %ah,0x62(%ebp)
   1015b:	70 3d                	jo     1019a <fmt+0x9b>
   1015d:	25 30 38 78 20       	and    $0x20783830,%eax
   10162:	65 73 70             	gs jae 101d5 <__isr_0x02+0x6>
   10165:	3d 25 30 38 78       	cmp    $0x78383025,%eax
   1016a:	20 65 62             	and    %ah,0x62(%ebp)
   1016d:	78 3d                	js     101ac <fmt+0xad>
   1016f:	25 30 38 78 0a       	and    $0xa783830,%eax
   10174:	65 64 78 3d          	gs fs js 101b5 <fmt+0xb6>
   10178:	25 30 38 78 20       	and    $0x20783830,%eax
   1017d:	65 63 78 3d          	arpl   %di,%gs:0x3d(%eax)
   10181:	25 30 38 78 20       	and    $0x20783830,%eax
   10186:	65 61                	gs popa 
   10188:	78 3d                	js     101c7 <__isr_0x01+0x1>
   1018a:	25 30 38 78 20       	and    $0x20783830,%eax
   1018f:	76 65                	jbe    101f6 <__isr_0x06+0x3>
   10191:	63 3d 25 30 38 78    	arpl   %di,0x78383025
   10197:	20 63 6f             	and    %ah,0x6f(%ebx)
   1019a:	64 3d 25 30 38 78    	fs cmp $0x78383025,%eax
   101a0:	0a 65 69             	or     0x69(%ebp),%ah
   101a3:	70 3d                	jo     101e2 <__isr_0x04+0x1>
   101a5:	25 30 38 78 20       	and    $0x20783830,%eax
   101aa:	20 63 73             	and    %ah,0x73(%ebx)
   101ad:	3d 25 30 38 78       	cmp    $0x78383025,%eax
   101b2:	20 65 66             	and    %ah,0x66(%ebp)
   101b5:	6c                   	insb   (%dx),%es:(%edi)
   101b6:	3d 25 30 38 78       	cmp    $0x78383025,%eax
   101bb:	0a 00                	or     (%eax),%al

000101bd <__isr_0x00>:
   101bd:	6a 00                	push   $0x0
   101bf:	6a 00                	push   $0x0
   101c1:	e9 d6 fe ff ff       	jmp    1009c <isr_save>

000101c6 <__isr_0x01>:
   101c6:	6a 00                	push   $0x0
   101c8:	6a 01                	push   $0x1
   101ca:	e9 cd fe ff ff       	jmp    1009c <isr_save>

000101cf <__isr_0x02>:
   101cf:	6a 00                	push   $0x0
   101d1:	6a 02                	push   $0x2
   101d3:	e9 c4 fe ff ff       	jmp    1009c <isr_save>

000101d8 <__isr_0x03>:
   101d8:	6a 00                	push   $0x0
   101da:	6a 03                	push   $0x3
   101dc:	e9 bb fe ff ff       	jmp    1009c <isr_save>

000101e1 <__isr_0x04>:
   101e1:	6a 00                	push   $0x0
   101e3:	6a 04                	push   $0x4
   101e5:	e9 b2 fe ff ff       	jmp    1009c <isr_save>

000101ea <__isr_0x05>:
   101ea:	6a 00                	push   $0x0
   101ec:	6a 05                	push   $0x5
   101ee:	e9 a9 fe ff ff       	jmp    1009c <isr_save>

000101f3 <__isr_0x06>:
   101f3:	6a 00                	push   $0x0
   101f5:	6a 06                	push   $0x6
   101f7:	e9 a0 fe ff ff       	jmp    1009c <isr_save>

000101fc <__isr_0x07>:
   101fc:	6a 00                	push   $0x0
   101fe:	6a 07                	push   $0x7
   10200:	e9 97 fe ff ff       	jmp    1009c <isr_save>

00010205 <__isr_0x08>:
   10205:	6a 08                	push   $0x8
   10207:	e9 90 fe ff ff       	jmp    1009c <isr_save>

0001020c <__isr_0x09>:
   1020c:	6a 00                	push   $0x0
   1020e:	6a 09                	push   $0x9
   10210:	e9 87 fe ff ff       	jmp    1009c <isr_save>

00010215 <__isr_0x0a>:
   10215:	6a 0a                	push   $0xa
   10217:	e9 80 fe ff ff       	jmp    1009c <isr_save>

0001021c <__isr_0x0b>:
   1021c:	6a 0b                	push   $0xb
   1021e:	e9 79 fe ff ff       	jmp    1009c <isr_save>

00010223 <__isr_0x0c>:
   10223:	6a 0c                	push   $0xc
   10225:	e9 72 fe ff ff       	jmp    1009c <isr_save>

0001022a <__isr_0x0d>:
   1022a:	6a 0d                	push   $0xd
   1022c:	e9 6b fe ff ff       	jmp    1009c <isr_save>

00010231 <__isr_0x0e>:
   10231:	6a 0e                	push   $0xe
   10233:	e9 64 fe ff ff       	jmp    1009c <isr_save>

00010238 <__isr_0x0f>:
   10238:	6a 00                	push   $0x0
   1023a:	6a 0f                	push   $0xf
   1023c:	e9 5b fe ff ff       	jmp    1009c <isr_save>

00010241 <__isr_0x10>:
   10241:	6a 00                	push   $0x0
   10243:	6a 10                	push   $0x10
   10245:	e9 52 fe ff ff       	jmp    1009c <isr_save>

0001024a <__isr_0x11>:
   1024a:	6a 11                	push   $0x11
   1024c:	e9 4b fe ff ff       	jmp    1009c <isr_save>

00010251 <__isr_0x12>:
   10251:	6a 00                	push   $0x0
   10253:	6a 12                	push   $0x12
   10255:	e9 42 fe ff ff       	jmp    1009c <isr_save>

0001025a <__isr_0x13>:
   1025a:	6a 00                	push   $0x0
   1025c:	6a 13                	push   $0x13
   1025e:	e9 39 fe ff ff       	jmp    1009c <isr_save>

00010263 <__isr_0x14>:
   10263:	6a 00                	push   $0x0
   10265:	6a 14                	push   $0x14
   10267:	e9 30 fe ff ff       	jmp    1009c <isr_save>

0001026c <__isr_0x15>:
   1026c:	6a 00                	push   $0x0
   1026e:	6a 15                	push   $0x15
   10270:	e9 27 fe ff ff       	jmp    1009c <isr_save>

00010275 <__isr_0x16>:
   10275:	6a 00                	push   $0x0
   10277:	6a 16                	push   $0x16
   10279:	e9 1e fe ff ff       	jmp    1009c <isr_save>

0001027e <__isr_0x17>:
   1027e:	6a 00                	push   $0x0
   10280:	6a 17                	push   $0x17
   10282:	e9 15 fe ff ff       	jmp    1009c <isr_save>

00010287 <__isr_0x18>:
   10287:	6a 00                	push   $0x0
   10289:	6a 18                	push   $0x18
   1028b:	e9 0c fe ff ff       	jmp    1009c <isr_save>

00010290 <__isr_0x19>:
   10290:	6a 00                	push   $0x0
   10292:	6a 19                	push   $0x19
   10294:	e9 03 fe ff ff       	jmp    1009c <isr_save>

00010299 <__isr_0x1a>:
   10299:	6a 00                	push   $0x0
   1029b:	6a 1a                	push   $0x1a
   1029d:	e9 fa fd ff ff       	jmp    1009c <isr_save>

000102a2 <__isr_0x1b>:
   102a2:	6a 00                	push   $0x0
   102a4:	6a 1b                	push   $0x1b
   102a6:	e9 f1 fd ff ff       	jmp    1009c <isr_save>

000102ab <__isr_0x1c>:
   102ab:	6a 00                	push   $0x0
   102ad:	6a 1c                	push   $0x1c
   102af:	e9 e8 fd ff ff       	jmp    1009c <isr_save>

000102b4 <__isr_0x1d>:
   102b4:	6a 00                	push   $0x0
   102b6:	6a 1d                	push   $0x1d
   102b8:	e9 df fd ff ff       	jmp    1009c <isr_save>

000102bd <__isr_0x1e>:
   102bd:	6a 00                	push   $0x0
   102bf:	6a 1e                	push   $0x1e
   102c1:	e9 d6 fd ff ff       	jmp    1009c <isr_save>

000102c6 <__isr_0x1f>:
   102c6:	6a 00                	push   $0x0
   102c8:	6a 1f                	push   $0x1f
   102ca:	e9 cd fd ff ff       	jmp    1009c <isr_save>

000102cf <__isr_0x20>:
   102cf:	6a 00                	push   $0x0
   102d1:	6a 20                	push   $0x20
   102d3:	e9 c4 fd ff ff       	jmp    1009c <isr_save>

000102d8 <__isr_0x21>:
   102d8:	6a 00                	push   $0x0
   102da:	6a 21                	push   $0x21
   102dc:	e9 bb fd ff ff       	jmp    1009c <isr_save>

000102e1 <__isr_0x22>:
   102e1:	6a 00                	push   $0x0
   102e3:	6a 22                	push   $0x22
   102e5:	e9 b2 fd ff ff       	jmp    1009c <isr_save>

000102ea <__isr_0x23>:
   102ea:	6a 00                	push   $0x0
   102ec:	6a 23                	push   $0x23
   102ee:	e9 a9 fd ff ff       	jmp    1009c <isr_save>

000102f3 <__isr_0x24>:
   102f3:	6a 00                	push   $0x0
   102f5:	6a 24                	push   $0x24
   102f7:	e9 a0 fd ff ff       	jmp    1009c <isr_save>

000102fc <__isr_0x25>:
   102fc:	6a 00                	push   $0x0
   102fe:	6a 25                	push   $0x25
   10300:	e9 97 fd ff ff       	jmp    1009c <isr_save>

00010305 <__isr_0x26>:
   10305:	6a 00                	push   $0x0
   10307:	6a 26                	push   $0x26
   10309:	e9 8e fd ff ff       	jmp    1009c <isr_save>

0001030e <__isr_0x27>:
   1030e:	6a 00                	push   $0x0
   10310:	6a 27                	push   $0x27
   10312:	e9 85 fd ff ff       	jmp    1009c <isr_save>

00010317 <__isr_0x28>:
   10317:	6a 00                	push   $0x0
   10319:	6a 28                	push   $0x28
   1031b:	e9 7c fd ff ff       	jmp    1009c <isr_save>

00010320 <__isr_0x29>:
   10320:	6a 00                	push   $0x0
   10322:	6a 29                	push   $0x29
   10324:	e9 73 fd ff ff       	jmp    1009c <isr_save>

00010329 <__isr_0x2a>:
   10329:	6a 00                	push   $0x0
   1032b:	6a 2a                	push   $0x2a
   1032d:	e9 6a fd ff ff       	jmp    1009c <isr_save>

00010332 <__isr_0x2b>:
   10332:	6a 00                	push   $0x0
   10334:	6a 2b                	push   $0x2b
   10336:	e9 61 fd ff ff       	jmp    1009c <isr_save>

0001033b <__isr_0x2c>:
   1033b:	6a 00                	push   $0x0
   1033d:	6a 2c                	push   $0x2c
   1033f:	e9 58 fd ff ff       	jmp    1009c <isr_save>

00010344 <__isr_0x2d>:
   10344:	6a 00                	push   $0x0
   10346:	6a 2d                	push   $0x2d
   10348:	e9 4f fd ff ff       	jmp    1009c <isr_save>

0001034d <__isr_0x2e>:
   1034d:	6a 00                	push   $0x0
   1034f:	6a 2e                	push   $0x2e
   10351:	e9 46 fd ff ff       	jmp    1009c <isr_save>

00010356 <__isr_0x2f>:
   10356:	6a 00                	push   $0x0
   10358:	6a 2f                	push   $0x2f
   1035a:	e9 3d fd ff ff       	jmp    1009c <isr_save>

0001035f <__isr_0x30>:
   1035f:	6a 00                	push   $0x0
   10361:	6a 30                	push   $0x30
   10363:	e9 34 fd ff ff       	jmp    1009c <isr_save>

00010368 <__isr_0x31>:
   10368:	6a 00                	push   $0x0
   1036a:	6a 31                	push   $0x31
   1036c:	e9 2b fd ff ff       	jmp    1009c <isr_save>

00010371 <__isr_0x32>:
   10371:	6a 00                	push   $0x0
   10373:	6a 32                	push   $0x32
   10375:	e9 22 fd ff ff       	jmp    1009c <isr_save>

0001037a <__isr_0x33>:
   1037a:	6a 00                	push   $0x0
   1037c:	6a 33                	push   $0x33
   1037e:	e9 19 fd ff ff       	jmp    1009c <isr_save>

00010383 <__isr_0x34>:
   10383:	6a 00                	push   $0x0
   10385:	6a 34                	push   $0x34
   10387:	e9 10 fd ff ff       	jmp    1009c <isr_save>

0001038c <__isr_0x35>:
   1038c:	6a 00                	push   $0x0
   1038e:	6a 35                	push   $0x35
   10390:	e9 07 fd ff ff       	jmp    1009c <isr_save>

00010395 <__isr_0x36>:
   10395:	6a 00                	push   $0x0
   10397:	6a 36                	push   $0x36
   10399:	e9 fe fc ff ff       	jmp    1009c <isr_save>

0001039e <__isr_0x37>:
   1039e:	6a 00                	push   $0x0
   103a0:	6a 37                	push   $0x37
   103a2:	e9 f5 fc ff ff       	jmp    1009c <isr_save>

000103a7 <__isr_0x38>:
   103a7:	6a 00                	push   $0x0
   103a9:	6a 38                	push   $0x38
   103ab:	e9 ec fc ff ff       	jmp    1009c <isr_save>

000103b0 <__isr_0x39>:
   103b0:	6a 00                	push   $0x0
   103b2:	6a 39                	push   $0x39
   103b4:	e9 e3 fc ff ff       	jmp    1009c <isr_save>

000103b9 <__isr_0x3a>:
   103b9:	6a 00                	push   $0x0
   103bb:	6a 3a                	push   $0x3a
   103bd:	e9 da fc ff ff       	jmp    1009c <isr_save>

000103c2 <__isr_0x3b>:
   103c2:	6a 00                	push   $0x0
   103c4:	6a 3b                	push   $0x3b
   103c6:	e9 d1 fc ff ff       	jmp    1009c <isr_save>

000103cb <__isr_0x3c>:
   103cb:	6a 00                	push   $0x0
   103cd:	6a 3c                	push   $0x3c
   103cf:	e9 c8 fc ff ff       	jmp    1009c <isr_save>

000103d4 <__isr_0x3d>:
   103d4:	6a 00                	push   $0x0
   103d6:	6a 3d                	push   $0x3d
   103d8:	e9 bf fc ff ff       	jmp    1009c <isr_save>

000103dd <__isr_0x3e>:
   103dd:	6a 00                	push   $0x0
   103df:	6a 3e                	push   $0x3e
   103e1:	e9 b6 fc ff ff       	jmp    1009c <isr_save>

000103e6 <__isr_0x3f>:
   103e6:	6a 00                	push   $0x0
   103e8:	6a 3f                	push   $0x3f
   103ea:	e9 ad fc ff ff       	jmp    1009c <isr_save>

000103ef <__isr_0x40>:
   103ef:	6a 00                	push   $0x0
   103f1:	6a 40                	push   $0x40
   103f3:	e9 a4 fc ff ff       	jmp    1009c <isr_save>

000103f8 <__isr_0x41>:
   103f8:	6a 00                	push   $0x0
   103fa:	6a 41                	push   $0x41
   103fc:	e9 9b fc ff ff       	jmp    1009c <isr_save>

00010401 <__isr_0x42>:
   10401:	6a 00                	push   $0x0
   10403:	6a 42                	push   $0x42
   10405:	e9 92 fc ff ff       	jmp    1009c <isr_save>

0001040a <__isr_0x43>:
   1040a:	6a 00                	push   $0x0
   1040c:	6a 43                	push   $0x43
   1040e:	e9 89 fc ff ff       	jmp    1009c <isr_save>

00010413 <__isr_0x44>:
   10413:	6a 00                	push   $0x0
   10415:	6a 44                	push   $0x44
   10417:	e9 80 fc ff ff       	jmp    1009c <isr_save>

0001041c <__isr_0x45>:
   1041c:	6a 00                	push   $0x0
   1041e:	6a 45                	push   $0x45
   10420:	e9 77 fc ff ff       	jmp    1009c <isr_save>

00010425 <__isr_0x46>:
   10425:	6a 00                	push   $0x0
   10427:	6a 46                	push   $0x46
   10429:	e9 6e fc ff ff       	jmp    1009c <isr_save>

0001042e <__isr_0x47>:
   1042e:	6a 00                	push   $0x0
   10430:	6a 47                	push   $0x47
   10432:	e9 65 fc ff ff       	jmp    1009c <isr_save>

00010437 <__isr_0x48>:
   10437:	6a 00                	push   $0x0
   10439:	6a 48                	push   $0x48
   1043b:	e9 5c fc ff ff       	jmp    1009c <isr_save>

00010440 <__isr_0x49>:
   10440:	6a 00                	push   $0x0
   10442:	6a 49                	push   $0x49
   10444:	e9 53 fc ff ff       	jmp    1009c <isr_save>

00010449 <__isr_0x4a>:
   10449:	6a 00                	push   $0x0
   1044b:	6a 4a                	push   $0x4a
   1044d:	e9 4a fc ff ff       	jmp    1009c <isr_save>

00010452 <__isr_0x4b>:
   10452:	6a 00                	push   $0x0
   10454:	6a 4b                	push   $0x4b
   10456:	e9 41 fc ff ff       	jmp    1009c <isr_save>

0001045b <__isr_0x4c>:
   1045b:	6a 00                	push   $0x0
   1045d:	6a 4c                	push   $0x4c
   1045f:	e9 38 fc ff ff       	jmp    1009c <isr_save>

00010464 <__isr_0x4d>:
   10464:	6a 00                	push   $0x0
   10466:	6a 4d                	push   $0x4d
   10468:	e9 2f fc ff ff       	jmp    1009c <isr_save>

0001046d <__isr_0x4e>:
   1046d:	6a 00                	push   $0x0
   1046f:	6a 4e                	push   $0x4e
   10471:	e9 26 fc ff ff       	jmp    1009c <isr_save>

00010476 <__isr_0x4f>:
   10476:	6a 00                	push   $0x0
   10478:	6a 4f                	push   $0x4f
   1047a:	e9 1d fc ff ff       	jmp    1009c <isr_save>

0001047f <__isr_0x50>:
   1047f:	6a 00                	push   $0x0
   10481:	6a 50                	push   $0x50
   10483:	e9 14 fc ff ff       	jmp    1009c <isr_save>

00010488 <__isr_0x51>:
   10488:	6a 00                	push   $0x0
   1048a:	6a 51                	push   $0x51
   1048c:	e9 0b fc ff ff       	jmp    1009c <isr_save>

00010491 <__isr_0x52>:
   10491:	6a 00                	push   $0x0
   10493:	6a 52                	push   $0x52
   10495:	e9 02 fc ff ff       	jmp    1009c <isr_save>

0001049a <__isr_0x53>:
   1049a:	6a 00                	push   $0x0
   1049c:	6a 53                	push   $0x53
   1049e:	e9 f9 fb ff ff       	jmp    1009c <isr_save>

000104a3 <__isr_0x54>:
   104a3:	6a 00                	push   $0x0
   104a5:	6a 54                	push   $0x54
   104a7:	e9 f0 fb ff ff       	jmp    1009c <isr_save>

000104ac <__isr_0x55>:
   104ac:	6a 00                	push   $0x0
   104ae:	6a 55                	push   $0x55
   104b0:	e9 e7 fb ff ff       	jmp    1009c <isr_save>

000104b5 <__isr_0x56>:
   104b5:	6a 00                	push   $0x0
   104b7:	6a 56                	push   $0x56
   104b9:	e9 de fb ff ff       	jmp    1009c <isr_save>

000104be <__isr_0x57>:
   104be:	6a 00                	push   $0x0
   104c0:	6a 57                	push   $0x57
   104c2:	e9 d5 fb ff ff       	jmp    1009c <isr_save>

000104c7 <__isr_0x58>:
   104c7:	6a 00                	push   $0x0
   104c9:	6a 58                	push   $0x58
   104cb:	e9 cc fb ff ff       	jmp    1009c <isr_save>

000104d0 <__isr_0x59>:
   104d0:	6a 00                	push   $0x0
   104d2:	6a 59                	push   $0x59
   104d4:	e9 c3 fb ff ff       	jmp    1009c <isr_save>

000104d9 <__isr_0x5a>:
   104d9:	6a 00                	push   $0x0
   104db:	6a 5a                	push   $0x5a
   104dd:	e9 ba fb ff ff       	jmp    1009c <isr_save>

000104e2 <__isr_0x5b>:
   104e2:	6a 00                	push   $0x0
   104e4:	6a 5b                	push   $0x5b
   104e6:	e9 b1 fb ff ff       	jmp    1009c <isr_save>

000104eb <__isr_0x5c>:
   104eb:	6a 00                	push   $0x0
   104ed:	6a 5c                	push   $0x5c
   104ef:	e9 a8 fb ff ff       	jmp    1009c <isr_save>

000104f4 <__isr_0x5d>:
   104f4:	6a 00                	push   $0x0
   104f6:	6a 5d                	push   $0x5d
   104f8:	e9 9f fb ff ff       	jmp    1009c <isr_save>

000104fd <__isr_0x5e>:
   104fd:	6a 00                	push   $0x0
   104ff:	6a 5e                	push   $0x5e
   10501:	e9 96 fb ff ff       	jmp    1009c <isr_save>

00010506 <__isr_0x5f>:
   10506:	6a 00                	push   $0x0
   10508:	6a 5f                	push   $0x5f
   1050a:	e9 8d fb ff ff       	jmp    1009c <isr_save>

0001050f <__isr_0x60>:
   1050f:	6a 00                	push   $0x0
   10511:	6a 60                	push   $0x60
   10513:	e9 84 fb ff ff       	jmp    1009c <isr_save>

00010518 <__isr_0x61>:
   10518:	6a 00                	push   $0x0
   1051a:	6a 61                	push   $0x61
   1051c:	e9 7b fb ff ff       	jmp    1009c <isr_save>

00010521 <__isr_0x62>:
   10521:	6a 00                	push   $0x0
   10523:	6a 62                	push   $0x62
   10525:	e9 72 fb ff ff       	jmp    1009c <isr_save>

0001052a <__isr_0x63>:
   1052a:	6a 00                	push   $0x0
   1052c:	6a 63                	push   $0x63
   1052e:	e9 69 fb ff ff       	jmp    1009c <isr_save>

00010533 <__isr_0x64>:
   10533:	6a 00                	push   $0x0
   10535:	6a 64                	push   $0x64
   10537:	e9 60 fb ff ff       	jmp    1009c <isr_save>

0001053c <__isr_0x65>:
   1053c:	6a 00                	push   $0x0
   1053e:	6a 65                	push   $0x65
   10540:	e9 57 fb ff ff       	jmp    1009c <isr_save>

00010545 <__isr_0x66>:
   10545:	6a 00                	push   $0x0
   10547:	6a 66                	push   $0x66
   10549:	e9 4e fb ff ff       	jmp    1009c <isr_save>

0001054e <__isr_0x67>:
   1054e:	6a 00                	push   $0x0
   10550:	6a 67                	push   $0x67
   10552:	e9 45 fb ff ff       	jmp    1009c <isr_save>

00010557 <__isr_0x68>:
   10557:	6a 00                	push   $0x0
   10559:	6a 68                	push   $0x68
   1055b:	e9 3c fb ff ff       	jmp    1009c <isr_save>

00010560 <__isr_0x69>:
   10560:	6a 00                	push   $0x0
   10562:	6a 69                	push   $0x69
   10564:	e9 33 fb ff ff       	jmp    1009c <isr_save>

00010569 <__isr_0x6a>:
   10569:	6a 00                	push   $0x0
   1056b:	6a 6a                	push   $0x6a
   1056d:	e9 2a fb ff ff       	jmp    1009c <isr_save>

00010572 <__isr_0x6b>:
   10572:	6a 00                	push   $0x0
   10574:	6a 6b                	push   $0x6b
   10576:	e9 21 fb ff ff       	jmp    1009c <isr_save>

0001057b <__isr_0x6c>:
   1057b:	6a 00                	push   $0x0
   1057d:	6a 6c                	push   $0x6c
   1057f:	e9 18 fb ff ff       	jmp    1009c <isr_save>

00010584 <__isr_0x6d>:
   10584:	6a 00                	push   $0x0
   10586:	6a 6d                	push   $0x6d
   10588:	e9 0f fb ff ff       	jmp    1009c <isr_save>

0001058d <__isr_0x6e>:
   1058d:	6a 00                	push   $0x0
   1058f:	6a 6e                	push   $0x6e
   10591:	e9 06 fb ff ff       	jmp    1009c <isr_save>

00010596 <__isr_0x6f>:
   10596:	6a 00                	push   $0x0
   10598:	6a 6f                	push   $0x6f
   1059a:	e9 fd fa ff ff       	jmp    1009c <isr_save>

0001059f <__isr_0x70>:
   1059f:	6a 00                	push   $0x0
   105a1:	6a 70                	push   $0x70
   105a3:	e9 f4 fa ff ff       	jmp    1009c <isr_save>

000105a8 <__isr_0x71>:
   105a8:	6a 00                	push   $0x0
   105aa:	6a 71                	push   $0x71
   105ac:	e9 eb fa ff ff       	jmp    1009c <isr_save>

000105b1 <__isr_0x72>:
   105b1:	6a 00                	push   $0x0
   105b3:	6a 72                	push   $0x72
   105b5:	e9 e2 fa ff ff       	jmp    1009c <isr_save>

000105ba <__isr_0x73>:
   105ba:	6a 00                	push   $0x0
   105bc:	6a 73                	push   $0x73
   105be:	e9 d9 fa ff ff       	jmp    1009c <isr_save>

000105c3 <__isr_0x74>:
   105c3:	6a 00                	push   $0x0
   105c5:	6a 74                	push   $0x74
   105c7:	e9 d0 fa ff ff       	jmp    1009c <isr_save>

000105cc <__isr_0x75>:
   105cc:	6a 00                	push   $0x0
   105ce:	6a 75                	push   $0x75
   105d0:	e9 c7 fa ff ff       	jmp    1009c <isr_save>

000105d5 <__isr_0x76>:
   105d5:	6a 00                	push   $0x0
   105d7:	6a 76                	push   $0x76
   105d9:	e9 be fa ff ff       	jmp    1009c <isr_save>

000105de <__isr_0x77>:
   105de:	6a 00                	push   $0x0
   105e0:	6a 77                	push   $0x77
   105e2:	e9 b5 fa ff ff       	jmp    1009c <isr_save>

000105e7 <__isr_0x78>:
   105e7:	6a 00                	push   $0x0
   105e9:	6a 78                	push   $0x78
   105eb:	e9 ac fa ff ff       	jmp    1009c <isr_save>

000105f0 <__isr_0x79>:
   105f0:	6a 00                	push   $0x0
   105f2:	6a 79                	push   $0x79
   105f4:	e9 a3 fa ff ff       	jmp    1009c <isr_save>

000105f9 <__isr_0x7a>:
   105f9:	6a 00                	push   $0x0
   105fb:	6a 7a                	push   $0x7a
   105fd:	e9 9a fa ff ff       	jmp    1009c <isr_save>

00010602 <__isr_0x7b>:
   10602:	6a 00                	push   $0x0
   10604:	6a 7b                	push   $0x7b
   10606:	e9 91 fa ff ff       	jmp    1009c <isr_save>

0001060b <__isr_0x7c>:
   1060b:	6a 00                	push   $0x0
   1060d:	6a 7c                	push   $0x7c
   1060f:	e9 88 fa ff ff       	jmp    1009c <isr_save>

00010614 <__isr_0x7d>:
   10614:	6a 00                	push   $0x0
   10616:	6a 7d                	push   $0x7d
   10618:	e9 7f fa ff ff       	jmp    1009c <isr_save>

0001061d <__isr_0x7e>:
   1061d:	6a 00                	push   $0x0
   1061f:	6a 7e                	push   $0x7e
   10621:	e9 76 fa ff ff       	jmp    1009c <isr_save>

00010626 <__isr_0x7f>:
   10626:	6a 00                	push   $0x0
   10628:	6a 7f                	push   $0x7f
   1062a:	e9 6d fa ff ff       	jmp    1009c <isr_save>

0001062f <__isr_0x80>:
   1062f:	6a 00                	push   $0x0
   10631:	68 80 00 00 00       	push   $0x80
   10636:	e9 61 fa ff ff       	jmp    1009c <isr_save>

0001063b <__isr_0x81>:
   1063b:	6a 00                	push   $0x0
   1063d:	68 81 00 00 00       	push   $0x81
   10642:	e9 55 fa ff ff       	jmp    1009c <isr_save>

00010647 <__isr_0x82>:
   10647:	6a 00                	push   $0x0
   10649:	68 82 00 00 00       	push   $0x82
   1064e:	e9 49 fa ff ff       	jmp    1009c <isr_save>

00010653 <__isr_0x83>:
   10653:	6a 00                	push   $0x0
   10655:	68 83 00 00 00       	push   $0x83
   1065a:	e9 3d fa ff ff       	jmp    1009c <isr_save>

0001065f <__isr_0x84>:
   1065f:	6a 00                	push   $0x0
   10661:	68 84 00 00 00       	push   $0x84
   10666:	e9 31 fa ff ff       	jmp    1009c <isr_save>

0001066b <__isr_0x85>:
   1066b:	6a 00                	push   $0x0
   1066d:	68 85 00 00 00       	push   $0x85
   10672:	e9 25 fa ff ff       	jmp    1009c <isr_save>

00010677 <__isr_0x86>:
   10677:	6a 00                	push   $0x0
   10679:	68 86 00 00 00       	push   $0x86
   1067e:	e9 19 fa ff ff       	jmp    1009c <isr_save>

00010683 <__isr_0x87>:
   10683:	6a 00                	push   $0x0
   10685:	68 87 00 00 00       	push   $0x87
   1068a:	e9 0d fa ff ff       	jmp    1009c <isr_save>

0001068f <__isr_0x88>:
   1068f:	6a 00                	push   $0x0
   10691:	68 88 00 00 00       	push   $0x88
   10696:	e9 01 fa ff ff       	jmp    1009c <isr_save>

0001069b <__isr_0x89>:
   1069b:	6a 00                	push   $0x0
   1069d:	68 89 00 00 00       	push   $0x89
   106a2:	e9 f5 f9 ff ff       	jmp    1009c <isr_save>

000106a7 <__isr_0x8a>:
   106a7:	6a 00                	push   $0x0
   106a9:	68 8a 00 00 00       	push   $0x8a
   106ae:	e9 e9 f9 ff ff       	jmp    1009c <isr_save>

000106b3 <__isr_0x8b>:
   106b3:	6a 00                	push   $0x0
   106b5:	68 8b 00 00 00       	push   $0x8b
   106ba:	e9 dd f9 ff ff       	jmp    1009c <isr_save>

000106bf <__isr_0x8c>:
   106bf:	6a 00                	push   $0x0
   106c1:	68 8c 00 00 00       	push   $0x8c
   106c6:	e9 d1 f9 ff ff       	jmp    1009c <isr_save>

000106cb <__isr_0x8d>:
   106cb:	6a 00                	push   $0x0
   106cd:	68 8d 00 00 00       	push   $0x8d
   106d2:	e9 c5 f9 ff ff       	jmp    1009c <isr_save>

000106d7 <__isr_0x8e>:
   106d7:	6a 00                	push   $0x0
   106d9:	68 8e 00 00 00       	push   $0x8e
   106de:	e9 b9 f9 ff ff       	jmp    1009c <isr_save>

000106e3 <__isr_0x8f>:
   106e3:	6a 00                	push   $0x0
   106e5:	68 8f 00 00 00       	push   $0x8f
   106ea:	e9 ad f9 ff ff       	jmp    1009c <isr_save>

000106ef <__isr_0x90>:
   106ef:	6a 00                	push   $0x0
   106f1:	68 90 00 00 00       	push   $0x90
   106f6:	e9 a1 f9 ff ff       	jmp    1009c <isr_save>

000106fb <__isr_0x91>:
   106fb:	6a 00                	push   $0x0
   106fd:	68 91 00 00 00       	push   $0x91
   10702:	e9 95 f9 ff ff       	jmp    1009c <isr_save>

00010707 <__isr_0x92>:
   10707:	6a 00                	push   $0x0
   10709:	68 92 00 00 00       	push   $0x92
   1070e:	e9 89 f9 ff ff       	jmp    1009c <isr_save>

00010713 <__isr_0x93>:
   10713:	6a 00                	push   $0x0
   10715:	68 93 00 00 00       	push   $0x93
   1071a:	e9 7d f9 ff ff       	jmp    1009c <isr_save>

0001071f <__isr_0x94>:
   1071f:	6a 00                	push   $0x0
   10721:	68 94 00 00 00       	push   $0x94
   10726:	e9 71 f9 ff ff       	jmp    1009c <isr_save>

0001072b <__isr_0x95>:
   1072b:	6a 00                	push   $0x0
   1072d:	68 95 00 00 00       	push   $0x95
   10732:	e9 65 f9 ff ff       	jmp    1009c <isr_save>

00010737 <__isr_0x96>:
   10737:	6a 00                	push   $0x0
   10739:	68 96 00 00 00       	push   $0x96
   1073e:	e9 59 f9 ff ff       	jmp    1009c <isr_save>

00010743 <__isr_0x97>:
   10743:	6a 00                	push   $0x0
   10745:	68 97 00 00 00       	push   $0x97
   1074a:	e9 4d f9 ff ff       	jmp    1009c <isr_save>

0001074f <__isr_0x98>:
   1074f:	6a 00                	push   $0x0
   10751:	68 98 00 00 00       	push   $0x98
   10756:	e9 41 f9 ff ff       	jmp    1009c <isr_save>

0001075b <__isr_0x99>:
   1075b:	6a 00                	push   $0x0
   1075d:	68 99 00 00 00       	push   $0x99
   10762:	e9 35 f9 ff ff       	jmp    1009c <isr_save>

00010767 <__isr_0x9a>:
   10767:	6a 00                	push   $0x0
   10769:	68 9a 00 00 00       	push   $0x9a
   1076e:	e9 29 f9 ff ff       	jmp    1009c <isr_save>

00010773 <__isr_0x9b>:
   10773:	6a 00                	push   $0x0
   10775:	68 9b 00 00 00       	push   $0x9b
   1077a:	e9 1d f9 ff ff       	jmp    1009c <isr_save>

0001077f <__isr_0x9c>:
   1077f:	6a 00                	push   $0x0
   10781:	68 9c 00 00 00       	push   $0x9c
   10786:	e9 11 f9 ff ff       	jmp    1009c <isr_save>

0001078b <__isr_0x9d>:
   1078b:	6a 00                	push   $0x0
   1078d:	68 9d 00 00 00       	push   $0x9d
   10792:	e9 05 f9 ff ff       	jmp    1009c <isr_save>

00010797 <__isr_0x9e>:
   10797:	6a 00                	push   $0x0
   10799:	68 9e 00 00 00       	push   $0x9e
   1079e:	e9 f9 f8 ff ff       	jmp    1009c <isr_save>

000107a3 <__isr_0x9f>:
   107a3:	6a 00                	push   $0x0
   107a5:	68 9f 00 00 00       	push   $0x9f
   107aa:	e9 ed f8 ff ff       	jmp    1009c <isr_save>

000107af <__isr_0xa0>:
   107af:	6a 00                	push   $0x0
   107b1:	68 a0 00 00 00       	push   $0xa0
   107b6:	e9 e1 f8 ff ff       	jmp    1009c <isr_save>

000107bb <__isr_0xa1>:
   107bb:	6a 00                	push   $0x0
   107bd:	68 a1 00 00 00       	push   $0xa1
   107c2:	e9 d5 f8 ff ff       	jmp    1009c <isr_save>

000107c7 <__isr_0xa2>:
   107c7:	6a 00                	push   $0x0
   107c9:	68 a2 00 00 00       	push   $0xa2
   107ce:	e9 c9 f8 ff ff       	jmp    1009c <isr_save>

000107d3 <__isr_0xa3>:
   107d3:	6a 00                	push   $0x0
   107d5:	68 a3 00 00 00       	push   $0xa3
   107da:	e9 bd f8 ff ff       	jmp    1009c <isr_save>

000107df <__isr_0xa4>:
   107df:	6a 00                	push   $0x0
   107e1:	68 a4 00 00 00       	push   $0xa4
   107e6:	e9 b1 f8 ff ff       	jmp    1009c <isr_save>

000107eb <__isr_0xa5>:
   107eb:	6a 00                	push   $0x0
   107ed:	68 a5 00 00 00       	push   $0xa5
   107f2:	e9 a5 f8 ff ff       	jmp    1009c <isr_save>

000107f7 <__isr_0xa6>:
   107f7:	6a 00                	push   $0x0
   107f9:	68 a6 00 00 00       	push   $0xa6
   107fe:	e9 99 f8 ff ff       	jmp    1009c <isr_save>

00010803 <__isr_0xa7>:
   10803:	6a 00                	push   $0x0
   10805:	68 a7 00 00 00       	push   $0xa7
   1080a:	e9 8d f8 ff ff       	jmp    1009c <isr_save>

0001080f <__isr_0xa8>:
   1080f:	6a 00                	push   $0x0
   10811:	68 a8 00 00 00       	push   $0xa8
   10816:	e9 81 f8 ff ff       	jmp    1009c <isr_save>

0001081b <__isr_0xa9>:
   1081b:	6a 00                	push   $0x0
   1081d:	68 a9 00 00 00       	push   $0xa9
   10822:	e9 75 f8 ff ff       	jmp    1009c <isr_save>

00010827 <__isr_0xaa>:
   10827:	6a 00                	push   $0x0
   10829:	68 aa 00 00 00       	push   $0xaa
   1082e:	e9 69 f8 ff ff       	jmp    1009c <isr_save>

00010833 <__isr_0xab>:
   10833:	6a 00                	push   $0x0
   10835:	68 ab 00 00 00       	push   $0xab
   1083a:	e9 5d f8 ff ff       	jmp    1009c <isr_save>

0001083f <__isr_0xac>:
   1083f:	6a 00                	push   $0x0
   10841:	68 ac 00 00 00       	push   $0xac
   10846:	e9 51 f8 ff ff       	jmp    1009c <isr_save>

0001084b <__isr_0xad>:
   1084b:	6a 00                	push   $0x0
   1084d:	68 ad 00 00 00       	push   $0xad
   10852:	e9 45 f8 ff ff       	jmp    1009c <isr_save>

00010857 <__isr_0xae>:
   10857:	6a 00                	push   $0x0
   10859:	68 ae 00 00 00       	push   $0xae
   1085e:	e9 39 f8 ff ff       	jmp    1009c <isr_save>

00010863 <__isr_0xaf>:
   10863:	6a 00                	push   $0x0
   10865:	68 af 00 00 00       	push   $0xaf
   1086a:	e9 2d f8 ff ff       	jmp    1009c <isr_save>

0001086f <__isr_0xb0>:
   1086f:	6a 00                	push   $0x0
   10871:	68 b0 00 00 00       	push   $0xb0
   10876:	e9 21 f8 ff ff       	jmp    1009c <isr_save>

0001087b <__isr_0xb1>:
   1087b:	6a 00                	push   $0x0
   1087d:	68 b1 00 00 00       	push   $0xb1
   10882:	e9 15 f8 ff ff       	jmp    1009c <isr_save>

00010887 <__isr_0xb2>:
   10887:	6a 00                	push   $0x0
   10889:	68 b2 00 00 00       	push   $0xb2
   1088e:	e9 09 f8 ff ff       	jmp    1009c <isr_save>

00010893 <__isr_0xb3>:
   10893:	6a 00                	push   $0x0
   10895:	68 b3 00 00 00       	push   $0xb3
   1089a:	e9 fd f7 ff ff       	jmp    1009c <isr_save>

0001089f <__isr_0xb4>:
   1089f:	6a 00                	push   $0x0
   108a1:	68 b4 00 00 00       	push   $0xb4
   108a6:	e9 f1 f7 ff ff       	jmp    1009c <isr_save>

000108ab <__isr_0xb5>:
   108ab:	6a 00                	push   $0x0
   108ad:	68 b5 00 00 00       	push   $0xb5
   108b2:	e9 e5 f7 ff ff       	jmp    1009c <isr_save>

000108b7 <__isr_0xb6>:
   108b7:	6a 00                	push   $0x0
   108b9:	68 b6 00 00 00       	push   $0xb6
   108be:	e9 d9 f7 ff ff       	jmp    1009c <isr_save>

000108c3 <__isr_0xb7>:
   108c3:	6a 00                	push   $0x0
   108c5:	68 b7 00 00 00       	push   $0xb7
   108ca:	e9 cd f7 ff ff       	jmp    1009c <isr_save>

000108cf <__isr_0xb8>:
   108cf:	6a 00                	push   $0x0
   108d1:	68 b8 00 00 00       	push   $0xb8
   108d6:	e9 c1 f7 ff ff       	jmp    1009c <isr_save>

000108db <__isr_0xb9>:
   108db:	6a 00                	push   $0x0
   108dd:	68 b9 00 00 00       	push   $0xb9
   108e2:	e9 b5 f7 ff ff       	jmp    1009c <isr_save>

000108e7 <__isr_0xba>:
   108e7:	6a 00                	push   $0x0
   108e9:	68 ba 00 00 00       	push   $0xba
   108ee:	e9 a9 f7 ff ff       	jmp    1009c <isr_save>

000108f3 <__isr_0xbb>:
   108f3:	6a 00                	push   $0x0
   108f5:	68 bb 00 00 00       	push   $0xbb
   108fa:	e9 9d f7 ff ff       	jmp    1009c <isr_save>

000108ff <__isr_0xbc>:
   108ff:	6a 00                	push   $0x0
   10901:	68 bc 00 00 00       	push   $0xbc
   10906:	e9 91 f7 ff ff       	jmp    1009c <isr_save>

0001090b <__isr_0xbd>:
   1090b:	6a 00                	push   $0x0
   1090d:	68 bd 00 00 00       	push   $0xbd
   10912:	e9 85 f7 ff ff       	jmp    1009c <isr_save>

00010917 <__isr_0xbe>:
   10917:	6a 00                	push   $0x0
   10919:	68 be 00 00 00       	push   $0xbe
   1091e:	e9 79 f7 ff ff       	jmp    1009c <isr_save>

00010923 <__isr_0xbf>:
   10923:	6a 00                	push   $0x0
   10925:	68 bf 00 00 00       	push   $0xbf
   1092a:	e9 6d f7 ff ff       	jmp    1009c <isr_save>

0001092f <__isr_0xc0>:
   1092f:	6a 00                	push   $0x0
   10931:	68 c0 00 00 00       	push   $0xc0
   10936:	e9 61 f7 ff ff       	jmp    1009c <isr_save>

0001093b <__isr_0xc1>:
   1093b:	6a 00                	push   $0x0
   1093d:	68 c1 00 00 00       	push   $0xc1
   10942:	e9 55 f7 ff ff       	jmp    1009c <isr_save>

00010947 <__isr_0xc2>:
   10947:	6a 00                	push   $0x0
   10949:	68 c2 00 00 00       	push   $0xc2
   1094e:	e9 49 f7 ff ff       	jmp    1009c <isr_save>

00010953 <__isr_0xc3>:
   10953:	6a 00                	push   $0x0
   10955:	68 c3 00 00 00       	push   $0xc3
   1095a:	e9 3d f7 ff ff       	jmp    1009c <isr_save>

0001095f <__isr_0xc4>:
   1095f:	6a 00                	push   $0x0
   10961:	68 c4 00 00 00       	push   $0xc4
   10966:	e9 31 f7 ff ff       	jmp    1009c <isr_save>

0001096b <__isr_0xc5>:
   1096b:	6a 00                	push   $0x0
   1096d:	68 c5 00 00 00       	push   $0xc5
   10972:	e9 25 f7 ff ff       	jmp    1009c <isr_save>

00010977 <__isr_0xc6>:
   10977:	6a 00                	push   $0x0
   10979:	68 c6 00 00 00       	push   $0xc6
   1097e:	e9 19 f7 ff ff       	jmp    1009c <isr_save>

00010983 <__isr_0xc7>:
   10983:	6a 00                	push   $0x0
   10985:	68 c7 00 00 00       	push   $0xc7
   1098a:	e9 0d f7 ff ff       	jmp    1009c <isr_save>

0001098f <__isr_0xc8>:
   1098f:	6a 00                	push   $0x0
   10991:	68 c8 00 00 00       	push   $0xc8
   10996:	e9 01 f7 ff ff       	jmp    1009c <isr_save>

0001099b <__isr_0xc9>:
   1099b:	6a 00                	push   $0x0
   1099d:	68 c9 00 00 00       	push   $0xc9
   109a2:	e9 f5 f6 ff ff       	jmp    1009c <isr_save>

000109a7 <__isr_0xca>:
   109a7:	6a 00                	push   $0x0
   109a9:	68 ca 00 00 00       	push   $0xca
   109ae:	e9 e9 f6 ff ff       	jmp    1009c <isr_save>

000109b3 <__isr_0xcb>:
   109b3:	6a 00                	push   $0x0
   109b5:	68 cb 00 00 00       	push   $0xcb
   109ba:	e9 dd f6 ff ff       	jmp    1009c <isr_save>

000109bf <__isr_0xcc>:
   109bf:	6a 00                	push   $0x0
   109c1:	68 cc 00 00 00       	push   $0xcc
   109c6:	e9 d1 f6 ff ff       	jmp    1009c <isr_save>

000109cb <__isr_0xcd>:
   109cb:	6a 00                	push   $0x0
   109cd:	68 cd 00 00 00       	push   $0xcd
   109d2:	e9 c5 f6 ff ff       	jmp    1009c <isr_save>

000109d7 <__isr_0xce>:
   109d7:	6a 00                	push   $0x0
   109d9:	68 ce 00 00 00       	push   $0xce
   109de:	e9 b9 f6 ff ff       	jmp    1009c <isr_save>

000109e3 <__isr_0xcf>:
   109e3:	6a 00                	push   $0x0
   109e5:	68 cf 00 00 00       	push   $0xcf
   109ea:	e9 ad f6 ff ff       	jmp    1009c <isr_save>

000109ef <__isr_0xd0>:
   109ef:	6a 00                	push   $0x0
   109f1:	68 d0 00 00 00       	push   $0xd0
   109f6:	e9 a1 f6 ff ff       	jmp    1009c <isr_save>

000109fb <__isr_0xd1>:
   109fb:	6a 00                	push   $0x0
   109fd:	68 d1 00 00 00       	push   $0xd1
   10a02:	e9 95 f6 ff ff       	jmp    1009c <isr_save>

00010a07 <__isr_0xd2>:
   10a07:	6a 00                	push   $0x0
   10a09:	68 d2 00 00 00       	push   $0xd2
   10a0e:	e9 89 f6 ff ff       	jmp    1009c <isr_save>

00010a13 <__isr_0xd3>:
   10a13:	6a 00                	push   $0x0
   10a15:	68 d3 00 00 00       	push   $0xd3
   10a1a:	e9 7d f6 ff ff       	jmp    1009c <isr_save>

00010a1f <__isr_0xd4>:
   10a1f:	6a 00                	push   $0x0
   10a21:	68 d4 00 00 00       	push   $0xd4
   10a26:	e9 71 f6 ff ff       	jmp    1009c <isr_save>

00010a2b <__isr_0xd5>:
   10a2b:	6a 00                	push   $0x0
   10a2d:	68 d5 00 00 00       	push   $0xd5
   10a32:	e9 65 f6 ff ff       	jmp    1009c <isr_save>

00010a37 <__isr_0xd6>:
   10a37:	6a 00                	push   $0x0
   10a39:	68 d6 00 00 00       	push   $0xd6
   10a3e:	e9 59 f6 ff ff       	jmp    1009c <isr_save>

00010a43 <__isr_0xd7>:
   10a43:	6a 00                	push   $0x0
   10a45:	68 d7 00 00 00       	push   $0xd7
   10a4a:	e9 4d f6 ff ff       	jmp    1009c <isr_save>

00010a4f <__isr_0xd8>:
   10a4f:	6a 00                	push   $0x0
   10a51:	68 d8 00 00 00       	push   $0xd8
   10a56:	e9 41 f6 ff ff       	jmp    1009c <isr_save>

00010a5b <__isr_0xd9>:
   10a5b:	6a 00                	push   $0x0
   10a5d:	68 d9 00 00 00       	push   $0xd9
   10a62:	e9 35 f6 ff ff       	jmp    1009c <isr_save>

00010a67 <__isr_0xda>:
   10a67:	6a 00                	push   $0x0
   10a69:	68 da 00 00 00       	push   $0xda
   10a6e:	e9 29 f6 ff ff       	jmp    1009c <isr_save>

00010a73 <__isr_0xdb>:
   10a73:	6a 00                	push   $0x0
   10a75:	68 db 00 00 00       	push   $0xdb
   10a7a:	e9 1d f6 ff ff       	jmp    1009c <isr_save>

00010a7f <__isr_0xdc>:
   10a7f:	6a 00                	push   $0x0
   10a81:	68 dc 00 00 00       	push   $0xdc
   10a86:	e9 11 f6 ff ff       	jmp    1009c <isr_save>

00010a8b <__isr_0xdd>:
   10a8b:	6a 00                	push   $0x0
   10a8d:	68 dd 00 00 00       	push   $0xdd
   10a92:	e9 05 f6 ff ff       	jmp    1009c <isr_save>

00010a97 <__isr_0xde>:
   10a97:	6a 00                	push   $0x0
   10a99:	68 de 00 00 00       	push   $0xde
   10a9e:	e9 f9 f5 ff ff       	jmp    1009c <isr_save>

00010aa3 <__isr_0xdf>:
   10aa3:	6a 00                	push   $0x0
   10aa5:	68 df 00 00 00       	push   $0xdf
   10aaa:	e9 ed f5 ff ff       	jmp    1009c <isr_save>

00010aaf <__isr_0xe0>:
   10aaf:	6a 00                	push   $0x0
   10ab1:	68 e0 00 00 00       	push   $0xe0
   10ab6:	e9 e1 f5 ff ff       	jmp    1009c <isr_save>

00010abb <__isr_0xe1>:
   10abb:	6a 00                	push   $0x0
   10abd:	68 e1 00 00 00       	push   $0xe1
   10ac2:	e9 d5 f5 ff ff       	jmp    1009c <isr_save>

00010ac7 <__isr_0xe2>:
   10ac7:	6a 00                	push   $0x0
   10ac9:	68 e2 00 00 00       	push   $0xe2
   10ace:	e9 c9 f5 ff ff       	jmp    1009c <isr_save>

00010ad3 <__isr_0xe3>:
   10ad3:	6a 00                	push   $0x0
   10ad5:	68 e3 00 00 00       	push   $0xe3
   10ada:	e9 bd f5 ff ff       	jmp    1009c <isr_save>

00010adf <__isr_0xe4>:
   10adf:	6a 00                	push   $0x0
   10ae1:	68 e4 00 00 00       	push   $0xe4
   10ae6:	e9 b1 f5 ff ff       	jmp    1009c <isr_save>

00010aeb <__isr_0xe5>:
   10aeb:	6a 00                	push   $0x0
   10aed:	68 e5 00 00 00       	push   $0xe5
   10af2:	e9 a5 f5 ff ff       	jmp    1009c <isr_save>

00010af7 <__isr_0xe6>:
   10af7:	6a 00                	push   $0x0
   10af9:	68 e6 00 00 00       	push   $0xe6
   10afe:	e9 99 f5 ff ff       	jmp    1009c <isr_save>

00010b03 <__isr_0xe7>:
   10b03:	6a 00                	push   $0x0
   10b05:	68 e7 00 00 00       	push   $0xe7
   10b0a:	e9 8d f5 ff ff       	jmp    1009c <isr_save>

00010b0f <__isr_0xe8>:
   10b0f:	6a 00                	push   $0x0
   10b11:	68 e8 00 00 00       	push   $0xe8
   10b16:	e9 81 f5 ff ff       	jmp    1009c <isr_save>

00010b1b <__isr_0xe9>:
   10b1b:	6a 00                	push   $0x0
   10b1d:	68 e9 00 00 00       	push   $0xe9
   10b22:	e9 75 f5 ff ff       	jmp    1009c <isr_save>

00010b27 <__isr_0xea>:
   10b27:	6a 00                	push   $0x0
   10b29:	68 ea 00 00 00       	push   $0xea
   10b2e:	e9 69 f5 ff ff       	jmp    1009c <isr_save>

00010b33 <__isr_0xeb>:
   10b33:	6a 00                	push   $0x0
   10b35:	68 eb 00 00 00       	push   $0xeb
   10b3a:	e9 5d f5 ff ff       	jmp    1009c <isr_save>

00010b3f <__isr_0xec>:
   10b3f:	6a 00                	push   $0x0
   10b41:	68 ec 00 00 00       	push   $0xec
   10b46:	e9 51 f5 ff ff       	jmp    1009c <isr_save>

00010b4b <__isr_0xed>:
   10b4b:	6a 00                	push   $0x0
   10b4d:	68 ed 00 00 00       	push   $0xed
   10b52:	e9 45 f5 ff ff       	jmp    1009c <isr_save>

00010b57 <__isr_0xee>:
   10b57:	6a 00                	push   $0x0
   10b59:	68 ee 00 00 00       	push   $0xee
   10b5e:	e9 39 f5 ff ff       	jmp    1009c <isr_save>

00010b63 <__isr_0xef>:
   10b63:	6a 00                	push   $0x0
   10b65:	68 ef 00 00 00       	push   $0xef
   10b6a:	e9 2d f5 ff ff       	jmp    1009c <isr_save>

00010b6f <__isr_0xf0>:
   10b6f:	6a 00                	push   $0x0
   10b71:	68 f0 00 00 00       	push   $0xf0
   10b76:	e9 21 f5 ff ff       	jmp    1009c <isr_save>

00010b7b <__isr_0xf1>:
   10b7b:	6a 00                	push   $0x0
   10b7d:	68 f1 00 00 00       	push   $0xf1
   10b82:	e9 15 f5 ff ff       	jmp    1009c <isr_save>

00010b87 <__isr_0xf2>:
   10b87:	6a 00                	push   $0x0
   10b89:	68 f2 00 00 00       	push   $0xf2
   10b8e:	e9 09 f5 ff ff       	jmp    1009c <isr_save>

00010b93 <__isr_0xf3>:
   10b93:	6a 00                	push   $0x0
   10b95:	68 f3 00 00 00       	push   $0xf3
   10b9a:	e9 fd f4 ff ff       	jmp    1009c <isr_save>

00010b9f <__isr_0xf4>:
   10b9f:	6a 00                	push   $0x0
   10ba1:	68 f4 00 00 00       	push   $0xf4
   10ba6:	e9 f1 f4 ff ff       	jmp    1009c <isr_save>

00010bab <__isr_0xf5>:
   10bab:	6a 00                	push   $0x0
   10bad:	68 f5 00 00 00       	push   $0xf5
   10bb2:	e9 e5 f4 ff ff       	jmp    1009c <isr_save>

00010bb7 <__isr_0xf6>:
   10bb7:	6a 00                	push   $0x0
   10bb9:	68 f6 00 00 00       	push   $0xf6
   10bbe:	e9 d9 f4 ff ff       	jmp    1009c <isr_save>

00010bc3 <__isr_0xf7>:
   10bc3:	6a 00                	push   $0x0
   10bc5:	68 f7 00 00 00       	push   $0xf7
   10bca:	e9 cd f4 ff ff       	jmp    1009c <isr_save>

00010bcf <__isr_0xf8>:
   10bcf:	6a 00                	push   $0x0
   10bd1:	68 f8 00 00 00       	push   $0xf8
   10bd6:	e9 c1 f4 ff ff       	jmp    1009c <isr_save>

00010bdb <__isr_0xf9>:
   10bdb:	6a 00                	push   $0x0
   10bdd:	68 f9 00 00 00       	push   $0xf9
   10be2:	e9 b5 f4 ff ff       	jmp    1009c <isr_save>

00010be7 <__isr_0xfa>:
   10be7:	6a 00                	push   $0x0
   10be9:	68 fa 00 00 00       	push   $0xfa
   10bee:	e9 a9 f4 ff ff       	jmp    1009c <isr_save>

00010bf3 <__isr_0xfb>:
   10bf3:	6a 00                	push   $0x0
   10bf5:	68 fb 00 00 00       	push   $0xfb
   10bfa:	e9 9d f4 ff ff       	jmp    1009c <isr_save>

00010bff <__isr_0xfc>:
   10bff:	6a 00                	push   $0x0
   10c01:	68 fc 00 00 00       	push   $0xfc
   10c06:	e9 91 f4 ff ff       	jmp    1009c <isr_save>

00010c0b <__isr_0xfd>:
   10c0b:	6a 00                	push   $0x0
   10c0d:	68 fd 00 00 00       	push   $0xfd
   10c12:	e9 85 f4 ff ff       	jmp    1009c <isr_save>

00010c17 <__isr_0xfe>:
   10c17:	6a 00                	push   $0x0
   10c19:	68 fe 00 00 00       	push   $0xfe
   10c1e:	e9 79 f4 ff ff       	jmp    1009c <isr_save>

00010c23 <__isr_0xff>:
   10c23:	6a 00                	push   $0x0
   10c25:	68 ff 00 00 00       	push   $0xff
   10c2a:	e9 6d f4 ff ff       	jmp    1009c <isr_save>

00010c2f <bound>:
   10c2f:	55                   	push   %ebp
   10c30:	89 e5                	mov    %esp,%ebp
   10c32:	8b 45 0c             	mov    0xc(%ebp),%eax
   10c35:	3b 45 08             	cmp    0x8(%ebp),%eax
   10c38:	73 06                	jae    10c40 <bound+0x11>
   10c3a:	8b 45 08             	mov    0x8(%ebp),%eax
   10c3d:	89 45 0c             	mov    %eax,0xc(%ebp)
   10c40:	8b 45 0c             	mov    0xc(%ebp),%eax
   10c43:	3b 45 10             	cmp    0x10(%ebp),%eax
   10c46:	76 06                	jbe    10c4e <bound+0x1f>
   10c48:	8b 45 10             	mov    0x10(%ebp),%eax
   10c4b:	89 45 0c             	mov    %eax,0xc(%ebp)
   10c4e:	8b 45 0c             	mov    0xc(%ebp),%eax
   10c51:	5d                   	pop    %ebp
   10c52:	c3                   	ret    

00010c53 <__c_setcursor>:
   10c53:	55                   	push   %ebp
   10c54:	89 e5                	mov    %esp,%ebp
   10c56:	83 ec 18             	sub    $0x18,%esp
   10c59:	a1 94 c7 01 00       	mov    0x1c794,%eax
   10c5e:	89 45 f4             	mov    %eax,-0xc(%ebp)
   10c61:	a1 88 c7 01 00       	mov    0x1c788,%eax
   10c66:	39 45 f4             	cmp    %eax,-0xc(%ebp)
   10c69:	76 08                	jbe    10c73 <__c_setcursor+0x20>
   10c6b:	a1 88 c7 01 00       	mov    0x1c788,%eax
   10c70:	89 45 f4             	mov    %eax,-0xc(%ebp)
   10c73:	8b 55 f4             	mov    -0xc(%ebp),%edx
   10c76:	89 d0                	mov    %edx,%eax
   10c78:	c1 e0 02             	shl    $0x2,%eax
   10c7b:	01 d0                	add    %edx,%eax
   10c7d:	c1 e0 04             	shl    $0x4,%eax
   10c80:	89 c2                	mov    %eax,%edx
   10c82:	a1 80 c7 01 00       	mov    0x1c780,%eax
   10c87:	01 d0                	add    %edx,%eax
   10c89:	89 45 f0             	mov    %eax,-0x10(%ebp)
   10c8c:	83 ec 08             	sub    $0x8,%esp
   10c8f:	6a 0e                	push   $0xe
   10c91:	68 d4 03 00 00       	push   $0x3d4
   10c96:	e8 ca f3 ff ff       	call   10065 <__outb>
   10c9b:	83 c4 10             	add    $0x10,%esp
   10c9e:	8b 45 f0             	mov    -0x10(%ebp),%eax
   10ca1:	c1 e8 08             	shr    $0x8,%eax
   10ca4:	0f b6 c0             	movzbl %al,%eax
   10ca7:	83 ec 08             	sub    $0x8,%esp
   10caa:	50                   	push   %eax
   10cab:	68 d5 03 00 00       	push   $0x3d5
   10cb0:	e8 b0 f3 ff ff       	call   10065 <__outb>
   10cb5:	83 c4 10             	add    $0x10,%esp
   10cb8:	83 ec 08             	sub    $0x8,%esp
   10cbb:	6a 0f                	push   $0xf
   10cbd:	68 d4 03 00 00       	push   $0x3d4
   10cc2:	e8 9e f3 ff ff       	call   10065 <__outb>
   10cc7:	83 c4 10             	add    $0x10,%esp
   10cca:	8b 45 f0             	mov    -0x10(%ebp),%eax
   10ccd:	0f b6 c0             	movzbl %al,%eax
   10cd0:	83 ec 08             	sub    $0x8,%esp
   10cd3:	50                   	push   %eax
   10cd4:	68 d5 03 00 00       	push   $0x3d5
   10cd9:	e8 87 f3 ff ff       	call   10065 <__outb>
   10cde:	83 c4 10             	add    $0x10,%esp
   10ce1:	90                   	nop
   10ce2:	c9                   	leave  
   10ce3:	c3                   	ret    

00010ce4 <__c_strlen>:
   10ce4:	55                   	push   %ebp
   10ce5:	89 e5                	mov    %esp,%ebp
   10ce7:	83 ec 10             	sub    $0x10,%esp
   10cea:	c7 45 fc 00 00 00 00 	movl   $0x0,-0x4(%ebp)
   10cf1:	eb 04                	jmp    10cf7 <__c_strlen+0x13>
   10cf3:	83 45 fc 01          	addl   $0x1,-0x4(%ebp)
   10cf7:	8b 45 08             	mov    0x8(%ebp),%eax
   10cfa:	8d 50 01             	lea    0x1(%eax),%edx
   10cfd:	89 55 08             	mov    %edx,0x8(%ebp)
   10d00:	0f b6 00             	movzbl (%eax),%eax
   10d03:	84 c0                	test   %al,%al
   10d05:	75 ec                	jne    10cf3 <__c_strlen+0xf>
   10d07:	8b 45 fc             	mov    -0x4(%ebp),%eax
   10d0a:	c9                   	leave  
   10d0b:	c3                   	ret    

00010d0c <__c_putchar_at>:
   10d0c:	55                   	push   %ebp
   10d0d:	89 e5                	mov    %esp,%ebp
   10d0f:	83 ec 10             	sub    $0x10,%esp
   10d12:	a1 7c c7 01 00       	mov    0x1c77c,%eax
   10d17:	39 45 08             	cmp    %eax,0x8(%ebp)
   10d1a:	77 4c                	ja     10d68 <__c_putchar_at+0x5c>
   10d1c:	a1 98 c7 01 00       	mov    0x1c798,%eax
   10d21:	39 45 0c             	cmp    %eax,0xc(%ebp)
   10d24:	77 42                	ja     10d68 <__c_putchar_at+0x5c>
   10d26:	8b 55 0c             	mov    0xc(%ebp),%edx
   10d29:	89 d0                	mov    %edx,%eax
   10d2b:	c1 e0 02             	shl    $0x2,%eax
   10d2e:	01 d0                	add    %edx,%eax
   10d30:	c1 e0 04             	shl    $0x4,%eax
   10d33:	89 c2                	mov    %eax,%edx
   10d35:	8b 45 08             	mov    0x8(%ebp),%eax
   10d38:	01 d0                	add    %edx,%eax
   10d3a:	05 00 c0 05 00       	add    $0x5c000,%eax
   10d3f:	01 c0                	add    %eax,%eax
   10d41:	89 45 fc             	mov    %eax,-0x4(%ebp)
   10d44:	81 7d 10 ff 00 00 00 	cmpl   $0xff,0x10(%ebp)
   10d4b:	76 0d                	jbe    10d5a <__c_putchar_at+0x4e>
   10d4d:	8b 45 10             	mov    0x10(%ebp),%eax
   10d50:	89 c2                	mov    %eax,%edx
   10d52:	8b 45 fc             	mov    -0x4(%ebp),%eax
   10d55:	66 89 10             	mov    %dx,(%eax)
   10d58:	eb 0e                	jmp    10d68 <__c_putchar_at+0x5c>
   10d5a:	8b 45 10             	mov    0x10(%ebp),%eax
   10d5d:	80 cc 07             	or     $0x7,%ah
   10d60:	89 c2                	mov    %eax,%edx
   10d62:	8b 45 fc             	mov    -0x4(%ebp),%eax
   10d65:	66 89 10             	mov    %dx,(%eax)
   10d68:	90                   	nop
   10d69:	c9                   	leave  
   10d6a:	c3                   	ret    

00010d6b <c_setscroll>:
   10d6b:	55                   	push   %ebp
   10d6c:	89 e5                	mov    %esp,%ebp
   10d6e:	83 ec 08             	sub    $0x8,%esp
   10d71:	8b 15 7c c7 01 00    	mov    0x1c77c,%edx
   10d77:	a1 90 c7 01 00       	mov    0x1c790,%eax
   10d7c:	52                   	push   %edx
   10d7d:	ff 75 08             	pushl  0x8(%ebp)
   10d80:	50                   	push   %eax
   10d81:	e8 a9 fe ff ff       	call   10c2f <bound>
   10d86:	83 c4 0c             	add    $0xc,%esp
   10d89:	a3 9c c7 01 00       	mov    %eax,0x1c79c
   10d8e:	8b 15 98 c7 01 00    	mov    0x1c798,%edx
   10d94:	a1 84 c7 01 00       	mov    0x1c784,%eax
   10d99:	52                   	push   %edx
   10d9a:	ff 75 0c             	pushl  0xc(%ebp)
   10d9d:	50                   	push   %eax
   10d9e:	e8 8c fe ff ff       	call   10c2f <bound>
   10da3:	83 c4 0c             	add    $0xc,%esp
   10da6:	a3 8c c7 01 00       	mov    %eax,0x1c78c
   10dab:	8b 15 7c c7 01 00    	mov    0x1c77c,%edx
   10db1:	a1 9c c7 01 00       	mov    0x1c79c,%eax
   10db6:	52                   	push   %edx
   10db7:	ff 75 10             	pushl  0x10(%ebp)
   10dba:	50                   	push   %eax
   10dbb:	e8 6f fe ff ff       	call   10c2f <bound>
   10dc0:	83 c4 0c             	add    $0xc,%esp
   10dc3:	a3 78 c7 01 00       	mov    %eax,0x1c778
   10dc8:	8b 15 98 c7 01 00    	mov    0x1c798,%edx
   10dce:	a1 8c c7 01 00       	mov    0x1c78c,%eax
   10dd3:	52                   	push   %edx
   10dd4:	ff 75 14             	pushl  0x14(%ebp)
   10dd7:	50                   	push   %eax
   10dd8:	e8 52 fe ff ff       	call   10c2f <bound>
   10ddd:	83 c4 0c             	add    $0xc,%esp
   10de0:	a3 88 c7 01 00       	mov    %eax,0x1c788
   10de5:	a1 9c c7 01 00       	mov    0x1c79c,%eax
   10dea:	a3 80 c7 01 00       	mov    %eax,0x1c780
   10def:	a1 8c c7 01 00       	mov    0x1c78c,%eax
   10df4:	a3 94 c7 01 00       	mov    %eax,0x1c794
   10df9:	e8 55 fe ff ff       	call   10c53 <__c_setcursor>
   10dfe:	90                   	nop
   10dff:	c9                   	leave  
   10e00:	c3                   	ret    

00010e01 <c_moveto>:
   10e01:	55                   	push   %ebp
   10e02:	89 e5                	mov    %esp,%ebp
   10e04:	83 ec 08             	sub    $0x8,%esp
   10e07:	8b 15 78 c7 01 00    	mov    0x1c778,%edx
   10e0d:	8b 0d 9c c7 01 00    	mov    0x1c79c,%ecx
   10e13:	8b 45 08             	mov    0x8(%ebp),%eax
   10e16:	01 c1                	add    %eax,%ecx
   10e18:	a1 9c c7 01 00       	mov    0x1c79c,%eax
   10e1d:	52                   	push   %edx
   10e1e:	51                   	push   %ecx
   10e1f:	50                   	push   %eax
   10e20:	e8 0a fe ff ff       	call   10c2f <bound>
   10e25:	83 c4 0c             	add    $0xc,%esp
   10e28:	a3 80 c7 01 00       	mov    %eax,0x1c780
   10e2d:	8b 15 88 c7 01 00    	mov    0x1c788,%edx
   10e33:	8b 0d 8c c7 01 00    	mov    0x1c78c,%ecx
   10e39:	8b 45 0c             	mov    0xc(%ebp),%eax
   10e3c:	01 c1                	add    %eax,%ecx
   10e3e:	a1 8c c7 01 00       	mov    0x1c78c,%eax
   10e43:	52                   	push   %edx
   10e44:	51                   	push   %ecx
   10e45:	50                   	push   %eax
   10e46:	e8 e4 fd ff ff       	call   10c2f <bound>
   10e4b:	83 c4 0c             	add    $0xc,%esp
   10e4e:	a3 94 c7 01 00       	mov    %eax,0x1c794
   10e53:	e8 fb fd ff ff       	call   10c53 <__c_setcursor>
   10e58:	90                   	nop
   10e59:	c9                   	leave  
   10e5a:	c3                   	ret    

00010e5b <c_putchar_at>:
   10e5b:	55                   	push   %ebp
   10e5c:	89 e5                	mov    %esp,%ebp
   10e5e:	83 ec 10             	sub    $0x10,%esp
   10e61:	8b 45 10             	mov    0x10(%ebp),%eax
   10e64:	83 e0 7f             	and    $0x7f,%eax
   10e67:	83 f8 0a             	cmp    $0xa,%eax
   10e6a:	75 53                	jne    10ebf <c_putchar_at+0x64>
   10e6c:	a1 78 c7 01 00       	mov    0x1c778,%eax
   10e71:	39 45 08             	cmp    %eax,0x8(%ebp)
   10e74:	76 0a                	jbe    10e80 <c_putchar_at+0x25>
   10e76:	a1 7c c7 01 00       	mov    0x1c77c,%eax
   10e7b:	89 45 fc             	mov    %eax,-0x4(%ebp)
   10e7e:	eb 35                	jmp    10eb5 <c_putchar_at+0x5a>
   10e80:	a1 9c c7 01 00       	mov    0x1c79c,%eax
   10e85:	39 45 08             	cmp    %eax,0x8(%ebp)
   10e88:	72 0a                	jb     10e94 <c_putchar_at+0x39>
   10e8a:	a1 78 c7 01 00       	mov    0x1c778,%eax
   10e8f:	89 45 fc             	mov    %eax,-0x4(%ebp)
   10e92:	eb 21                	jmp    10eb5 <c_putchar_at+0x5a>
   10e94:	a1 9c c7 01 00       	mov    0x1c79c,%eax
   10e99:	83 e8 01             	sub    $0x1,%eax
   10e9c:	89 45 fc             	mov    %eax,-0x4(%ebp)
   10e9f:	eb 14                	jmp    10eb5 <c_putchar_at+0x5a>
   10ea1:	6a 20                	push   $0x20
   10ea3:	ff 75 0c             	pushl  0xc(%ebp)
   10ea6:	ff 75 08             	pushl  0x8(%ebp)
   10ea9:	e8 5e fe ff ff       	call   10d0c <__c_putchar_at>
   10eae:	83 c4 0c             	add    $0xc,%esp
   10eb1:	83 45 08 01          	addl   $0x1,0x8(%ebp)
   10eb5:	8b 45 08             	mov    0x8(%ebp),%eax
   10eb8:	3b 45 fc             	cmp    -0x4(%ebp),%eax
   10ebb:	76 e4                	jbe    10ea1 <c_putchar_at+0x46>
   10ebd:	eb 11                	jmp    10ed0 <c_putchar_at+0x75>
   10ebf:	ff 75 10             	pushl  0x10(%ebp)
   10ec2:	ff 75 0c             	pushl  0xc(%ebp)
   10ec5:	ff 75 08             	pushl  0x8(%ebp)
   10ec8:	e8 3f fe ff ff       	call   10d0c <__c_putchar_at>
   10ecd:	83 c4 0c             	add    $0xc,%esp
   10ed0:	90                   	nop
   10ed1:	c9                   	leave  
   10ed2:	c3                   	ret    

00010ed3 <c_putchar>:
   10ed3:	55                   	push   %ebp
   10ed4:	89 e5                	mov    %esp,%ebp
   10ed6:	83 ec 08             	sub    $0x8,%esp
   10ed9:	8b 15 94 c7 01 00    	mov    0x1c794,%edx
   10edf:	a1 88 c7 01 00       	mov    0x1c788,%eax
   10ee4:	39 c2                	cmp    %eax,%edx
   10ee6:	76 25                	jbe    10f0d <c_putchar+0x3a>
   10ee8:	8b 15 94 c7 01 00    	mov    0x1c794,%edx
   10eee:	a1 88 c7 01 00       	mov    0x1c788,%eax
   10ef3:	29 c2                	sub    %eax,%edx
   10ef5:	89 d0                	mov    %edx,%eax
   10ef7:	83 ec 0c             	sub    $0xc,%esp
   10efa:	50                   	push   %eax
   10efb:	e8 2d 02 00 00       	call   1112d <c_scroll>
   10f00:	83 c4 10             	add    $0x10,%esp
   10f03:	a1 88 c7 01 00       	mov    0x1c788,%eax
   10f08:	a3 94 c7 01 00       	mov    %eax,0x1c794
   10f0d:	8b 45 08             	mov    0x8(%ebp),%eax
   10f10:	0f b6 c0             	movzbl %al,%eax
   10f13:	83 f8 0a             	cmp    $0xa,%eax
   10f16:	74 2e                	je     10f46 <c_putchar+0x73>
   10f18:	83 f8 0d             	cmp    $0xd,%eax
   10f1b:	74 51                	je     10f6e <c_putchar+0x9b>
   10f1d:	eb 5b                	jmp    10f7a <c_putchar+0xa7>
   10f1f:	8b 15 94 c7 01 00    	mov    0x1c794,%edx
   10f25:	a1 80 c7 01 00       	mov    0x1c780,%eax
   10f2a:	83 ec 04             	sub    $0x4,%esp
   10f2d:	6a 20                	push   $0x20
   10f2f:	52                   	push   %edx
   10f30:	50                   	push   %eax
   10f31:	e8 d6 fd ff ff       	call   10d0c <__c_putchar_at>
   10f36:	83 c4 10             	add    $0x10,%esp
   10f39:	a1 80 c7 01 00       	mov    0x1c780,%eax
   10f3e:	83 c0 01             	add    $0x1,%eax
   10f41:	a3 80 c7 01 00       	mov    %eax,0x1c780
   10f46:	8b 15 80 c7 01 00    	mov    0x1c780,%edx
   10f4c:	a1 78 c7 01 00       	mov    0x1c778,%eax
   10f51:	39 c2                	cmp    %eax,%edx
   10f53:	76 ca                	jbe    10f1f <c_putchar+0x4c>
   10f55:	a1 9c c7 01 00       	mov    0x1c79c,%eax
   10f5a:	a3 80 c7 01 00       	mov    %eax,0x1c780
   10f5f:	a1 94 c7 01 00       	mov    0x1c794,%eax
   10f64:	83 c0 01             	add    $0x1,%eax
   10f67:	a3 94 c7 01 00       	mov    %eax,0x1c794
   10f6c:	eb 5b                	jmp    10fc9 <c_putchar+0xf6>
   10f6e:	a1 9c c7 01 00       	mov    0x1c79c,%eax
   10f73:	a3 80 c7 01 00       	mov    %eax,0x1c780
   10f78:	eb 4f                	jmp    10fc9 <c_putchar+0xf6>
   10f7a:	8b 15 94 c7 01 00    	mov    0x1c794,%edx
   10f80:	a1 80 c7 01 00       	mov    0x1c780,%eax
   10f85:	83 ec 04             	sub    $0x4,%esp
   10f88:	ff 75 08             	pushl  0x8(%ebp)
   10f8b:	52                   	push   %edx
   10f8c:	50                   	push   %eax
   10f8d:	e8 7a fd ff ff       	call   10d0c <__c_putchar_at>
   10f92:	83 c4 10             	add    $0x10,%esp
   10f95:	a1 80 c7 01 00       	mov    0x1c780,%eax
   10f9a:	83 c0 01             	add    $0x1,%eax
   10f9d:	a3 80 c7 01 00       	mov    %eax,0x1c780
   10fa2:	8b 15 80 c7 01 00    	mov    0x1c780,%edx
   10fa8:	a1 78 c7 01 00       	mov    0x1c778,%eax
   10fad:	39 c2                	cmp    %eax,%edx
   10faf:	76 17                	jbe    10fc8 <c_putchar+0xf5>
   10fb1:	a1 9c c7 01 00       	mov    0x1c79c,%eax
   10fb6:	a3 80 c7 01 00       	mov    %eax,0x1c780
   10fbb:	a1 94 c7 01 00       	mov    0x1c794,%eax
   10fc0:	83 c0 01             	add    $0x1,%eax
   10fc3:	a3 94 c7 01 00       	mov    %eax,0x1c794
   10fc8:	90                   	nop
   10fc9:	e8 85 fc ff ff       	call   10c53 <__c_setcursor>
   10fce:	90                   	nop
   10fcf:	c9                   	leave  
   10fd0:	c3                   	ret    

00010fd1 <c_puts_at>:
   10fd1:	55                   	push   %ebp
   10fd2:	89 e5                	mov    %esp,%ebp
   10fd4:	83 ec 10             	sub    $0x10,%esp
   10fd7:	eb 15                	jmp    10fee <c_puts_at+0x1d>
   10fd9:	ff 75 fc             	pushl  -0x4(%ebp)
   10fdc:	ff 75 0c             	pushl  0xc(%ebp)
   10fdf:	ff 75 08             	pushl  0x8(%ebp)
   10fe2:	e8 74 fe ff ff       	call   10e5b <c_putchar_at>
   10fe7:	83 c4 0c             	add    $0xc,%esp
   10fea:	83 45 08 01          	addl   $0x1,0x8(%ebp)
   10fee:	8b 45 10             	mov    0x10(%ebp),%eax
   10ff1:	8d 50 01             	lea    0x1(%eax),%edx
   10ff4:	89 55 10             	mov    %edx,0x10(%ebp)
   10ff7:	0f b6 00             	movzbl (%eax),%eax
   10ffa:	0f be c0             	movsbl %al,%eax
   10ffd:	89 45 fc             	mov    %eax,-0x4(%ebp)
   11000:	83 7d fc 00          	cmpl   $0x0,-0x4(%ebp)
   11004:	74 0a                	je     11010 <c_puts_at+0x3f>
   11006:	a1 7c c7 01 00       	mov    0x1c77c,%eax
   1100b:	39 45 08             	cmp    %eax,0x8(%ebp)
   1100e:	76 c9                	jbe    10fd9 <c_puts_at+0x8>
   11010:	90                   	nop
   11011:	c9                   	leave  
   11012:	c3                   	ret    

00011013 <c_puts>:
   11013:	55                   	push   %ebp
   11014:	89 e5                	mov    %esp,%ebp
   11016:	83 ec 18             	sub    $0x18,%esp
   11019:	eb 0e                	jmp    11029 <c_puts+0x16>
   1101b:	83 ec 0c             	sub    $0xc,%esp
   1101e:	ff 75 f4             	pushl  -0xc(%ebp)
   11021:	e8 ad fe ff ff       	call   10ed3 <c_putchar>
   11026:	83 c4 10             	add    $0x10,%esp
   11029:	8b 45 08             	mov    0x8(%ebp),%eax
   1102c:	8d 50 01             	lea    0x1(%eax),%edx
   1102f:	89 55 08             	mov    %edx,0x8(%ebp)
   11032:	0f b6 00             	movzbl (%eax),%eax
   11035:	0f be c0             	movsbl %al,%eax
   11038:	89 45 f4             	mov    %eax,-0xc(%ebp)
   1103b:	83 7d f4 00          	cmpl   $0x0,-0xc(%ebp)
   1103f:	75 da                	jne    1101b <c_puts+0x8>
   11041:	90                   	nop
   11042:	c9                   	leave  
   11043:	c3                   	ret    

00011044 <c_clearscroll>:
   11044:	55                   	push   %ebp
   11045:	89 e5                	mov    %esp,%ebp
   11047:	83 ec 10             	sub    $0x10,%esp
   1104a:	8b 15 78 c7 01 00    	mov    0x1c778,%edx
   11050:	a1 9c c7 01 00       	mov    0x1c79c,%eax
   11055:	29 c2                	sub    %eax,%edx
   11057:	89 d0                	mov    %edx,%eax
   11059:	83 c0 01             	add    $0x1,%eax
   1105c:	89 45 f0             	mov    %eax,-0x10(%ebp)
   1105f:	a1 8c c7 01 00       	mov    0x1c78c,%eax
   11064:	89 45 fc             	mov    %eax,-0x4(%ebp)
   11067:	eb 47                	jmp    110b0 <c_clearscroll+0x6c>
   11069:	8b 55 fc             	mov    -0x4(%ebp),%edx
   1106c:	89 d0                	mov    %edx,%eax
   1106e:	c1 e0 02             	shl    $0x2,%eax
   11071:	01 d0                	add    %edx,%eax
   11073:	c1 e0 04             	shl    $0x4,%eax
   11076:	89 c2                	mov    %eax,%edx
   11078:	a1 9c c7 01 00       	mov    0x1c79c,%eax
   1107d:	01 d0                	add    %edx,%eax
   1107f:	05 00 c0 05 00       	add    $0x5c000,%eax
   11084:	01 c0                	add    %eax,%eax
   11086:	89 45 f4             	mov    %eax,-0xc(%ebp)
   11089:	c7 45 f8 00 00 00 00 	movl   $0x0,-0x8(%ebp)
   11090:	eb 12                	jmp    110a4 <c_clearscroll+0x60>
   11092:	8b 45 f4             	mov    -0xc(%ebp),%eax
   11095:	8d 50 02             	lea    0x2(%eax),%edx
   11098:	89 55 f4             	mov    %edx,-0xc(%ebp)
   1109b:	66 c7 00 20 07       	movw   $0x720,(%eax)
   110a0:	83 45 f8 01          	addl   $0x1,-0x8(%ebp)
   110a4:	8b 45 f8             	mov    -0x8(%ebp),%eax
   110a7:	3b 45 f0             	cmp    -0x10(%ebp),%eax
   110aa:	72 e6                	jb     11092 <c_clearscroll+0x4e>
   110ac:	83 45 fc 01          	addl   $0x1,-0x4(%ebp)
   110b0:	a1 88 c7 01 00       	mov    0x1c788,%eax
   110b5:	39 45 fc             	cmp    %eax,-0x4(%ebp)
   110b8:	76 af                	jbe    11069 <c_clearscroll+0x25>
   110ba:	90                   	nop
   110bb:	c9                   	leave  
   110bc:	c3                   	ret    

000110bd <c_clearscreen>:
   110bd:	55                   	push   %ebp
   110be:	89 e5                	mov    %esp,%ebp
   110c0:	83 ec 10             	sub    $0x10,%esp
   110c3:	8b 15 84 c7 01 00    	mov    0x1c784,%edx
   110c9:	89 d0                	mov    %edx,%eax
   110cb:	c1 e0 02             	shl    $0x2,%eax
   110ce:	01 d0                	add    %edx,%eax
   110d0:	c1 e0 04             	shl    $0x4,%eax
   110d3:	89 c2                	mov    %eax,%edx
   110d5:	a1 90 c7 01 00       	mov    0x1c790,%eax
   110da:	01 d0                	add    %edx,%eax
   110dc:	05 00 c0 05 00       	add    $0x5c000,%eax
   110e1:	01 c0                	add    %eax,%eax
   110e3:	89 45 fc             	mov    %eax,-0x4(%ebp)
   110e6:	8b 15 98 c7 01 00    	mov    0x1c798,%edx
   110ec:	a1 84 c7 01 00       	mov    0x1c784,%eax
   110f1:	29 c2                	sub    %eax,%edx
   110f3:	89 d0                	mov    %edx,%eax
   110f5:	8d 48 01             	lea    0x1(%eax),%ecx
   110f8:	8b 15 7c c7 01 00    	mov    0x1c77c,%edx
   110fe:	a1 90 c7 01 00       	mov    0x1c790,%eax
   11103:	29 c2                	sub    %eax,%edx
   11105:	89 d0                	mov    %edx,%eax
   11107:	83 c0 01             	add    $0x1,%eax
   1110a:	0f af c1             	imul   %ecx,%eax
   1110d:	89 45 f8             	mov    %eax,-0x8(%ebp)
   11110:	eb 12                	jmp    11124 <c_clearscreen+0x67>
   11112:	8b 45 fc             	mov    -0x4(%ebp),%eax
   11115:	8d 50 02             	lea    0x2(%eax),%edx
   11118:	89 55 fc             	mov    %edx,-0x4(%ebp)
   1111b:	66 c7 00 20 07       	movw   $0x720,(%eax)
   11120:	83 6d f8 01          	subl   $0x1,-0x8(%ebp)
   11124:	83 7d f8 00          	cmpl   $0x0,-0x8(%ebp)
   11128:	75 e8                	jne    11112 <c_clearscreen+0x55>
   1112a:	90                   	nop
   1112b:	c9                   	leave  
   1112c:	c3                   	ret    

0001112d <c_scroll>:
   1112d:	55                   	push   %ebp
   1112e:	89 e5                	mov    %esp,%ebp
   11130:	83 ec 28             	sub    $0x28,%esp
   11133:	8b 15 78 c7 01 00    	mov    0x1c778,%edx
   11139:	a1 9c c7 01 00       	mov    0x1c79c,%eax
   1113e:	29 c2                	sub    %eax,%edx
   11140:	89 d0                	mov    %edx,%eax
   11142:	83 c0 01             	add    $0x1,%eax
   11145:	89 45 e4             	mov    %eax,-0x1c(%ebp)
   11148:	8b 15 88 c7 01 00    	mov    0x1c788,%edx
   1114e:	a1 8c c7 01 00       	mov    0x1c78c,%eax
   11153:	29 c2                	sub    %eax,%edx
   11155:	89 d0                	mov    %edx,%eax
   11157:	3b 45 08             	cmp    0x8(%ebp),%eax
   1115a:	73 23                	jae    1117f <c_scroll+0x52>
   1115c:	e8 e3 fe ff ff       	call   11044 <c_clearscroll>
   11161:	a1 9c c7 01 00       	mov    0x1c79c,%eax
   11166:	a3 80 c7 01 00       	mov    %eax,0x1c780
   1116b:	a1 8c c7 01 00       	mov    0x1c78c,%eax
   11170:	a3 94 c7 01 00       	mov    %eax,0x1c794
   11175:	e8 d9 fa ff ff       	call   10c53 <__c_setcursor>
   1117a:	e9 ea 00 00 00       	jmp    11269 <c_scroll+0x13c>
   1117f:	a1 8c c7 01 00       	mov    0x1c78c,%eax
   11184:	89 45 ec             	mov    %eax,-0x14(%ebp)
   11187:	eb 76                	jmp    111ff <c_scroll+0xd2>
   11189:	8b 55 ec             	mov    -0x14(%ebp),%edx
   1118c:	8b 45 08             	mov    0x8(%ebp),%eax
   1118f:	01 c2                	add    %eax,%edx
   11191:	89 d0                	mov    %edx,%eax
   11193:	c1 e0 02             	shl    $0x2,%eax
   11196:	01 d0                	add    %edx,%eax
   11198:	c1 e0 04             	shl    $0x4,%eax
   1119b:	89 c2                	mov    %eax,%edx
   1119d:	a1 9c c7 01 00       	mov    0x1c79c,%eax
   111a2:	01 d0                	add    %edx,%eax
   111a4:	05 00 c0 05 00       	add    $0x5c000,%eax
   111a9:	01 c0                	add    %eax,%eax
   111ab:	89 45 f4             	mov    %eax,-0xc(%ebp)
   111ae:	8b 55 ec             	mov    -0x14(%ebp),%edx
   111b1:	89 d0                	mov    %edx,%eax
   111b3:	c1 e0 02             	shl    $0x2,%eax
   111b6:	01 d0                	add    %edx,%eax
   111b8:	c1 e0 04             	shl    $0x4,%eax
   111bb:	89 c2                	mov    %eax,%edx
   111bd:	a1 9c c7 01 00       	mov    0x1c79c,%eax
   111c2:	01 d0                	add    %edx,%eax
   111c4:	05 00 c0 05 00       	add    $0x5c000,%eax
   111c9:	01 c0                	add    %eax,%eax
   111cb:	89 45 f0             	mov    %eax,-0x10(%ebp)
   111ce:	c7 45 e8 00 00 00 00 	movl   $0x0,-0x18(%ebp)
   111d5:	eb 1c                	jmp    111f3 <c_scroll+0xc6>
   111d7:	8b 45 f0             	mov    -0x10(%ebp),%eax
   111da:	8d 50 02             	lea    0x2(%eax),%edx
   111dd:	89 55 f0             	mov    %edx,-0x10(%ebp)
   111e0:	8b 55 f4             	mov    -0xc(%ebp),%edx
   111e3:	8d 4a 02             	lea    0x2(%edx),%ecx
   111e6:	89 4d f4             	mov    %ecx,-0xc(%ebp)
   111e9:	0f b7 12             	movzwl (%edx),%edx
   111ec:	66 89 10             	mov    %dx,(%eax)
   111ef:	83 45 e8 01          	addl   $0x1,-0x18(%ebp)
   111f3:	8b 45 e8             	mov    -0x18(%ebp),%eax
   111f6:	3b 45 e4             	cmp    -0x1c(%ebp),%eax
   111f9:	7c dc                	jl     111d7 <c_scroll+0xaa>
   111fb:	83 45 ec 01          	addl   $0x1,-0x14(%ebp)
   111ff:	a1 88 c7 01 00       	mov    0x1c788,%eax
   11204:	2b 45 08             	sub    0x8(%ebp),%eax
   11207:	89 c2                	mov    %eax,%edx
   11209:	8b 45 ec             	mov    -0x14(%ebp),%eax
   1120c:	39 c2                	cmp    %eax,%edx
   1120e:	0f 83 75 ff ff ff    	jae    11189 <c_scroll+0x5c>
   11214:	eb 47                	jmp    1125d <c_scroll+0x130>
   11216:	8b 55 ec             	mov    -0x14(%ebp),%edx
   11219:	89 d0                	mov    %edx,%eax
   1121b:	c1 e0 02             	shl    $0x2,%eax
   1121e:	01 d0                	add    %edx,%eax
   11220:	c1 e0 04             	shl    $0x4,%eax
   11223:	89 c2                	mov    %eax,%edx
   11225:	a1 9c c7 01 00       	mov    0x1c79c,%eax
   1122a:	01 d0                	add    %edx,%eax
   1122c:	05 00 c0 05 00       	add    $0x5c000,%eax
   11231:	01 c0                	add    %eax,%eax
   11233:	89 45 f0             	mov    %eax,-0x10(%ebp)
   11236:	c7 45 e8 00 00 00 00 	movl   $0x0,-0x18(%ebp)
   1123d:	eb 12                	jmp    11251 <c_scroll+0x124>
   1123f:	8b 45 f0             	mov    -0x10(%ebp),%eax
   11242:	8d 50 02             	lea    0x2(%eax),%edx
   11245:	89 55 f0             	mov    %edx,-0x10(%ebp)
   11248:	66 c7 00 20 07       	movw   $0x720,(%eax)
   1124d:	83 45 e8 01          	addl   $0x1,-0x18(%ebp)
   11251:	8b 45 e8             	mov    -0x18(%ebp),%eax
   11254:	3b 45 e4             	cmp    -0x1c(%ebp),%eax
   11257:	7c e6                	jl     1123f <c_scroll+0x112>
   11259:	83 45 ec 01          	addl   $0x1,-0x14(%ebp)
   1125d:	8b 55 ec             	mov    -0x14(%ebp),%edx
   11260:	a1 88 c7 01 00       	mov    0x1c788,%eax
   11265:	39 c2                	cmp    %eax,%edx
   11267:	76 ad                	jbe    11216 <c_scroll+0xe9>
   11269:	c9                   	leave  
   1126a:	c3                   	ret    

0001126b <cvtdec0>:
   1126b:	55                   	push   %ebp
   1126c:	89 e5                	mov    %esp,%ebp
   1126e:	53                   	push   %ebx
   1126f:	83 ec 14             	sub    $0x14,%esp
   11272:	8b 45 0c             	mov    0xc(%ebp),%eax
   11275:	ba cd cc cc cc       	mov    $0xcccccccd,%edx
   1127a:	f7 e2                	mul    %edx
   1127c:	89 d0                	mov    %edx,%eax
   1127e:	c1 e8 03             	shr    $0x3,%eax
   11281:	89 45 f4             	mov    %eax,-0xc(%ebp)
   11284:	83 7d f4 00          	cmpl   $0x0,-0xc(%ebp)
   11288:	79 0e                	jns    11298 <cvtdec0+0x2d>
   1128a:	c7 45 f4 cc cc cc 0c 	movl   $0xccccccc,-0xc(%ebp)
   11291:	c7 45 0c 08 00 00 00 	movl   $0x8,0xc(%ebp)
   11298:	83 7d f4 00          	cmpl   $0x0,-0xc(%ebp)
   1129c:	74 15                	je     112b3 <cvtdec0+0x48>
   1129e:	8b 45 f4             	mov    -0xc(%ebp),%eax
   112a1:	83 ec 08             	sub    $0x8,%esp
   112a4:	50                   	push   %eax
   112a5:	ff 75 08             	pushl  0x8(%ebp)
   112a8:	e8 be ff ff ff       	call   1126b <cvtdec0>
   112ad:	83 c4 10             	add    $0x10,%esp
   112b0:	89 45 08             	mov    %eax,0x8(%ebp)
   112b3:	8b 4d 08             	mov    0x8(%ebp),%ecx
   112b6:	8d 41 01             	lea    0x1(%ecx),%eax
   112b9:	89 45 08             	mov    %eax,0x8(%ebp)
   112bc:	8b 5d 0c             	mov    0xc(%ebp),%ebx
   112bf:	ba cd cc cc cc       	mov    $0xcccccccd,%edx
   112c4:	89 d8                	mov    %ebx,%eax
   112c6:	f7 e2                	mul    %edx
   112c8:	c1 ea 03             	shr    $0x3,%edx
   112cb:	89 d0                	mov    %edx,%eax
   112cd:	c1 e0 02             	shl    $0x2,%eax
   112d0:	01 d0                	add    %edx,%eax
   112d2:	01 c0                	add    %eax,%eax
   112d4:	29 c3                	sub    %eax,%ebx
   112d6:	89 da                	mov    %ebx,%edx
   112d8:	89 d0                	mov    %edx,%eax
   112da:	83 c0 30             	add    $0x30,%eax
   112dd:	88 01                	mov    %al,(%ecx)
   112df:	8b 45 08             	mov    0x8(%ebp),%eax
   112e2:	8b 5d fc             	mov    -0x4(%ebp),%ebx
   112e5:	c9                   	leave  
   112e6:	c3                   	ret    

000112e7 <cvtdec>:
   112e7:	55                   	push   %ebp
   112e8:	89 e5                	mov    %esp,%ebp
   112ea:	83 ec 18             	sub    $0x18,%esp
   112ed:	8b 45 08             	mov    0x8(%ebp),%eax
   112f0:	89 45 f4             	mov    %eax,-0xc(%ebp)
   112f3:	83 7d 0c 00          	cmpl   $0x0,0xc(%ebp)
   112f7:	79 0f                	jns    11308 <cvtdec+0x21>
   112f9:	8b 45 f4             	mov    -0xc(%ebp),%eax
   112fc:	8d 50 01             	lea    0x1(%eax),%edx
   112ff:	89 55 f4             	mov    %edx,-0xc(%ebp)
   11302:	c6 00 2d             	movb   $0x2d,(%eax)
   11305:	f7 5d 0c             	negl   0xc(%ebp)
   11308:	8b 45 0c             	mov    0xc(%ebp),%eax
   1130b:	83 ec 08             	sub    $0x8,%esp
   1130e:	50                   	push   %eax
   1130f:	ff 75 f4             	pushl  -0xc(%ebp)
   11312:	e8 54 ff ff ff       	call   1126b <cvtdec0>
   11317:	83 c4 10             	add    $0x10,%esp
   1131a:	89 45 f4             	mov    %eax,-0xc(%ebp)
   1131d:	8b 45 f4             	mov    -0xc(%ebp),%eax
   11320:	c6 00 00             	movb   $0x0,(%eax)
   11323:	8b 55 f4             	mov    -0xc(%ebp),%edx
   11326:	8b 45 08             	mov    0x8(%ebp),%eax
   11329:	29 c2                	sub    %eax,%edx
   1132b:	89 d0                	mov    %edx,%eax
   1132d:	c9                   	leave  
   1132e:	c3                   	ret    

0001132f <cvtudec>:
   1132f:	55                   	push   %ebp
   11330:	89 e5                	mov    %esp,%ebp
   11332:	83 ec 18             	sub    $0x18,%esp
   11335:	8b 45 08             	mov    0x8(%ebp),%eax
   11338:	89 45 f4             	mov    %eax,-0xc(%ebp)
   1133b:	83 ec 08             	sub    $0x8,%esp
   1133e:	ff 75 0c             	pushl  0xc(%ebp)
   11341:	ff 75 f4             	pushl  -0xc(%ebp)
   11344:	e8 22 ff ff ff       	call   1126b <cvtdec0>
   11349:	83 c4 10             	add    $0x10,%esp
   1134c:	89 45 f4             	mov    %eax,-0xc(%ebp)
   1134f:	8b 45 f4             	mov    -0xc(%ebp),%eax
   11352:	c6 00 00             	movb   $0x0,(%eax)
   11355:	8b 55 f4             	mov    -0xc(%ebp),%edx
   11358:	8b 45 08             	mov    0x8(%ebp),%eax
   1135b:	29 c2                	sub    %eax,%edx
   1135d:	89 d0                	mov    %edx,%eax
   1135f:	c9                   	leave  
   11360:	c3                   	ret    

00011361 <cvthex>:
   11361:	55                   	push   %ebp
   11362:	89 e5                	mov    %esp,%ebp
   11364:	83 ec 10             	sub    $0x10,%esp
   11367:	c7 45 f8 00 00 00 00 	movl   $0x0,-0x8(%ebp)
   1136e:	8b 45 08             	mov    0x8(%ebp),%eax
   11371:	89 45 f4             	mov    %eax,-0xc(%ebp)
   11374:	c7 45 fc 00 00 00 00 	movl   $0x0,-0x4(%ebp)
   1137b:	eb 4b                	jmp    113c8 <cvthex+0x67>
   1137d:	8b 45 0c             	mov    0xc(%ebp),%eax
   11380:	25 00 00 00 f0       	and    $0xf0000000,%eax
   11385:	89 45 f0             	mov    %eax,-0x10(%ebp)
   11388:	83 7d fc 07          	cmpl   $0x7,-0x4(%ebp)
   1138c:	74 0c                	je     1139a <cvthex+0x39>
   1138e:	83 7d f0 00          	cmpl   $0x0,-0x10(%ebp)
   11392:	75 06                	jne    1139a <cvthex+0x39>
   11394:	83 7d f8 00          	cmpl   $0x0,-0x8(%ebp)
   11398:	74 26                	je     113c0 <cvthex+0x5f>
   1139a:	c7 45 f8 01 00 00 00 	movl   $0x1,-0x8(%ebp)
   113a1:	c1 7d f0 1c          	sarl   $0x1c,-0x10(%ebp)
   113a5:	83 65 f0 0f          	andl   $0xf,-0x10(%ebp)
   113a9:	8b 45 f4             	mov    -0xc(%ebp),%eax
   113ac:	8d 50 01             	lea    0x1(%eax),%edx
   113af:	89 55 f4             	mov    %edx,-0xc(%ebp)
   113b2:	8b 55 f0             	mov    -0x10(%ebp),%edx
   113b5:	81 c2 60 b4 01 00    	add    $0x1b460,%edx
   113bb:	0f b6 12             	movzbl (%edx),%edx
   113be:	88 10                	mov    %dl,(%eax)
   113c0:	c1 65 0c 04          	shll   $0x4,0xc(%ebp)
   113c4:	83 45 fc 01          	addl   $0x1,-0x4(%ebp)
   113c8:	83 7d fc 07          	cmpl   $0x7,-0x4(%ebp)
   113cc:	7e af                	jle    1137d <cvthex+0x1c>
   113ce:	8b 45 f4             	mov    -0xc(%ebp),%eax
   113d1:	c6 00 00             	movb   $0x0,(%eax)
   113d4:	8b 55 f4             	mov    -0xc(%ebp),%edx
   113d7:	8b 45 08             	mov    0x8(%ebp),%eax
   113da:	29 c2                	sub    %eax,%edx
   113dc:	89 d0                	mov    %edx,%eax
   113de:	c9                   	leave  
   113df:	c3                   	ret    

000113e0 <cvtoct>:
   113e0:	55                   	push   %ebp
   113e1:	89 e5                	mov    %esp,%ebp
   113e3:	83 ec 10             	sub    $0x10,%esp
   113e6:	c7 45 f8 00 00 00 00 	movl   $0x0,-0x8(%ebp)
   113ed:	8b 45 08             	mov    0x8(%ebp),%eax
   113f0:	89 45 f4             	mov    %eax,-0xc(%ebp)
   113f3:	8b 45 0c             	mov    0xc(%ebp),%eax
   113f6:	25 00 00 00 c0       	and    $0xc0000000,%eax
   113fb:	89 45 f0             	mov    %eax,-0x10(%ebp)
   113fe:	c1 7d f0 1e          	sarl   $0x1e,-0x10(%ebp)
   11402:	c7 45 fc 00 00 00 00 	movl   $0x0,-0x4(%ebp)
   11409:	eb 4b                	jmp    11456 <cvtoct+0x76>
   1140b:	83 7d fc 0a          	cmpl   $0xa,-0x4(%ebp)
   1140f:	74 0c                	je     1141d <cvtoct+0x3d>
   11411:	83 7d f0 00          	cmpl   $0x0,-0x10(%ebp)
   11415:	75 06                	jne    1141d <cvtoct+0x3d>
   11417:	83 7d f8 00          	cmpl   $0x0,-0x8(%ebp)
   1141b:	74 22                	je     1143f <cvtoct+0x5f>
   1141d:	c7 45 f8 01 00 00 00 	movl   $0x1,-0x8(%ebp)
   11424:	83 65 f0 07          	andl   $0x7,-0x10(%ebp)
   11428:	8b 45 f4             	mov    -0xc(%ebp),%eax
   1142b:	8d 50 01             	lea    0x1(%eax),%edx
   1142e:	89 55 f4             	mov    %edx,-0xc(%ebp)
   11431:	8b 55 f0             	mov    -0x10(%ebp),%edx
   11434:	81 c2 60 b4 01 00    	add    $0x1b460,%edx
   1143a:	0f b6 12             	movzbl (%edx),%edx
   1143d:	88 10                	mov    %dl,(%eax)
   1143f:	c1 65 0c 03          	shll   $0x3,0xc(%ebp)
   11443:	8b 45 0c             	mov    0xc(%ebp),%eax
   11446:	25 00 00 00 e0       	and    $0xe0000000,%eax
   1144b:	89 45 f0             	mov    %eax,-0x10(%ebp)
   1144e:	c1 7d f0 1d          	sarl   $0x1d,-0x10(%ebp)
   11452:	83 45 fc 01          	addl   $0x1,-0x4(%ebp)
   11456:	83 7d fc 0a          	cmpl   $0xa,-0x4(%ebp)
   1145a:	7e af                	jle    1140b <cvtoct+0x2b>
   1145c:	8b 45 f4             	mov    -0xc(%ebp),%eax
   1145f:	c6 00 00             	movb   $0x0,(%eax)
   11462:	8b 55 f4             	mov    -0xc(%ebp),%edx
   11465:	8b 45 08             	mov    0x8(%ebp),%eax
   11468:	29 c2                	sub    %eax,%edx
   1146a:	89 d0                	mov    %edx,%eax
   1146c:	c9                   	leave  
   1146d:	c3                   	ret    

0001146e <pad>:
   1146e:	55                   	push   %ebp
   1146f:	89 e5                	mov    %esp,%ebp
   11471:	83 ec 08             	sub    $0x8,%esp
   11474:	eb 39                	jmp    114af <pad+0x41>
   11476:	83 7d 08 ff          	cmpl   $0xffffffff,0x8(%ebp)
   1147a:	75 06                	jne    11482 <pad+0x14>
   1147c:	83 7d 0c ff          	cmpl   $0xffffffff,0xc(%ebp)
   11480:	74 1a                	je     1149c <pad+0x2e>
   11482:	8b 4d 14             	mov    0x14(%ebp),%ecx
   11485:	8b 55 0c             	mov    0xc(%ebp),%edx
   11488:	8b 45 08             	mov    0x8(%ebp),%eax
   1148b:	51                   	push   %ecx
   1148c:	52                   	push   %edx
   1148d:	50                   	push   %eax
   1148e:	e8 c8 f9 ff ff       	call   10e5b <c_putchar_at>
   11493:	83 c4 0c             	add    $0xc,%esp
   11496:	83 45 08 01          	addl   $0x1,0x8(%ebp)
   1149a:	eb 0f                	jmp    114ab <pad+0x3d>
   1149c:	8b 45 14             	mov    0x14(%ebp),%eax
   1149f:	83 ec 0c             	sub    $0xc,%esp
   114a2:	50                   	push   %eax
   114a3:	e8 2b fa ff ff       	call   10ed3 <c_putchar>
   114a8:	83 c4 10             	add    $0x10,%esp
   114ab:	83 6d 10 01          	subl   $0x1,0x10(%ebp)
   114af:	83 7d 10 00          	cmpl   $0x0,0x10(%ebp)
   114b3:	7f c1                	jg     11476 <pad+0x8>
   114b5:	8b 45 08             	mov    0x8(%ebp),%eax
   114b8:	c9                   	leave  
   114b9:	c3                   	ret    

000114ba <padstr>:
   114ba:	55                   	push   %ebp
   114bb:	89 e5                	mov    %esp,%ebp
   114bd:	83 ec 18             	sub    $0x18,%esp
   114c0:	83 7d 14 00          	cmpl   $0x0,0x14(%ebp)
   114c4:	79 0e                	jns    114d4 <padstr+0x1a>
   114c6:	ff 75 10             	pushl  0x10(%ebp)
   114c9:	e8 16 f8 ff ff       	call   10ce4 <__c_strlen>
   114ce:	83 c4 04             	add    $0x4,%esp
   114d1:	89 45 14             	mov    %eax,0x14(%ebp)
   114d4:	8b 45 18             	mov    0x18(%ebp),%eax
   114d7:	2b 45 14             	sub    0x14(%ebp),%eax
   114da:	89 45 f4             	mov    %eax,-0xc(%ebp)
   114dd:	83 7d f4 00          	cmpl   $0x0,-0xc(%ebp)
   114e1:	7e 1d                	jle    11500 <padstr+0x46>
   114e3:	83 7d 1c 00          	cmpl   $0x0,0x1c(%ebp)
   114e7:	75 17                	jne    11500 <padstr+0x46>
   114e9:	ff 75 20             	pushl  0x20(%ebp)
   114ec:	ff 75 f4             	pushl  -0xc(%ebp)
   114ef:	ff 75 0c             	pushl  0xc(%ebp)
   114f2:	ff 75 08             	pushl  0x8(%ebp)
   114f5:	e8 74 ff ff ff       	call   1146e <pad>
   114fa:	83 c4 10             	add    $0x10,%esp
   114fd:	89 45 08             	mov    %eax,0x8(%ebp)
   11500:	83 7d 08 ff          	cmpl   $0xffffffff,0x8(%ebp)
   11504:	75 06                	jne    1150c <padstr+0x52>
   11506:	83 7d 0c ff          	cmpl   $0xffffffff,0xc(%ebp)
   1150a:	74 1e                	je     1152a <padstr+0x70>
   1150c:	8b 55 0c             	mov    0xc(%ebp),%edx
   1150f:	8b 45 08             	mov    0x8(%ebp),%eax
   11512:	83 ec 04             	sub    $0x4,%esp
   11515:	ff 75 10             	pushl  0x10(%ebp)
   11518:	52                   	push   %edx
   11519:	50                   	push   %eax
   1151a:	e8 b2 fa ff ff       	call   10fd1 <c_puts_at>
   1151f:	83 c4 10             	add    $0x10,%esp
   11522:	8b 45 14             	mov    0x14(%ebp),%eax
   11525:	01 45 08             	add    %eax,0x8(%ebp)
   11528:	eb 0e                	jmp    11538 <padstr+0x7e>
   1152a:	83 ec 0c             	sub    $0xc,%esp
   1152d:	ff 75 10             	pushl  0x10(%ebp)
   11530:	e8 de fa ff ff       	call   11013 <c_puts>
   11535:	83 c4 10             	add    $0x10,%esp
   11538:	83 7d f4 00          	cmpl   $0x0,-0xc(%ebp)
   1153c:	7e 1d                	jle    1155b <padstr+0xa1>
   1153e:	83 7d 1c 00          	cmpl   $0x0,0x1c(%ebp)
   11542:	74 17                	je     1155b <padstr+0xa1>
   11544:	ff 75 20             	pushl  0x20(%ebp)
   11547:	ff 75 f4             	pushl  -0xc(%ebp)
   1154a:	ff 75 0c             	pushl  0xc(%ebp)
   1154d:	ff 75 08             	pushl  0x8(%ebp)
   11550:	e8 19 ff ff ff       	call   1146e <pad>
   11555:	83 c4 10             	add    $0x10,%esp
   11558:	89 45 08             	mov    %eax,0x8(%ebp)
   1155b:	8b 45 08             	mov    0x8(%ebp),%eax
   1155e:	c9                   	leave  
   1155f:	c3                   	ret    

00011560 <__c_do_printf>:
   11560:	55                   	push   %ebp
   11561:	89 e5                	mov    %esp,%ebp
   11563:	83 ec 38             	sub    $0x38,%esp
   11566:	8b 45 10             	mov    0x10(%ebp),%eax
   11569:	8b 00                	mov    (%eax),%eax
   1156b:	89 45 f4             	mov    %eax,-0xc(%ebp)
   1156e:	8b 45 10             	mov    0x10(%ebp),%eax
   11571:	83 c0 04             	add    $0x4,%eax
   11574:	89 45 f0             	mov    %eax,-0x10(%ebp)
   11577:	e9 9d 02 00 00       	jmp    11819 <__c_do_printf+0x2b9>
   1157c:	80 7d ef 25          	cmpb   $0x25,-0x11(%ebp)
   11580:	0f 85 3b 02 00 00    	jne    117c1 <__c_do_printf+0x261>
   11586:	c7 45 e8 00 00 00 00 	movl   $0x0,-0x18(%ebp)
   1158d:	c7 45 e0 20 00 00 00 	movl   $0x20,-0x20(%ebp)
   11594:	c7 45 e4 00 00 00 00 	movl   $0x0,-0x1c(%ebp)
   1159b:	8b 45 f4             	mov    -0xc(%ebp),%eax
   1159e:	8d 50 01             	lea    0x1(%eax),%edx
   115a1:	89 55 f4             	mov    %edx,-0xc(%ebp)
   115a4:	0f b6 00             	movzbl (%eax),%eax
   115a7:	88 45 ef             	mov    %al,-0x11(%ebp)
   115aa:	80 7d ef 2d          	cmpb   $0x2d,-0x11(%ebp)
   115ae:	75 16                	jne    115c6 <__c_do_printf+0x66>
   115b0:	c7 45 e8 01 00 00 00 	movl   $0x1,-0x18(%ebp)
   115b7:	8b 45 f4             	mov    -0xc(%ebp),%eax
   115ba:	8d 50 01             	lea    0x1(%eax),%edx
   115bd:	89 55 f4             	mov    %edx,-0xc(%ebp)
   115c0:	0f b6 00             	movzbl (%eax),%eax
   115c3:	88 45 ef             	mov    %al,-0x11(%ebp)
   115c6:	80 7d ef 30          	cmpb   $0x30,-0x11(%ebp)
   115ca:	75 40                	jne    1160c <__c_do_printf+0xac>
   115cc:	c7 45 e0 30 00 00 00 	movl   $0x30,-0x20(%ebp)
   115d3:	8b 45 f4             	mov    -0xc(%ebp),%eax
   115d6:	8d 50 01             	lea    0x1(%eax),%edx
   115d9:	89 55 f4             	mov    %edx,-0xc(%ebp)
   115dc:	0f b6 00             	movzbl (%eax),%eax
   115df:	88 45 ef             	mov    %al,-0x11(%ebp)
   115e2:	eb 28                	jmp    1160c <__c_do_printf+0xac>
   115e4:	8b 55 e4             	mov    -0x1c(%ebp),%edx
   115e7:	89 d0                	mov    %edx,%eax
   115e9:	c1 e0 02             	shl    $0x2,%eax
   115ec:	01 d0                	add    %edx,%eax
   115ee:	01 c0                	add    %eax,%eax
   115f0:	89 45 e4             	mov    %eax,-0x1c(%ebp)
   115f3:	0f be 45 ef          	movsbl -0x11(%ebp),%eax
   115f7:	83 e8 30             	sub    $0x30,%eax
   115fa:	01 45 e4             	add    %eax,-0x1c(%ebp)
   115fd:	8b 45 f4             	mov    -0xc(%ebp),%eax
   11600:	8d 50 01             	lea    0x1(%eax),%edx
   11603:	89 55 f4             	mov    %edx,-0xc(%ebp)
   11606:	0f b6 00             	movzbl (%eax),%eax
   11609:	88 45 ef             	mov    %al,-0x11(%ebp)
   1160c:	80 7d ef 2f          	cmpb   $0x2f,-0x11(%ebp)
   11610:	7e 06                	jle    11618 <__c_do_printf+0xb8>
   11612:	80 7d ef 39          	cmpb   $0x39,-0x11(%ebp)
   11616:	7e cc                	jle    115e4 <__c_do_printf+0x84>
   11618:	0f be 45 ef          	movsbl -0x11(%ebp),%eax
   1161c:	83 e8 63             	sub    $0x63,%eax
   1161f:	83 f8 15             	cmp    $0x15,%eax
   11622:	0f 87 f1 01 00 00    	ja     11819 <__c_do_printf+0x2b9>
   11628:	8b 04 85 08 7a 01 00 	mov    0x17a08(,%eax,4),%eax
   1162f:	ff e0                	jmp    *%eax
   11631:	8b 45 f0             	mov    -0x10(%ebp),%eax
   11634:	8d 50 04             	lea    0x4(%eax),%edx
   11637:	89 55 f0             	mov    %edx,-0x10(%ebp)
   1163a:	8b 00                	mov    (%eax),%eax
   1163c:	88 45 ef             	mov    %al,-0x11(%ebp)
   1163f:	0f b6 45 ef          	movzbl -0x11(%ebp),%eax
   11643:	88 45 cc             	mov    %al,-0x34(%ebp)
   11646:	c6 45 cd 00          	movb   $0x0,-0x33(%ebp)
   1164a:	83 ec 04             	sub    $0x4,%esp
   1164d:	ff 75 e0             	pushl  -0x20(%ebp)
   11650:	ff 75 e8             	pushl  -0x18(%ebp)
   11653:	ff 75 e4             	pushl  -0x1c(%ebp)
   11656:	6a 01                	push   $0x1
   11658:	8d 45 cc             	lea    -0x34(%ebp),%eax
   1165b:	50                   	push   %eax
   1165c:	ff 75 0c             	pushl  0xc(%ebp)
   1165f:	ff 75 08             	pushl  0x8(%ebp)
   11662:	e8 53 fe ff ff       	call   114ba <padstr>
   11667:	83 c4 20             	add    $0x20,%esp
   1166a:	89 45 08             	mov    %eax,0x8(%ebp)
   1166d:	e9 a7 01 00 00       	jmp    11819 <__c_do_printf+0x2b9>
   11672:	8b 45 f0             	mov    -0x10(%ebp),%eax
   11675:	8d 50 04             	lea    0x4(%eax),%edx
   11678:	89 55 f0             	mov    %edx,-0x10(%ebp)
   1167b:	8b 00                	mov    (%eax),%eax
   1167d:	83 ec 08             	sub    $0x8,%esp
   11680:	50                   	push   %eax
   11681:	8d 45 cc             	lea    -0x34(%ebp),%eax
   11684:	50                   	push   %eax
   11685:	e8 5d fc ff ff       	call   112e7 <cvtdec>
   1168a:	83 c4 10             	add    $0x10,%esp
   1168d:	89 45 dc             	mov    %eax,-0x24(%ebp)
   11690:	83 ec 04             	sub    $0x4,%esp
   11693:	ff 75 e0             	pushl  -0x20(%ebp)
   11696:	ff 75 e8             	pushl  -0x18(%ebp)
   11699:	ff 75 e4             	pushl  -0x1c(%ebp)
   1169c:	ff 75 dc             	pushl  -0x24(%ebp)
   1169f:	8d 45 cc             	lea    -0x34(%ebp),%eax
   116a2:	50                   	push   %eax
   116a3:	ff 75 0c             	pushl  0xc(%ebp)
   116a6:	ff 75 08             	pushl  0x8(%ebp)
   116a9:	e8 0c fe ff ff       	call   114ba <padstr>
   116ae:	83 c4 20             	add    $0x20,%esp
   116b1:	89 45 08             	mov    %eax,0x8(%ebp)
   116b4:	e9 60 01 00 00       	jmp    11819 <__c_do_printf+0x2b9>
   116b9:	8b 45 f0             	mov    -0x10(%ebp),%eax
   116bc:	8d 50 04             	lea    0x4(%eax),%edx
   116bf:	89 55 f0             	mov    %edx,-0x10(%ebp)
   116c2:	8b 00                	mov    (%eax),%eax
   116c4:	83 ec 08             	sub    $0x8,%esp
   116c7:	50                   	push   %eax
   116c8:	8d 45 cc             	lea    -0x34(%ebp),%eax
   116cb:	50                   	push   %eax
   116cc:	e8 5e fc ff ff       	call   1132f <cvtudec>
   116d1:	83 c4 10             	add    $0x10,%esp
   116d4:	89 45 dc             	mov    %eax,-0x24(%ebp)
   116d7:	83 ec 04             	sub    $0x4,%esp
   116da:	ff 75 e0             	pushl  -0x20(%ebp)
   116dd:	ff 75 e8             	pushl  -0x18(%ebp)
   116e0:	ff 75 e4             	pushl  -0x1c(%ebp)
   116e3:	ff 75 dc             	pushl  -0x24(%ebp)
   116e6:	8d 45 cc             	lea    -0x34(%ebp),%eax
   116e9:	50                   	push   %eax
   116ea:	ff 75 0c             	pushl  0xc(%ebp)
   116ed:	ff 75 08             	pushl  0x8(%ebp)
   116f0:	e8 c5 fd ff ff       	call   114ba <padstr>
   116f5:	83 c4 20             	add    $0x20,%esp
   116f8:	89 45 08             	mov    %eax,0x8(%ebp)
   116fb:	e9 19 01 00 00       	jmp    11819 <__c_do_printf+0x2b9>
   11700:	8b 45 f0             	mov    -0x10(%ebp),%eax
   11703:	8d 50 04             	lea    0x4(%eax),%edx
   11706:	89 55 f0             	mov    %edx,-0x10(%ebp)
   11709:	8b 00                	mov    (%eax),%eax
   1170b:	89 45 d8             	mov    %eax,-0x28(%ebp)
   1170e:	83 ec 04             	sub    $0x4,%esp
   11711:	ff 75 e0             	pushl  -0x20(%ebp)
   11714:	ff 75 e8             	pushl  -0x18(%ebp)
   11717:	ff 75 e4             	pushl  -0x1c(%ebp)
   1171a:	6a ff                	push   $0xffffffff
   1171c:	ff 75 d8             	pushl  -0x28(%ebp)
   1171f:	ff 75 0c             	pushl  0xc(%ebp)
   11722:	ff 75 08             	pushl  0x8(%ebp)
   11725:	e8 90 fd ff ff       	call   114ba <padstr>
   1172a:	83 c4 20             	add    $0x20,%esp
   1172d:	89 45 08             	mov    %eax,0x8(%ebp)
   11730:	e9 e4 00 00 00       	jmp    11819 <__c_do_printf+0x2b9>
   11735:	8b 45 f0             	mov    -0x10(%ebp),%eax
   11738:	8d 50 04             	lea    0x4(%eax),%edx
   1173b:	89 55 f0             	mov    %edx,-0x10(%ebp)
   1173e:	8b 00                	mov    (%eax),%eax
   11740:	83 ec 08             	sub    $0x8,%esp
   11743:	50                   	push   %eax
   11744:	8d 45 cc             	lea    -0x34(%ebp),%eax
   11747:	50                   	push   %eax
   11748:	e8 14 fc ff ff       	call   11361 <cvthex>
   1174d:	83 c4 10             	add    $0x10,%esp
   11750:	89 45 dc             	mov    %eax,-0x24(%ebp)
   11753:	83 ec 04             	sub    $0x4,%esp
   11756:	ff 75 e0             	pushl  -0x20(%ebp)
   11759:	ff 75 e8             	pushl  -0x18(%ebp)
   1175c:	ff 75 e4             	pushl  -0x1c(%ebp)
   1175f:	ff 75 dc             	pushl  -0x24(%ebp)
   11762:	8d 45 cc             	lea    -0x34(%ebp),%eax
   11765:	50                   	push   %eax
   11766:	ff 75 0c             	pushl  0xc(%ebp)
   11769:	ff 75 08             	pushl  0x8(%ebp)
   1176c:	e8 49 fd ff ff       	call   114ba <padstr>
   11771:	83 c4 20             	add    $0x20,%esp
   11774:	89 45 08             	mov    %eax,0x8(%ebp)
   11777:	e9 9d 00 00 00       	jmp    11819 <__c_do_printf+0x2b9>
   1177c:	8b 45 f0             	mov    -0x10(%ebp),%eax
   1177f:	8d 50 04             	lea    0x4(%eax),%edx
   11782:	89 55 f0             	mov    %edx,-0x10(%ebp)
   11785:	8b 00                	mov    (%eax),%eax
   11787:	83 ec 08             	sub    $0x8,%esp
   1178a:	50                   	push   %eax
   1178b:	8d 45 cc             	lea    -0x34(%ebp),%eax
   1178e:	50                   	push   %eax
   1178f:	e8 4c fc ff ff       	call   113e0 <cvtoct>
   11794:	83 c4 10             	add    $0x10,%esp
   11797:	89 45 dc             	mov    %eax,-0x24(%ebp)
   1179a:	83 ec 04             	sub    $0x4,%esp
   1179d:	ff 75 e0             	pushl  -0x20(%ebp)
   117a0:	ff 75 e8             	pushl  -0x18(%ebp)
   117a3:	ff 75 e4             	pushl  -0x1c(%ebp)
   117a6:	ff 75 dc             	pushl  -0x24(%ebp)
   117a9:	8d 45 cc             	lea    -0x34(%ebp),%eax
   117ac:	50                   	push   %eax
   117ad:	ff 75 0c             	pushl  0xc(%ebp)
   117b0:	ff 75 08             	pushl  0x8(%ebp)
   117b3:	e8 02 fd ff ff       	call   114ba <padstr>
   117b8:	83 c4 20             	add    $0x20,%esp
   117bb:	89 45 08             	mov    %eax,0x8(%ebp)
   117be:	90                   	nop
   117bf:	eb 58                	jmp    11819 <__c_do_printf+0x2b9>
   117c1:	83 7d 08 ff          	cmpl   $0xffffffff,0x8(%ebp)
   117c5:	75 06                	jne    117cd <__c_do_printf+0x26d>
   117c7:	83 7d 0c ff          	cmpl   $0xffffffff,0xc(%ebp)
   117cb:	74 3c                	je     11809 <__c_do_printf+0x2a9>
   117cd:	0f be 4d ef          	movsbl -0x11(%ebp),%ecx
   117d1:	8b 55 0c             	mov    0xc(%ebp),%edx
   117d4:	8b 45 08             	mov    0x8(%ebp),%eax
   117d7:	83 ec 04             	sub    $0x4,%esp
   117da:	51                   	push   %ecx
   117db:	52                   	push   %edx
   117dc:	50                   	push   %eax
   117dd:	e8 79 f6 ff ff       	call   10e5b <c_putchar_at>
   117e2:	83 c4 10             	add    $0x10,%esp
   117e5:	0f be 45 ef          	movsbl -0x11(%ebp),%eax
   117e9:	83 f8 0a             	cmp    $0xa,%eax
   117ec:	74 07                	je     117f5 <__c_do_printf+0x295>
   117ee:	83 f8 0d             	cmp    $0xd,%eax
   117f1:	74 06                	je     117f9 <__c_do_printf+0x299>
   117f3:	eb 0e                	jmp    11803 <__c_do_printf+0x2a3>
   117f5:	83 45 0c 01          	addl   $0x1,0xc(%ebp)
   117f9:	a1 9c c7 01 00       	mov    0x1c79c,%eax
   117fe:	89 45 08             	mov    %eax,0x8(%ebp)
   11801:	eb 04                	jmp    11807 <__c_do_printf+0x2a7>
   11803:	83 45 08 01          	addl   $0x1,0x8(%ebp)
   11807:	eb 10                	jmp    11819 <__c_do_printf+0x2b9>
   11809:	0f be 45 ef          	movsbl -0x11(%ebp),%eax
   1180d:	83 ec 0c             	sub    $0xc,%esp
   11810:	50                   	push   %eax
   11811:	e8 bd f6 ff ff       	call   10ed3 <c_putchar>
   11816:	83 c4 10             	add    $0x10,%esp
   11819:	8b 45 f4             	mov    -0xc(%ebp),%eax
   1181c:	8d 50 01             	lea    0x1(%eax),%edx
   1181f:	89 55 f4             	mov    %edx,-0xc(%ebp)
   11822:	0f b6 00             	movzbl (%eax),%eax
   11825:	88 45 ef             	mov    %al,-0x11(%ebp)
   11828:	80 7d ef 00          	cmpb   $0x0,-0x11(%ebp)
   1182c:	0f 85 4a fd ff ff    	jne    1157c <__c_do_printf+0x1c>
   11832:	90                   	nop
   11833:	c9                   	leave  
   11834:	c3                   	ret    

00011835 <c_printf_at>:
   11835:	55                   	push   %ebp
   11836:	89 e5                	mov    %esp,%ebp
   11838:	83 ec 08             	sub    $0x8,%esp
   1183b:	8b 55 0c             	mov    0xc(%ebp),%edx
   1183e:	8b 45 08             	mov    0x8(%ebp),%eax
   11841:	83 ec 04             	sub    $0x4,%esp
   11844:	8d 4d 10             	lea    0x10(%ebp),%ecx
   11847:	51                   	push   %ecx
   11848:	52                   	push   %edx
   11849:	50                   	push   %eax
   1184a:	e8 11 fd ff ff       	call   11560 <__c_do_printf>
   1184f:	83 c4 10             	add    $0x10,%esp
   11852:	90                   	nop
   11853:	c9                   	leave  
   11854:	c3                   	ret    

00011855 <c_printf>:
   11855:	55                   	push   %ebp
   11856:	89 e5                	mov    %esp,%ebp
   11858:	83 ec 08             	sub    $0x8,%esp
   1185b:	83 ec 04             	sub    $0x4,%esp
   1185e:	8d 45 08             	lea    0x8(%ebp),%eax
   11861:	50                   	push   %eax
   11862:	6a ff                	push   $0xffffffff
   11864:	6a ff                	push   $0xffffffff
   11866:	e8 f5 fc ff ff       	call   11560 <__c_do_printf>
   1186b:	83 c4 10             	add    $0x10,%esp
   1186e:	90                   	nop
   1186f:	c9                   	leave  
   11870:	c3                   	ret    

00011871 <__c_increment>:
   11871:	55                   	push   %ebp
   11872:	89 e5                	mov    %esp,%ebp
   11874:	83 45 08 01          	addl   $0x1,0x8(%ebp)
   11878:	b8 a8 b6 01 00       	mov    $0x1b6a8,%eax
   1187d:	39 45 08             	cmp    %eax,0x8(%ebp)
   11880:	72 07                	jb     11889 <__c_increment+0x18>
   11882:	c7 45 08 e0 b5 01 00 	movl   $0x1b5e0,0x8(%ebp)
   11889:	8b 45 08             	mov    0x8(%ebp),%eax
   1188c:	5d                   	pop    %ebp
   1188d:	c3                   	ret    

0001188e <__c_input_scan_code>:
   1188e:	55                   	push   %ebp
   1188f:	89 e5                	mov    %esp,%ebp
   11891:	83 ec 10             	sub    $0x10,%esp
   11894:	81 65 08 ff 00 00 00 	andl   $0xff,0x8(%ebp)
   1189b:	8b 45 08             	mov    0x8(%ebp),%eax
   1189e:	83 f8 36             	cmp    $0x36,%eax
   118a1:	74 28                	je     118cb <__c_input_scan_code+0x3d>
   118a3:	83 f8 36             	cmp    $0x36,%eax
   118a6:	7f 0c                	jg     118b4 <__c_input_scan_code+0x26>
   118a8:	83 f8 1d             	cmp    $0x1d,%eax
   118ab:	74 3c                	je     118e9 <__c_input_scan_code+0x5b>
   118ad:	83 f8 2a             	cmp    $0x2a,%eax
   118b0:	74 19                	je     118cb <__c_input_scan_code+0x3d>
   118b2:	eb 4d                	jmp    11901 <__c_input_scan_code+0x73>
   118b4:	3d aa 00 00 00       	cmp    $0xaa,%eax
   118b9:	74 1f                	je     118da <__c_input_scan_code+0x4c>
   118bb:	3d b6 00 00 00       	cmp    $0xb6,%eax
   118c0:	74 18                	je     118da <__c_input_scan_code+0x4c>
   118c2:	3d 9d 00 00 00       	cmp    $0x9d,%eax
   118c7:	74 2c                	je     118f5 <__c_input_scan_code+0x67>
   118c9:	eb 36                	jmp    11901 <__c_input_scan_code+0x73>
   118cb:	c7 05 a8 b6 01 00 01 	movl   $0x1,0x1b6a8
   118d2:	00 00 00 
   118d5:	e9 8f 00 00 00       	jmp    11969 <__c_input_scan_code+0xdb>
   118da:	c7 05 a8 b6 01 00 00 	movl   $0x0,0x1b6a8
   118e1:	00 00 00 
   118e4:	e9 80 00 00 00       	jmp    11969 <__c_input_scan_code+0xdb>
   118e9:	c7 05 88 b5 01 00 1f 	movl   $0x1f,0x1b588
   118f0:	00 00 00 
   118f3:	eb 74                	jmp    11969 <__c_input_scan_code+0xdb>
   118f5:	c7 05 88 b5 01 00 ff 	movl   $0xff,0x1b588
   118fc:	00 00 00 
   118ff:	eb 68                	jmp    11969 <__c_input_scan_code+0xdb>
   11901:	8b 45 08             	mov    0x8(%ebp),%eax
   11904:	25 80 00 00 00       	and    $0x80,%eax
   11909:	85 c0                	test   %eax,%eax
   1190b:	75 5c                	jne    11969 <__c_input_scan_code+0xdb>
   1190d:	a1 a8 b6 01 00       	mov    0x1b6a8,%eax
   11912:	c1 e0 07             	shl    $0x7,%eax
   11915:	89 c2                	mov    %eax,%edx
   11917:	8b 45 08             	mov    0x8(%ebp),%eax
   1191a:	01 d0                	add    %edx,%eax
   1191c:	05 80 b4 01 00       	add    $0x1b480,%eax
   11921:	0f b6 00             	movzbl (%eax),%eax
   11924:	0f b6 c0             	movzbl %al,%eax
   11927:	89 45 08             	mov    %eax,0x8(%ebp)
   1192a:	83 7d 08 ff          	cmpl   $0xffffffff,0x8(%ebp)
   1192e:	74 39                	je     11969 <__c_input_scan_code+0xdb>
   11930:	a1 84 b5 01 00       	mov    0x1b584,%eax
   11935:	50                   	push   %eax
   11936:	e8 36 ff ff ff       	call   11871 <__c_increment>
   1193b:	83 c4 04             	add    $0x4,%esp
   1193e:	89 45 fc             	mov    %eax,-0x4(%ebp)
   11941:	a1 80 b5 01 00       	mov    0x1b580,%eax
   11946:	39 45 fc             	cmp    %eax,-0x4(%ebp)
   11949:	74 1e                	je     11969 <__c_input_scan_code+0xdb>
   1194b:	a1 84 b5 01 00       	mov    0x1b584,%eax
   11950:	8b 55 08             	mov    0x8(%ebp),%edx
   11953:	89 d1                	mov    %edx,%ecx
   11955:	8b 15 88 b5 01 00    	mov    0x1b588,%edx
   1195b:	21 ca                	and    %ecx,%edx
   1195d:	88 10                	mov    %dl,(%eax)
   1195f:	8b 45 fc             	mov    -0x4(%ebp),%eax
   11962:	a3 84 b5 01 00       	mov    %eax,0x1b584
   11967:	eb 00                	jmp    11969 <__c_input_scan_code+0xdb>
   11969:	90                   	nop
   1196a:	c9                   	leave  
   1196b:	c3                   	ret    

0001196c <__c_keyboard_isr>:
   1196c:	55                   	push   %ebp
   1196d:	89 e5                	mov    %esp,%ebp
   1196f:	83 ec 08             	sub    $0x8,%esp
   11972:	83 ec 0c             	sub    $0xc,%esp
   11975:	6a 60                	push   $0x60
   11977:	e8 c4 e6 ff ff       	call   10040 <__inb>
   1197c:	83 c4 10             	add    $0x10,%esp
   1197f:	83 ec 0c             	sub    $0xc,%esp
   11982:	50                   	push   %eax
   11983:	e8 06 ff ff ff       	call   1188e <__c_input_scan_code>
   11988:	83 c4 10             	add    $0x10,%esp
   1198b:	83 ec 08             	sub    $0x8,%esp
   1198e:	6a 20                	push   $0x20
   11990:	6a 20                	push   $0x20
   11992:	e8 ce e6 ff ff       	call   10065 <__outb>
   11997:	83 c4 10             	add    $0x10,%esp
   1199a:	90                   	nop
   1199b:	c9                   	leave  
   1199c:	c3                   	ret    

0001199d <c_getchar>:
   1199d:	55                   	push   %ebp
   1199e:	89 e5                	mov    %esp,%ebp
   119a0:	83 ec 18             	sub    $0x18,%esp
   119a3:	e8 e5 e6 ff ff       	call   1008d <__get_flags>
   119a8:	25 00 02 00 00       	and    $0x200,%eax
   119ad:	89 45 f4             	mov    %eax,-0xc(%ebp)
   119b0:	eb 34                	jmp    119e6 <c_getchar+0x49>
   119b2:	83 7d f4 00          	cmpl   $0x0,-0xc(%ebp)
   119b6:	75 2e                	jne    119e6 <c_getchar+0x49>
   119b8:	90                   	nop
   119b9:	83 ec 0c             	sub    $0xc,%esp
   119bc:	6a 64                	push   $0x64
   119be:	e8 7d e6 ff ff       	call   10040 <__inb>
   119c3:	83 c4 10             	add    $0x10,%esp
   119c6:	83 e0 01             	and    $0x1,%eax
   119c9:	85 c0                	test   %eax,%eax
   119cb:	74 ec                	je     119b9 <c_getchar+0x1c>
   119cd:	83 ec 0c             	sub    $0xc,%esp
   119d0:	6a 60                	push   $0x60
   119d2:	e8 69 e6 ff ff       	call   10040 <__inb>
   119d7:	83 c4 10             	add    $0x10,%esp
   119da:	83 ec 0c             	sub    $0xc,%esp
   119dd:	50                   	push   %eax
   119de:	e8 ab fe ff ff       	call   1188e <__c_input_scan_code>
   119e3:	83 c4 10             	add    $0x10,%esp
   119e6:	8b 15 80 b5 01 00    	mov    0x1b580,%edx
   119ec:	a1 84 b5 01 00       	mov    0x1b584,%eax
   119f1:	39 c2                	cmp    %eax,%edx
   119f3:	74 bd                	je     119b2 <c_getchar+0x15>
   119f5:	a1 80 b5 01 00       	mov    0x1b580,%eax
   119fa:	0f b6 00             	movzbl (%eax),%eax
   119fd:	88 45 f3             	mov    %al,-0xd(%ebp)
   11a00:	a1 80 b5 01 00       	mov    0x1b580,%eax
   11a05:	83 ec 0c             	sub    $0xc,%esp
   11a08:	50                   	push   %eax
   11a09:	e8 63 fe ff ff       	call   11871 <__c_increment>
   11a0e:	83 c4 10             	add    $0x10,%esp
   11a11:	a3 80 b5 01 00       	mov    %eax,0x1b580
   11a16:	80 7d f3 04          	cmpb   $0x4,-0xd(%ebp)
   11a1a:	74 10                	je     11a2c <c_getchar+0x8f>
   11a1c:	0f be 45 f3          	movsbl -0xd(%ebp),%eax
   11a20:	83 ec 0c             	sub    $0xc,%esp
   11a23:	50                   	push   %eax
   11a24:	e8 aa f4 ff ff       	call   10ed3 <c_putchar>
   11a29:	83 c4 10             	add    $0x10,%esp
   11a2c:	0f be 45 f3          	movsbl -0xd(%ebp),%eax
   11a30:	c9                   	leave  
   11a31:	c3                   	ret    

00011a32 <c_gets>:
   11a32:	55                   	push   %ebp
   11a33:	89 e5                	mov    %esp,%ebp
   11a35:	83 ec 18             	sub    $0x18,%esp
   11a38:	c7 45 f4 00 00 00 00 	movl   $0x0,-0xc(%ebp)
   11a3f:	eb 2b                	jmp    11a6c <c_gets+0x3a>
   11a41:	e8 57 ff ff ff       	call   1199d <c_getchar>
   11a46:	88 45 f3             	mov    %al,-0xd(%ebp)
   11a49:	80 7d f3 04          	cmpb   $0x4,-0xd(%ebp)
   11a4d:	74 25                	je     11a74 <c_gets+0x42>
   11a4f:	8b 45 08             	mov    0x8(%ebp),%eax
   11a52:	8d 50 01             	lea    0x1(%eax),%edx
   11a55:	89 55 08             	mov    %edx,0x8(%ebp)
   11a58:	0f b6 55 f3          	movzbl -0xd(%ebp),%edx
   11a5c:	88 10                	mov    %dl,(%eax)
   11a5e:	83 45 f4 01          	addl   $0x1,-0xc(%ebp)
   11a62:	83 6d 0c 01          	subl   $0x1,0xc(%ebp)
   11a66:	80 7d f3 0a          	cmpb   $0xa,-0xd(%ebp)
   11a6a:	74 0b                	je     11a77 <c_gets+0x45>
   11a6c:	83 7d 0c 01          	cmpl   $0x1,0xc(%ebp)
   11a70:	77 cf                	ja     11a41 <c_gets+0xf>
   11a72:	eb 04                	jmp    11a78 <c_gets+0x46>
   11a74:	90                   	nop
   11a75:	eb 01                	jmp    11a78 <c_gets+0x46>
   11a77:	90                   	nop
   11a78:	8b 45 08             	mov    0x8(%ebp),%eax
   11a7b:	c6 00 00             	movb   $0x0,(%eax)
   11a7e:	8b 45 f4             	mov    -0xc(%ebp),%eax
   11a81:	c9                   	leave  
   11a82:	c3                   	ret    

00011a83 <c_input_queue>:
   11a83:	55                   	push   %ebp
   11a84:	89 e5                	mov    %esp,%ebp
   11a86:	83 ec 10             	sub    $0x10,%esp
   11a89:	a1 84 b5 01 00       	mov    0x1b584,%eax
   11a8e:	89 c2                	mov    %eax,%edx
   11a90:	a1 80 b5 01 00       	mov    0x1b580,%eax
   11a95:	29 c2                	sub    %eax,%edx
   11a97:	89 d0                	mov    %edx,%eax
   11a99:	89 45 fc             	mov    %eax,-0x4(%ebp)
   11a9c:	83 7d fc 00          	cmpl   $0x0,-0x4(%ebp)
   11aa0:	79 07                	jns    11aa9 <c_input_queue+0x26>
   11aa2:	81 45 fc c8 00 00 00 	addl   $0xc8,-0x4(%ebp)
   11aa9:	8b 45 fc             	mov    -0x4(%ebp),%eax
   11aac:	c9                   	leave  
   11aad:	c3                   	ret    

00011aae <c_io_init>:
   11aae:	55                   	push   %ebp
   11aaf:	89 e5                	mov    %esp,%ebp
   11ab1:	83 ec 08             	sub    $0x8,%esp
   11ab4:	c7 05 90 c7 01 00 00 	movl   $0x0,0x1c790
   11abb:	00 00 00 
   11abe:	c7 05 84 c7 01 00 00 	movl   $0x0,0x1c784
   11ac5:	00 00 00 
   11ac8:	c7 05 7c c7 01 00 4f 	movl   $0x4f,0x1c77c
   11acf:	00 00 00 
   11ad2:	c7 05 98 c7 01 00 18 	movl   $0x18,0x1c798
   11ad9:	00 00 00 
   11adc:	c7 05 9c c7 01 00 00 	movl   $0x0,0x1c79c
   11ae3:	00 00 00 
   11ae6:	c7 05 8c c7 01 00 00 	movl   $0x0,0x1c78c
   11aed:	00 00 00 
   11af0:	c7 05 78 c7 01 00 4f 	movl   $0x4f,0x1c778
   11af7:	00 00 00 
   11afa:	c7 05 88 c7 01 00 18 	movl   $0x18,0x1c788
   11b01:	00 00 00 
   11b04:	a1 84 c7 01 00       	mov    0x1c784,%eax
   11b09:	a3 94 c7 01 00       	mov    %eax,0x1c794
   11b0e:	a1 90 c7 01 00       	mov    0x1c790,%eax
   11b13:	a3 80 c7 01 00       	mov    %eax,0x1c780
   11b18:	e8 36 f1 ff ff       	call   10c53 <__c_setcursor>
   11b1d:	83 ec 08             	sub    $0x8,%esp
   11b20:	68 6c 19 01 00       	push   $0x1196c
   11b25:	6a 21                	push   $0x21
   11b27:	e8 b7 02 00 00       	call   11de3 <__install_isr>
   11b2c:	83 c4 10             	add    $0x10,%esp
   11b2f:	90                   	nop
   11b30:	c9                   	leave  
   11b31:	c3                   	ret    

00011b32 <__default_unexpected_handler>:
   11b32:	55                   	push   %ebp
   11b33:	89 e5                	mov    %esp,%ebp
   11b35:	83 ec 18             	sub    $0x18,%esp
   11b38:	8b 45 08             	mov    0x8(%ebp),%eax
   11b3b:	83 ec 04             	sub    $0x4,%esp
   11b3e:	ff 75 0c             	pushl  0xc(%ebp)
   11b41:	50                   	push   %eax
   11b42:	68 60 7a 01 00       	push   $0x17a60
   11b47:	e8 09 fd ff ff       	call   11855 <c_printf>
   11b4c:	83 c4 10             	add    $0x10,%esp
   11b4f:	a1 64 cc 01 00       	mov    0x1cc64,%eax
   11b54:	85 c0                	test   %eax,%eax
   11b56:	74 4b                	je     11ba3 <__default_unexpected_handler+0x71>
   11b58:	a1 64 cc 01 00       	mov    0x1cc64,%eax
   11b5d:	83 ec 08             	sub    $0x8,%esp
   11b60:	50                   	push   %eax
   11b61:	68 79 7a 01 00       	push   $0x17a79
   11b66:	e8 ee 0e 00 00       	call   12a59 <_pcb_dump>
   11b6b:	83 c4 10             	add    $0x10,%esp
   11b6e:	a1 64 cc 01 00       	mov    0x1cc64,%eax
   11b73:	8b 00                	mov    (%eax),%eax
   11b75:	83 ec 08             	sub    $0x8,%esp
   11b78:	50                   	push   %eax
   11b79:	68 85 7a 01 00       	push   $0x17a85
   11b7e:	e8 e7 0f 00 00       	call   12b6a <_context_dump>
   11b83:	83 c4 10             	add    $0x10,%esp
   11b86:	a1 64 cc 01 00       	mov    0x1cc64,%eax
   11b8b:	8b 40 04             	mov    0x4(%eax),%eax
   11b8e:	83 ec 04             	sub    $0x4,%esp
   11b91:	6a 00                	push   $0x0
   11b93:	50                   	push   %eax
   11b94:	68 95 7a 01 00       	push   $0x17a95
   11b99:	e8 b9 24 00 00       	call   14057 <_stk_dump>
   11b9e:	83 c4 10             	add    $0x10,%esp
   11ba1:	eb 29                	jmp    11bcc <__default_unexpected_handler+0x9a>
   11ba3:	83 ec 0c             	sub    $0xc,%esp
   11ba6:	68 a4 7a 01 00       	push   $0x17aa4
   11bab:	e8 63 f4 ff ff       	call   11013 <c_puts>
   11bb0:	83 c4 10             	add    $0x10,%esp
   11bb3:	8d 45 10             	lea    0x10(%ebp),%eax
   11bb6:	89 45 f4             	mov    %eax,-0xc(%ebp)
   11bb9:	83 ec 08             	sub    $0x8,%esp
   11bbc:	ff 75 f4             	pushl  -0xc(%ebp)
   11bbf:	68 d2 7a 01 00       	push   $0x17ad2
   11bc4:	e8 a1 0f 00 00       	call   12b6a <_context_dump>
   11bc9:	83 c4 10             	add    $0x10,%esp
   11bcc:	83 ec 0c             	sub    $0xc,%esp
   11bcf:	68 e3 7a 01 00       	push   $0x17ae3
   11bd4:	e8 db 01 00 00       	call   11db4 <__panic>
   11bd9:	83 c4 10             	add    $0x10,%esp
   11bdc:	90                   	nop
   11bdd:	c9                   	leave  
   11bde:	c3                   	ret    

00011bdf <__default_expected_handler>:
   11bdf:	55                   	push   %ebp
   11be0:	89 e5                	mov    %esp,%ebp
   11be2:	83 ec 08             	sub    $0x8,%esp
   11be5:	83 7d 08 1f          	cmpl   $0x1f,0x8(%ebp)
   11be9:	7e 2f                	jle    11c1a <__default_expected_handler+0x3b>
   11beb:	83 7d 08 2f          	cmpl   $0x2f,0x8(%ebp)
   11bef:	7f 29                	jg     11c1a <__default_expected_handler+0x3b>
   11bf1:	83 ec 08             	sub    $0x8,%esp
   11bf4:	6a 20                	push   $0x20
   11bf6:	6a 20                	push   $0x20
   11bf8:	e8 68 e4 ff ff       	call   10065 <__outb>
   11bfd:	83 c4 10             	add    $0x10,%esp
   11c00:	83 7d 08 27          	cmpl   $0x27,0x8(%ebp)
   11c04:	7e 24                	jle    11c2a <__default_expected_handler+0x4b>
   11c06:	83 ec 08             	sub    $0x8,%esp
   11c09:	6a 20                	push   $0x20
   11c0b:	68 a0 00 00 00       	push   $0xa0
   11c10:	e8 50 e4 ff ff       	call   10065 <__outb>
   11c15:	83 c4 10             	add    $0x10,%esp
   11c18:	eb 10                	jmp    11c2a <__default_expected_handler+0x4b>
   11c1a:	83 ec 0c             	sub    $0xc,%esp
   11c1d:	68 f8 7a 01 00       	push   $0x17af8
   11c22:	e8 8d 01 00 00       	call   11db4 <__panic>
   11c27:	83 c4 10             	add    $0x10,%esp
   11c2a:	90                   	nop
   11c2b:	c9                   	leave  
   11c2c:	c3                   	ret    

00011c2d <__default_mystery_handler>:
   11c2d:	55                   	push   %ebp
   11c2e:	89 e5                	mov    %esp,%ebp
   11c30:	83 ec 08             	sub    $0x8,%esp
   11c33:	83 ec 08             	sub    $0x8,%esp
   11c36:	6a 20                	push   $0x20
   11c38:	6a 20                	push   $0x20
   11c3a:	e8 26 e4 ff ff       	call   10065 <__outb>
   11c3f:	83 c4 10             	add    $0x10,%esp
   11c42:	90                   	nop
   11c43:	c9                   	leave  
   11c44:	c3                   	ret    

00011c45 <init_pic>:
   11c45:	55                   	push   %ebp
   11c46:	89 e5                	mov    %esp,%ebp
   11c48:	83 ec 08             	sub    $0x8,%esp
   11c4b:	83 ec 08             	sub    $0x8,%esp
   11c4e:	6a 11                	push   $0x11
   11c50:	6a 20                	push   $0x20
   11c52:	e8 0e e4 ff ff       	call   10065 <__outb>
   11c57:	83 c4 10             	add    $0x10,%esp
   11c5a:	83 ec 08             	sub    $0x8,%esp
   11c5d:	6a 11                	push   $0x11
   11c5f:	68 a0 00 00 00       	push   $0xa0
   11c64:	e8 fc e3 ff ff       	call   10065 <__outb>
   11c69:	83 c4 10             	add    $0x10,%esp
   11c6c:	83 ec 08             	sub    $0x8,%esp
   11c6f:	6a 20                	push   $0x20
   11c71:	6a 21                	push   $0x21
   11c73:	e8 ed e3 ff ff       	call   10065 <__outb>
   11c78:	83 c4 10             	add    $0x10,%esp
   11c7b:	83 ec 08             	sub    $0x8,%esp
   11c7e:	6a 28                	push   $0x28
   11c80:	68 a1 00 00 00       	push   $0xa1
   11c85:	e8 db e3 ff ff       	call   10065 <__outb>
   11c8a:	83 c4 10             	add    $0x10,%esp
   11c8d:	83 ec 08             	sub    $0x8,%esp
   11c90:	6a 04                	push   $0x4
   11c92:	6a 21                	push   $0x21
   11c94:	e8 cc e3 ff ff       	call   10065 <__outb>
   11c99:	83 c4 10             	add    $0x10,%esp
   11c9c:	83 ec 08             	sub    $0x8,%esp
   11c9f:	6a 02                	push   $0x2
   11ca1:	68 a1 00 00 00       	push   $0xa1
   11ca6:	e8 ba e3 ff ff       	call   10065 <__outb>
   11cab:	83 c4 10             	add    $0x10,%esp
   11cae:	83 ec 08             	sub    $0x8,%esp
   11cb1:	6a 01                	push   $0x1
   11cb3:	6a 21                	push   $0x21
   11cb5:	e8 ab e3 ff ff       	call   10065 <__outb>
   11cba:	83 c4 10             	add    $0x10,%esp
   11cbd:	83 ec 08             	sub    $0x8,%esp
   11cc0:	6a 01                	push   $0x1
   11cc2:	68 a1 00 00 00       	push   $0xa1
   11cc7:	e8 99 e3 ff ff       	call   10065 <__outb>
   11ccc:	83 c4 10             	add    $0x10,%esp
   11ccf:	83 ec 08             	sub    $0x8,%esp
   11cd2:	6a 00                	push   $0x0
   11cd4:	6a 21                	push   $0x21
   11cd6:	e8 8a e3 ff ff       	call   10065 <__outb>
   11cdb:	83 c4 10             	add    $0x10,%esp
   11cde:	83 ec 08             	sub    $0x8,%esp
   11ce1:	6a 00                	push   $0x0
   11ce3:	68 a1 00 00 00       	push   $0xa1
   11ce8:	e8 78 e3 ff ff       	call   10065 <__outb>
   11ced:	83 c4 10             	add    $0x10,%esp
   11cf0:	90                   	nop
   11cf1:	c9                   	leave  
   11cf2:	c3                   	ret    

00011cf3 <set_idt_entry>:
   11cf3:	55                   	push   %ebp
   11cf4:	89 e5                	mov    %esp,%ebp
   11cf6:	83 ec 10             	sub    $0x10,%esp
   11cf9:	8b 45 08             	mov    0x8(%ebp),%eax
   11cfc:	c1 e0 03             	shl    $0x3,%eax
   11cff:	05 00 25 00 00       	add    $0x2500,%eax
   11d04:	89 45 fc             	mov    %eax,-0x4(%ebp)
   11d07:	8b 45 0c             	mov    0xc(%ebp),%eax
   11d0a:	89 c2                	mov    %eax,%edx
   11d0c:	8b 45 fc             	mov    -0x4(%ebp),%eax
   11d0f:	66 89 10             	mov    %dx,(%eax)
   11d12:	8b 45 fc             	mov    -0x4(%ebp),%eax
   11d15:	66 c7 40 02 10 00    	movw   $0x10,0x2(%eax)
   11d1b:	8b 45 fc             	mov    -0x4(%ebp),%eax
   11d1e:	66 c7 40 04 00 8e    	movw   $0x8e00,0x4(%eax)
   11d24:	8b 45 0c             	mov    0xc(%ebp),%eax
   11d27:	c1 e8 10             	shr    $0x10,%eax
   11d2a:	89 c2                	mov    %eax,%edx
   11d2c:	8b 45 fc             	mov    -0x4(%ebp),%eax
   11d2f:	66 89 50 06          	mov    %dx,0x6(%eax)
   11d33:	90                   	nop
   11d34:	c9                   	leave  
   11d35:	c3                   	ret    

00011d36 <init_idt>:
   11d36:	55                   	push   %ebp
   11d37:	89 e5                	mov    %esp,%ebp
   11d39:	83 ec 18             	sub    $0x18,%esp
   11d3c:	c7 45 f4 00 00 00 00 	movl   $0x0,-0xc(%ebp)
   11d43:	eb 2d                	jmp    11d72 <init_idt+0x3c>
   11d45:	8b 45 f4             	mov    -0xc(%ebp),%eax
   11d48:	8b 04 85 60 b0 01 00 	mov    0x1b060(,%eax,4),%eax
   11d4f:	50                   	push   %eax
   11d50:	ff 75 f4             	pushl  -0xc(%ebp)
   11d53:	e8 9b ff ff ff       	call   11cf3 <set_idt_entry>
   11d58:	83 c4 08             	add    $0x8,%esp
   11d5b:	83 ec 08             	sub    $0x8,%esp
   11d5e:	68 32 1b 01 00       	push   $0x11b32
   11d63:	ff 75 f4             	pushl  -0xc(%ebp)
   11d66:	e8 78 00 00 00       	call   11de3 <__install_isr>
   11d6b:	83 c4 10             	add    $0x10,%esp
   11d6e:	83 45 f4 01          	addl   $0x1,-0xc(%ebp)
   11d72:	81 7d f4 ff 00 00 00 	cmpl   $0xff,-0xc(%ebp)
   11d79:	7e ca                	jle    11d45 <init_idt+0xf>
   11d7b:	83 ec 08             	sub    $0x8,%esp
   11d7e:	68 df 1b 01 00       	push   $0x11bdf
   11d83:	6a 21                	push   $0x21
   11d85:	e8 59 00 00 00       	call   11de3 <__install_isr>
   11d8a:	83 c4 10             	add    $0x10,%esp
   11d8d:	83 ec 08             	sub    $0x8,%esp
   11d90:	68 df 1b 01 00       	push   $0x11bdf
   11d95:	6a 20                	push   $0x20
   11d97:	e8 47 00 00 00       	call   11de3 <__install_isr>
   11d9c:	83 c4 10             	add    $0x10,%esp
   11d9f:	83 ec 08             	sub    $0x8,%esp
   11da2:	68 2d 1c 01 00       	push   $0x11c2d
   11da7:	6a 27                	push   $0x27
   11da9:	e8 35 00 00 00       	call   11de3 <__install_isr>
   11dae:	83 c4 10             	add    $0x10,%esp
   11db1:	90                   	nop
   11db2:	c9                   	leave  
   11db3:	c3                   	ret    

00011db4 <__panic>:
   11db4:	55                   	push   %ebp
   11db5:	89 e5                	mov    %esp,%ebp
   11db7:	83 ec 08             	sub    $0x8,%esp
   11dba:	fa                   	cli    
   11dbb:	83 ec 08             	sub    $0x8,%esp
   11dbe:	ff 75 08             	pushl  0x8(%ebp)
   11dc1:	68 19 7b 01 00       	push   $0x17b19
   11dc6:	e8 8a fa ff ff       	call   11855 <c_printf>
   11dcb:	83 c4 10             	add    $0x10,%esp
   11dce:	eb fe                	jmp    11dce <__panic+0x1a>

00011dd0 <__init_interrupts>:
   11dd0:	55                   	push   %ebp
   11dd1:	89 e5                	mov    %esp,%ebp
   11dd3:	83 ec 08             	sub    $0x8,%esp
   11dd6:	e8 5b ff ff ff       	call   11d36 <init_idt>
   11ddb:	e8 65 fe ff ff       	call   11c45 <init_pic>
   11de0:	90                   	nop
   11de1:	c9                   	leave  
   11de2:	c3                   	ret    

00011de3 <__install_isr>:
   11de3:	55                   	push   %ebp
   11de4:	89 e5                	mov    %esp,%ebp
   11de6:	83 ec 10             	sub    $0x10,%esp
   11de9:	8b 45 08             	mov    0x8(%ebp),%eax
   11dec:	8b 04 85 a0 c7 01 00 	mov    0x1c7a0(,%eax,4),%eax
   11df3:	89 45 fc             	mov    %eax,-0x4(%ebp)
   11df6:	8b 45 08             	mov    0x8(%ebp),%eax
   11df9:	8b 55 0c             	mov    0xc(%ebp),%edx
   11dfc:	89 14 85 a0 c7 01 00 	mov    %edx,0x1c7a0(,%eax,4)
   11e03:	8b 45 fc             	mov    -0x4(%ebp),%eax
   11e06:	c9                   	leave  
   11e07:	c3                   	ret    

00011e08 <__delay>:
   11e08:	55                   	push   %ebp
   11e09:	89 e5                	mov    %esp,%ebp
   11e0b:	83 ec 10             	sub    $0x10,%esp
   11e0e:	eb 16                	jmp    11e26 <__delay+0x1e>
   11e10:	c7 45 fc 00 00 00 00 	movl   $0x0,-0x4(%ebp)
   11e17:	eb 04                	jmp    11e1d <__delay+0x15>
   11e19:	83 45 fc 01          	addl   $0x1,-0x4(%ebp)
   11e1d:	81 7d fc 7f 96 98 00 	cmpl   $0x98967f,-0x4(%ebp)
   11e24:	7e f3                	jle    11e19 <__delay+0x11>
   11e26:	83 6d 08 01          	subl   $0x1,0x8(%ebp)
   11e2a:	83 7d 08 00          	cmpl   $0x0,0x8(%ebp)
   11e2e:	79 e0                	jns    11e10 <__delay+0x8>
   11e30:	90                   	nop
   11e31:	c9                   	leave  
   11e32:	c3                   	ret    

00011e33 <_clk_isr>:
   11e33:	55                   	push   %ebp
   11e34:	89 e5                	mov    %esp,%ebp
   11e36:	57                   	push   %edi
   11e37:	56                   	push   %esi
   11e38:	53                   	push   %ebx
   11e39:	83 ec 1c             	sub    $0x1c,%esp
   11e3c:	a1 ac b6 01 00       	mov    0x1b6ac,%eax
   11e41:	83 c0 01             	add    $0x1,%eax
   11e44:	a3 ac b6 01 00       	mov    %eax,0x1b6ac
   11e49:	a1 ac b6 01 00       	mov    0x1b6ac,%eax
   11e4e:	83 f8 64             	cmp    $0x64,%eax
   11e51:	75 39                	jne    11e8c <_clk_isr+0x59>
   11e53:	c7 05 ac b6 01 00 00 	movl   $0x0,0x1b6ac
   11e5a:	00 00 00 
   11e5d:	a1 b0 b6 01 00       	mov    0x1b6b0,%eax
   11e62:	83 c0 01             	add    $0x1,%eax
   11e65:	a3 b0 b6 01 00       	mov    %eax,0x1b6b0
   11e6a:	a1 b0 b6 01 00       	mov    0x1b6b0,%eax
   11e6f:	83 e0 03             	and    $0x3,%eax
   11e72:	0f b6 80 a6 7b 01 00 	movzbl 0x17ba6(%eax),%eax
   11e79:	0f be c0             	movsbl %al,%eax
   11e7c:	83 ec 04             	sub    $0x4,%esp
   11e7f:	50                   	push   %eax
   11e80:	6a 00                	push   $0x0
   11e82:	6a 4f                	push   $0x4f
   11e84:	e8 d2 ef ff ff       	call   10e5b <c_putchar_at>
   11e89:	83 c4 10             	add    $0x10,%esp
   11e8c:	8b 0d a0 cb 01 00    	mov    0x1cba0,%ecx
   11e92:	ba 59 17 b7 d1       	mov    $0xd1b71759,%edx
   11e97:	89 c8                	mov    %ecx,%eax
   11e99:	f7 e2                	mul    %edx
   11e9b:	89 d0                	mov    %edx,%eax
   11e9d:	c1 e8 0d             	shr    $0xd,%eax
   11ea0:	69 c0 10 27 00 00    	imul   $0x2710,%eax,%eax
   11ea6:	29 c1                	sub    %eax,%ecx
   11ea8:	89 c8                	mov    %ecx,%eax
   11eaa:	85 c0                	test   %eax,%eax
   11eac:	0f 85 f8 00 00 00    	jne    11faa <_clk_isr+0x177>
   11eb2:	a1 a0 cb 01 00       	mov    0x1cba0,%eax
   11eb7:	83 ec 08             	sub    $0x8,%esp
   11eba:	50                   	push   %eax
   11ebb:	68 30 7b 01 00       	push   $0x17b30
   11ec0:	e8 90 f9 ff ff       	call   11855 <c_printf>
   11ec5:	83 c4 10             	add    $0x10,%esp
   11ec8:	a1 44 cc 01 00       	mov    0x1cc44,%eax
   11ecd:	83 ec 0c             	sub    $0xc,%esp
   11ed0:	50                   	push   %eax
   11ed1:	e8 24 11 00 00       	call   12ffa <_q_size>
   11ed6:	83 c4 10             	add    $0x10,%esp
   11ed9:	89 c7                	mov    %eax,%edi
   11edb:	a1 68 cc 01 00       	mov    0x1cc68,%eax
   11ee0:	83 ec 0c             	sub    $0xc,%esp
   11ee3:	50                   	push   %eax
   11ee4:	e8 11 11 00 00       	call   12ffa <_q_size>
   11ee9:	83 c4 10             	add    $0x10,%esp
   11eec:	89 c6                	mov    %eax,%esi
   11eee:	a1 4c cc 01 00       	mov    0x1cc4c,%eax
   11ef3:	83 ec 0c             	sub    $0xc,%esp
   11ef6:	50                   	push   %eax
   11ef7:	e8 fe 10 00 00       	call   12ffa <_q_size>
   11efc:	83 c4 10             	add    $0x10,%esp
   11eff:	89 c3                	mov    %eax,%ebx
   11f01:	a1 48 cc 01 00       	mov    0x1cc48,%eax
   11f06:	83 ec 0c             	sub    $0xc,%esp
   11f09:	50                   	push   %eax
   11f0a:	e8 eb 10 00 00       	call   12ffa <_q_size>
   11f0f:	83 c4 10             	add    $0x10,%esp
   11f12:	83 ec 0c             	sub    $0xc,%esp
   11f15:	57                   	push   %edi
   11f16:	56                   	push   %esi
   11f17:	53                   	push   %ebx
   11f18:	50                   	push   %eax
   11f19:	68 40 7b 01 00       	push   $0x17b40
   11f1e:	e8 32 f9 ff ff       	call   11855 <c_printf>
   11f23:	83 c4 20             	add    $0x20,%esp
   11f26:	83 ec 0c             	sub    $0xc,%esp
   11f29:	68 65 7b 01 00       	push   $0x17b65
   11f2e:	e8 e0 f0 ff ff       	call   11013 <c_puts>
   11f33:	83 c4 10             	add    $0x10,%esp
   11f36:	c7 45 e0 00 00 00 00 	movl   $0x0,-0x20(%ebp)
   11f3d:	eb 3e                	jmp    11f7d <_clk_isr+0x14a>
   11f3f:	8b 45 e0             	mov    -0x20(%ebp),%eax
   11f42:	8b 04 85 50 cc 01 00 	mov    0x1cc50(,%eax,4),%eax
   11f49:	83 ec 0c             	sub    $0xc,%esp
   11f4c:	50                   	push   %eax
   11f4d:	e8 a8 10 00 00       	call   12ffa <_q_size>
   11f52:	83 c4 10             	add    $0x10,%esp
   11f55:	83 ec 08             	sub    $0x8,%esp
   11f58:	50                   	push   %eax
   11f59:	68 6e 7b 01 00       	push   $0x17b6e
   11f5e:	e8 f2 f8 ff ff       	call   11855 <c_printf>
   11f63:	83 c4 10             	add    $0x10,%esp
   11f66:	83 7d e0 04          	cmpl   $0x4,-0x20(%ebp)
   11f6a:	74 0d                	je     11f79 <_clk_isr+0x146>
   11f6c:	83 ec 0c             	sub    $0xc,%esp
   11f6f:	6a 2c                	push   $0x2c
   11f71:	e8 5d ef ff ff       	call   10ed3 <c_putchar>
   11f76:	83 c4 10             	add    $0x10,%esp
   11f79:	83 45 e0 01          	addl   $0x1,-0x20(%ebp)
   11f7d:	83 7d e0 04          	cmpl   $0x4,-0x20(%ebp)
   11f81:	7e bc                	jle    11f3f <_clk_isr+0x10c>
   11f83:	83 ec 0c             	sub    $0xc,%esp
   11f86:	68 71 7b 01 00       	push   $0x17b71
   11f8b:	e8 83 f0 ff ff       	call   11013 <c_puts>
   11f90:	83 c4 10             	add    $0x10,%esp
   11f93:	e8 5b 1f 00 00       	call   13ef3 <_sio_dump>
   11f98:	83 ec 08             	sub    $0x8,%esp
   11f9b:	6a 00                	push   $0x0
   11f9d:	68 74 7b 01 00       	push   $0x17b74
   11fa2:	e8 ce 0c 00 00       	call   12c75 <_active_dump>
   11fa7:	83 c4 10             	add    $0x10,%esp
   11faa:	a1 a0 cb 01 00       	mov    0x1cba0,%eax
   11faf:	83 c0 01             	add    $0x1,%eax
   11fb2:	a3 a0 cb 01 00       	mov    %eax,0x1cba0
   11fb7:	a1 48 cc 01 00       	mov    0x1cc48,%eax
   11fbc:	83 ec 0c             	sub    $0xc,%esp
   11fbf:	50                   	push   %eax
   11fc0:	e8 7d 11 00 00       	call   13142 <_q_peek>
   11fc5:	83 c4 10             	add    $0x10,%esp
   11fc8:	89 45 e4             	mov    %eax,-0x1c(%ebp)
   11fcb:	eb 51                	jmp    1201e <_clk_isr+0x1eb>
   11fcd:	a1 48 cc 01 00       	mov    0x1cc48,%eax
   11fd2:	83 ec 0c             	sub    $0xc,%esp
   11fd5:	50                   	push   %eax
   11fd6:	e8 aa 11 00 00       	call   13185 <_q_remove>
   11fdb:	83 c4 10             	add    $0x10,%esp
   11fde:	89 45 e4             	mov    %eax,-0x1c(%ebp)
   11fe1:	83 7d e4 00          	cmpl   $0x0,-0x1c(%ebp)
   11fe5:	75 15                	jne    11ffc <_clk_isr+0x1c9>
   11fe7:	83 ec 08             	sub    $0x8,%esp
   11fea:	68 82 7b 01 00       	push   $0x17b82
   11fef:	68 9d 7b 01 00       	push   $0x17b9d
   11ff4:	e8 46 02 00 00       	call   1223f <_kpanic>
   11ff9:	83 c4 10             	add    $0x10,%esp
   11ffc:	83 ec 0c             	sub    $0xc,%esp
   11fff:	ff 75 e4             	pushl  -0x1c(%ebp)
   12002:	e8 c1 16 00 00       	call   136c8 <_schedule>
   12007:	83 c4 10             	add    $0x10,%esp
   1200a:	a1 48 cc 01 00       	mov    0x1cc48,%eax
   1200f:	83 ec 0c             	sub    $0xc,%esp
   12012:	50                   	push   %eax
   12013:	e8 2a 11 00 00       	call   13142 <_q_peek>
   12018:	83 c4 10             	add    $0x10,%esp
   1201b:	89 45 e4             	mov    %eax,-0x1c(%ebp)
   1201e:	83 7d e4 00          	cmpl   $0x0,-0x1c(%ebp)
   12022:	74 0f                	je     12033 <_clk_isr+0x200>
   12024:	8b 45 e4             	mov    -0x1c(%ebp),%eax
   12027:	8b 50 08             	mov    0x8(%eax),%edx
   1202a:	a1 a0 cb 01 00       	mov    0x1cba0,%eax
   1202f:	39 c2                	cmp    %eax,%edx
   12031:	76 9a                	jbe    11fcd <_clk_isr+0x19a>
   12033:	a1 64 cc 01 00       	mov    0x1cc64,%eax
   12038:	8b 15 64 cc 01 00    	mov    0x1cc64,%edx
   1203e:	0f b6 52 18          	movzbl 0x18(%edx),%edx
   12042:	83 ea 01             	sub    $0x1,%edx
   12045:	88 50 18             	mov    %dl,0x18(%eax)
   12048:	a1 64 cc 01 00       	mov    0x1cc64,%eax
   1204d:	0f b6 40 18          	movzbl 0x18(%eax),%eax
   12051:	84 c0                	test   %al,%al
   12053:	75 16                	jne    1206b <_clk_isr+0x238>
   12055:	a1 64 cc 01 00       	mov    0x1cc64,%eax
   1205a:	83 ec 0c             	sub    $0xc,%esp
   1205d:	50                   	push   %eax
   1205e:	e8 65 16 00 00       	call   136c8 <_schedule>
   12063:	83 c4 10             	add    $0x10,%esp
   12066:	e8 db 16 00 00       	call   13746 <_dispatch>
   1206b:	83 ec 08             	sub    $0x8,%esp
   1206e:	6a 20                	push   $0x20
   12070:	6a 20                	push   $0x20
   12072:	e8 ee df ff ff       	call   10065 <__outb>
   12077:	83 c4 10             	add    $0x10,%esp
   1207a:	90                   	nop
   1207b:	8d 65 f4             	lea    -0xc(%ebp),%esp
   1207e:	5b                   	pop    %ebx
   1207f:	5e                   	pop    %esi
   12080:	5f                   	pop    %edi
   12081:	5d                   	pop    %ebp
   12082:	c3                   	ret    

00012083 <_clk_init>:
   12083:	55                   	push   %ebp
   12084:	89 e5                	mov    %esp,%ebp
   12086:	83 ec 18             	sub    $0x18,%esp
   12089:	83 ec 0c             	sub    $0xc,%esp
   1208c:	68 ab 7b 01 00       	push   $0x17bab
   12091:	e8 7d ef ff ff       	call   11013 <c_puts>
   12096:	83 c4 10             	add    $0x10,%esp
   12099:	c7 05 ac b6 01 00 63 	movl   $0x63,0x1b6ac
   120a0:	00 00 00 
   120a3:	c7 05 b0 b6 01 00 00 	movl   $0x0,0x1b6b0
   120aa:	00 00 00 
   120ad:	c7 05 a0 cb 01 00 00 	movl   $0x0,0x1cba0
   120b4:	00 00 00 
   120b7:	c7 45 f4 a9 04 00 00 	movl   $0x4a9,-0xc(%ebp)
   120be:	83 ec 08             	sub    $0x8,%esp
   120c1:	6a 36                	push   $0x36
   120c3:	6a 43                	push   $0x43
   120c5:	e8 9b df ff ff       	call   10065 <__outb>
   120ca:	83 c4 10             	add    $0x10,%esp
   120cd:	8b 45 f4             	mov    -0xc(%ebp),%eax
   120d0:	0f b6 c0             	movzbl %al,%eax
   120d3:	83 ec 08             	sub    $0x8,%esp
   120d6:	50                   	push   %eax
   120d7:	6a 40                	push   $0x40
   120d9:	e8 87 df ff ff       	call   10065 <__outb>
   120de:	83 c4 10             	add    $0x10,%esp
   120e1:	8b 45 f4             	mov    -0xc(%ebp),%eax
   120e4:	c1 e8 08             	shr    $0x8,%eax
   120e7:	0f b6 c0             	movzbl %al,%eax
   120ea:	83 ec 08             	sub    $0x8,%esp
   120ed:	50                   	push   %eax
   120ee:	6a 40                	push   $0x40
   120f0:	e8 70 df ff ff       	call   10065 <__outb>
   120f5:	83 c4 10             	add    $0x10,%esp
   120f8:	83 ec 08             	sub    $0x8,%esp
   120fb:	68 33 1e 01 00       	push   $0x11e33
   12100:	6a 20                	push   $0x20
   12102:	e8 dc fc ff ff       	call   11de3 <__install_isr>
   12107:	83 c4 10             	add    $0x10,%esp
   1210a:	90                   	nop
   1210b:	c9                   	leave  
   1210c:	c3                   	ret    

0001210d <_put_char_or_code>:
   1210d:	55                   	push   %ebp
   1210e:	89 e5                	mov    %esp,%ebp
   12110:	83 ec 08             	sub    $0x8,%esp
   12113:	83 7d 08 1f          	cmpl   $0x1f,0x8(%ebp)
   12117:	7e 17                	jle    12130 <_put_char_or_code+0x23>
   12119:	83 7d 08 7e          	cmpl   $0x7e,0x8(%ebp)
   1211d:	7f 11                	jg     12130 <_put_char_or_code+0x23>
   1211f:	8b 45 08             	mov    0x8(%ebp),%eax
   12122:	83 ec 0c             	sub    $0xc,%esp
   12125:	50                   	push   %eax
   12126:	e8 a8 ed ff ff       	call   10ed3 <c_putchar>
   1212b:	83 c4 10             	add    $0x10,%esp
   1212e:	eb 13                	jmp    12143 <_put_char_or_code+0x36>
   12130:	83 ec 08             	sub    $0x8,%esp
   12133:	ff 75 08             	pushl  0x8(%ebp)
   12136:	68 b2 7b 01 00       	push   $0x17bb2
   1213b:	e8 15 f7 ff ff       	call   11855 <c_printf>
   12140:	83 c4 10             	add    $0x10,%esp
   12143:	90                   	nop
   12144:	c9                   	leave  
   12145:	c3                   	ret    

00012146 <_kmemset>:
   12146:	55                   	push   %ebp
   12147:	89 e5                	mov    %esp,%ebp
   12149:	53                   	push   %ebx
   1214a:	8b 5d 08             	mov    0x8(%ebp),%ebx
   1214d:	8b 4d 0c             	mov    0xc(%ebp),%ecx
   12150:	8b 45 10             	mov    0x10(%ebp),%eax
   12153:	89 c2                	mov    %eax,%edx
   12155:	eb 07                	jmp    1215e <_kmemset+0x18>
   12157:	89 d8                	mov    %ebx,%eax
   12159:	8d 58 01             	lea    0x1(%eax),%ebx
   1215c:	88 10                	mov    %dl,(%eax)
   1215e:	89 c8                	mov    %ecx,%eax
   12160:	8d 48 ff             	lea    -0x1(%eax),%ecx
   12163:	85 c0                	test   %eax,%eax
   12165:	75 f0                	jne    12157 <_kmemset+0x11>
   12167:	90                   	nop
   12168:	5b                   	pop    %ebx
   12169:	5d                   	pop    %ebp
   1216a:	c3                   	ret    

0001216b <_kmemclr>:
   1216b:	55                   	push   %ebp
   1216c:	89 e5                	mov    %esp,%ebp
   1216e:	8b 4d 08             	mov    0x8(%ebp),%ecx
   12171:	8b 55 0c             	mov    0xc(%ebp),%edx
   12174:	eb 08                	jmp    1217e <_kmemclr+0x13>
   12176:	89 c8                	mov    %ecx,%eax
   12178:	8d 48 01             	lea    0x1(%eax),%ecx
   1217b:	c6 00 00             	movb   $0x0,(%eax)
   1217e:	89 d0                	mov    %edx,%eax
   12180:	8d 50 ff             	lea    -0x1(%eax),%edx
   12183:	85 c0                	test   %eax,%eax
   12185:	75 ef                	jne    12176 <_kmemclr+0xb>
   12187:	90                   	nop
   12188:	5d                   	pop    %ebp
   12189:	c3                   	ret    

0001218a <_kmemcpy>:
   1218a:	55                   	push   %ebp
   1218b:	89 e5                	mov    %esp,%ebp
   1218d:	56                   	push   %esi
   1218e:	53                   	push   %ebx
   1218f:	8b 5d 08             	mov    0x8(%ebp),%ebx
   12192:	8b 75 0c             	mov    0xc(%ebp),%esi
   12195:	8b 4d 10             	mov    0x10(%ebp),%ecx
   12198:	eb 0f                	jmp    121a9 <_kmemcpy+0x1f>
   1219a:	89 d8                	mov    %ebx,%eax
   1219c:	8d 58 01             	lea    0x1(%eax),%ebx
   1219f:	89 f2                	mov    %esi,%edx
   121a1:	8d 72 01             	lea    0x1(%edx),%esi
   121a4:	0f b6 12             	movzbl (%edx),%edx
   121a7:	88 10                	mov    %dl,(%eax)
   121a9:	89 c8                	mov    %ecx,%eax
   121ab:	8d 48 ff             	lea    -0x1(%eax),%ecx
   121ae:	85 c0                	test   %eax,%eax
   121b0:	75 e8                	jne    1219a <_kmemcpy+0x10>
   121b2:	90                   	nop
   121b3:	5b                   	pop    %ebx
   121b4:	5e                   	pop    %esi
   121b5:	5d                   	pop    %ebp
   121b6:	c3                   	ret    

000121b7 <_kstrcpy>:
   121b7:	55                   	push   %ebp
   121b8:	89 e5                	mov    %esp,%ebp
   121ba:	53                   	push   %ebx
   121bb:	83 ec 10             	sub    $0x10,%esp
   121be:	8b 55 08             	mov    0x8(%ebp),%edx
   121c1:	8b 5d 0c             	mov    0xc(%ebp),%ebx
   121c4:	89 55 f8             	mov    %edx,-0x8(%ebp)
   121c7:	90                   	nop
   121c8:	89 d0                	mov    %edx,%eax
   121ca:	8d 50 01             	lea    0x1(%eax),%edx
   121cd:	89 d9                	mov    %ebx,%ecx
   121cf:	8d 59 01             	lea    0x1(%ecx),%ebx
   121d2:	0f b6 09             	movzbl (%ecx),%ecx
   121d5:	88 08                	mov    %cl,(%eax)
   121d7:	0f b6 00             	movzbl (%eax),%eax
   121da:	84 c0                	test   %al,%al
   121dc:	75 ea                	jne    121c8 <_kstrcpy+0x11>
   121de:	8b 45 f8             	mov    -0x8(%ebp),%eax
   121e1:	83 c4 10             	add    $0x10,%esp
   121e4:	5b                   	pop    %ebx
   121e5:	5d                   	pop    %ebp
   121e6:	c3                   	ret    

000121e7 <_kstrlen>:
   121e7:	55                   	push   %ebp
   121e8:	89 e5                	mov    %esp,%ebp
   121ea:	53                   	push   %ebx
   121eb:	8b 55 08             	mov    0x8(%ebp),%edx
   121ee:	bb 00 00 00 00       	mov    $0x0,%ebx
   121f3:	eb 03                	jmp    121f8 <_kstrlen+0x11>
   121f5:	83 c3 01             	add    $0x1,%ebx
   121f8:	89 d0                	mov    %edx,%eax
   121fa:	8d 50 01             	lea    0x1(%eax),%edx
   121fd:	0f b6 00             	movzbl (%eax),%eax
   12200:	84 c0                	test   %al,%al
   12202:	75 f1                	jne    121f5 <_kstrlen+0xe>
   12204:	89 d8                	mov    %ebx,%eax
   12206:	5b                   	pop    %ebx
   12207:	5d                   	pop    %ebp
   12208:	c3                   	ret    

00012209 <_kstrcmp>:
   12209:	55                   	push   %ebp
   1220a:	89 e5                	mov    %esp,%ebp
   1220c:	53                   	push   %ebx
   1220d:	8b 45 08             	mov    0x8(%ebp),%eax
   12210:	8b 55 0c             	mov    0xc(%ebp),%edx
   12213:	eb 06                	jmp    1221b <_kstrcmp+0x12>
   12215:	83 c0 01             	add    $0x1,%eax
   12218:	83 c2 01             	add    $0x1,%edx
   1221b:	0f b6 08             	movzbl (%eax),%ecx
   1221e:	84 c9                	test   %cl,%cl
   12220:	74 0a                	je     1222c <_kstrcmp+0x23>
   12222:	0f b6 18             	movzbl (%eax),%ebx
   12225:	0f b6 0a             	movzbl (%edx),%ecx
   12228:	38 cb                	cmp    %cl,%bl
   1222a:	74 e9                	je     12215 <_kstrcmp+0xc>
   1222c:	0f b6 00             	movzbl (%eax),%eax
   1222f:	0f b6 c8             	movzbl %al,%ecx
   12232:	0f b6 02             	movzbl (%edx),%eax
   12235:	0f b6 c0             	movzbl %al,%eax
   12238:	29 c1                	sub    %eax,%ecx
   1223a:	89 c8                	mov    %ecx,%eax
   1223c:	5b                   	pop    %ebx
   1223d:	5d                   	pop    %ebp
   1223e:	c3                   	ret    

0001223f <_kpanic>:
   1223f:	55                   	push   %ebp
   12240:	89 e5                	mov    %esp,%ebp
   12242:	57                   	push   %edi
   12243:	56                   	push   %esi
   12244:	53                   	push   %ebx
   12245:	83 ec 1c             	sub    $0x1c,%esp
   12248:	83 ec 0c             	sub    $0xc,%esp
   1224b:	68 b9 7b 01 00       	push   $0x17bb9
   12250:	e8 be ed ff ff       	call   11013 <c_puts>
   12255:	83 c4 10             	add    $0x10,%esp
   12258:	83 7d 0c 00          	cmpl   $0x0,0xc(%ebp)
   1225c:	74 05                	je     12263 <_kpanic+0x24>
   1225e:	8b 45 0c             	mov    0xc(%ebp),%eax
   12261:	eb 05                	jmp    12268 <_kpanic+0x29>
   12263:	b8 d6 7b 01 00       	mov    $0x17bd6,%eax
   12268:	83 ec 04             	sub    $0x4,%esp
   1226b:	50                   	push   %eax
   1226c:	ff 75 08             	pushl  0x8(%ebp)
   1226f:	68 dd 7b 01 00       	push   $0x17bdd
   12274:	e8 dc f5 ff ff       	call   11855 <c_printf>
   12279:	83 c4 10             	add    $0x10,%esp
   1227c:	a1 64 cc 01 00       	mov    0x1cc64,%eax
   12281:	83 ec 08             	sub    $0x8,%esp
   12284:	50                   	push   %eax
   12285:	68 f1 7b 01 00       	push   $0x17bf1
   1228a:	e8 ca 07 00 00       	call   12a59 <_pcb_dump>
   1228f:	83 c4 10             	add    $0x10,%esp
   12292:	a1 48 cc 01 00       	mov    0x1cc48,%eax
   12297:	83 ec 0c             	sub    $0xc,%esp
   1229a:	50                   	push   %eax
   1229b:	e8 5a 0d 00 00       	call   12ffa <_q_size>
   122a0:	83 c4 10             	add    $0x10,%esp
   122a3:	83 ec 08             	sub    $0x8,%esp
   122a6:	50                   	push   %eax
   122a7:	68 f9 7b 01 00       	push   $0x17bf9
   122ac:	e8 a4 f5 ff ff       	call   11855 <c_printf>
   122b1:	83 c4 10             	add    $0x10,%esp
   122b4:	a1 44 cc 01 00       	mov    0x1cc44,%eax
   122b9:	83 ec 0c             	sub    $0xc,%esp
   122bc:	50                   	push   %eax
   122bd:	e8 38 0d 00 00       	call   12ffa <_q_size>
   122c2:	83 c4 10             	add    $0x10,%esp
   122c5:	89 c6                	mov    %eax,%esi
   122c7:	a1 68 cc 01 00       	mov    0x1cc68,%eax
   122cc:	83 ec 0c             	sub    $0xc,%esp
   122cf:	50                   	push   %eax
   122d0:	e8 25 0d 00 00       	call   12ffa <_q_size>
   122d5:	83 c4 10             	add    $0x10,%esp
   122d8:	89 c3                	mov    %eax,%ebx
   122da:	a1 4c cc 01 00       	mov    0x1cc4c,%eax
   122df:	83 ec 0c             	sub    $0xc,%esp
   122e2:	50                   	push   %eax
   122e3:	e8 12 0d 00 00       	call   12ffa <_q_size>
   122e8:	83 c4 10             	add    $0x10,%esp
   122eb:	56                   	push   %esi
   122ec:	53                   	push   %ebx
   122ed:	50                   	push   %eax
   122ee:	68 10 7c 01 00       	push   $0x17c10
   122f3:	e8 5d f5 ff ff       	call   11855 <c_printf>
   122f8:	83 c4 10             	add    $0x10,%esp
   122fb:	a1 60 cc 01 00       	mov    0x1cc60,%eax
   12300:	83 ec 0c             	sub    $0xc,%esp
   12303:	50                   	push   %eax
   12304:	e8 f1 0c 00 00       	call   12ffa <_q_size>
   12309:	83 c4 10             	add    $0x10,%esp
   1230c:	89 45 e4             	mov    %eax,-0x1c(%ebp)
   1230f:	a1 5c cc 01 00       	mov    0x1cc5c,%eax
   12314:	83 ec 0c             	sub    $0xc,%esp
   12317:	50                   	push   %eax
   12318:	e8 dd 0c 00 00       	call   12ffa <_q_size>
   1231d:	83 c4 10             	add    $0x10,%esp
   12320:	89 c7                	mov    %eax,%edi
   12322:	a1 58 cc 01 00       	mov    0x1cc58,%eax
   12327:	83 ec 0c             	sub    $0xc,%esp
   1232a:	50                   	push   %eax
   1232b:	e8 ca 0c 00 00       	call   12ffa <_q_size>
   12330:	83 c4 10             	add    $0x10,%esp
   12333:	89 c6                	mov    %eax,%esi
   12335:	a1 54 cc 01 00       	mov    0x1cc54,%eax
   1233a:	83 ec 0c             	sub    $0xc,%esp
   1233d:	50                   	push   %eax
   1233e:	e8 b7 0c 00 00       	call   12ffa <_q_size>
   12343:	83 c4 10             	add    $0x10,%esp
   12346:	89 c3                	mov    %eax,%ebx
   12348:	a1 50 cc 01 00       	mov    0x1cc50,%eax
   1234d:	83 ec 0c             	sub    $0xc,%esp
   12350:	50                   	push   %eax
   12351:	e8 a4 0c 00 00       	call   12ffa <_q_size>
   12356:	83 c4 10             	add    $0x10,%esp
   12359:	83 ec 08             	sub    $0x8,%esp
   1235c:	ff 75 e4             	pushl  -0x1c(%ebp)
   1235f:	57                   	push   %edi
   12360:	56                   	push   %esi
   12361:	53                   	push   %ebx
   12362:	50                   	push   %eax
   12363:	68 2b 7c 01 00       	push   $0x17c2b
   12368:	e8 e8 f4 ff ff       	call   11855 <c_printf>
   1236d:	83 c4 20             	add    $0x20,%esp
   12370:	83 ec 08             	sub    $0x8,%esp
   12373:	6a 00                	push   $0x0
   12375:	68 44 7c 01 00       	push   $0x17c44
   1237a:	e8 f6 08 00 00       	call   12c75 <_active_dump>
   1237f:	83 c4 10             	add    $0x10,%esp
   12382:	83 ec 0c             	sub    $0xc,%esp
   12385:	68 4e 7c 01 00       	push   $0x17c4e
   1238a:	e8 25 fa ff ff       	call   11db4 <__panic>
   1238f:	83 c4 10             	add    $0x10,%esp
   12392:	90                   	nop
   12393:	8d 65 f4             	lea    -0xc(%ebp),%esp
   12396:	5b                   	pop    %ebx
   12397:	5e                   	pop    %esi
   12398:	5f                   	pop    %edi
   12399:	5d                   	pop    %ebp
   1239a:	c3                   	ret    

0001239b <_add_block>:
   1239b:	55                   	push   %ebp
   1239c:	89 e5                	mov    %esp,%ebp
   1239e:	83 ec 18             	sub    $0x18,%esp
   123a1:	8b 45 08             	mov    0x8(%ebp),%eax
   123a4:	89 45 ec             	mov    %eax,-0x14(%ebp)
   123a7:	8b 55 08             	mov    0x8(%ebp),%edx
   123aa:	8b 45 0c             	mov    0xc(%ebp),%eax
   123ad:	01 d0                	add    %edx,%eax
   123af:	89 c2                	mov    %eax,%edx
   123b1:	8b 45 ec             	mov    -0x14(%ebp),%eax
   123b4:	83 c0 04             	add    $0x4,%eax
   123b7:	29 c2                	sub    %eax,%edx
   123b9:	89 d0                	mov    %edx,%eax
   123bb:	c1 f8 02             	sar    $0x2,%eax
   123be:	89 c2                	mov    %eax,%edx
   123c0:	8b 45 ec             	mov    -0x14(%ebp),%eax
   123c3:	89 10                	mov    %edx,(%eax)
   123c5:	8b 45 ec             	mov    -0x14(%ebp),%eax
   123c8:	c7 40 04 00 00 00 00 	movl   $0x0,0x4(%eax)
   123cf:	a1 b4 b6 01 00       	mov    0x1b6b4,%eax
   123d4:	85 c0                	test   %eax,%eax
   123d6:	75 0a                	jne    123e2 <_add_block+0x47>
   123d8:	8b 45 ec             	mov    -0x14(%ebp),%eax
   123db:	a3 b4 b6 01 00       	mov    %eax,0x1b6b4
   123e0:	eb 6b                	jmp    1244d <_add_block+0xb2>
   123e2:	c7 45 f4 00 00 00 00 	movl   $0x0,-0xc(%ebp)
   123e9:	a1 b4 b6 01 00       	mov    0x1b6b4,%eax
   123ee:	89 45 f0             	mov    %eax,-0x10(%ebp)
   123f1:	eb 0f                	jmp    12402 <_add_block+0x67>
   123f3:	8b 45 f0             	mov    -0x10(%ebp),%eax
   123f6:	89 45 f4             	mov    %eax,-0xc(%ebp)
   123f9:	8b 45 f0             	mov    -0x10(%ebp),%eax
   123fc:	8b 40 04             	mov    0x4(%eax),%eax
   123ff:	89 45 f0             	mov    %eax,-0x10(%ebp)
   12402:	83 7d f0 00          	cmpl   $0x0,-0x10(%ebp)
   12406:	74 08                	je     12410 <_add_block+0x75>
   12408:	8b 45 f0             	mov    -0x10(%ebp),%eax
   1240b:	3b 45 ec             	cmp    -0x14(%ebp),%eax
   1240e:	72 e3                	jb     123f3 <_add_block+0x58>
   12410:	8b 45 ec             	mov    -0x14(%ebp),%eax
   12413:	8b 55 f0             	mov    -0x10(%ebp),%edx
   12416:	89 50 04             	mov    %edx,0x4(%eax)
   12419:	83 7d f4 00          	cmpl   $0x0,-0xc(%ebp)
   1241d:	75 25                	jne    12444 <_add_block+0xa9>
   1241f:	83 7d f0 00          	cmpl   $0x0,-0x10(%ebp)
   12423:	75 15                	jne    1243a <_add_block+0x9f>
   12425:	83 ec 08             	sub    $0x8,%esp
   12428:	68 5c 7c 01 00       	push   $0x17c5c
   1242d:	68 77 7c 01 00       	push   $0x17c77
   12432:	e8 08 fe ff ff       	call   1223f <_kpanic>
   12437:	83 c4 10             	add    $0x10,%esp
   1243a:	8b 45 ec             	mov    -0x14(%ebp),%eax
   1243d:	a3 b4 b6 01 00       	mov    %eax,0x1b6b4
   12442:	eb 09                	jmp    1244d <_add_block+0xb2>
   12444:	8b 45 f4             	mov    -0xc(%ebp),%eax
   12447:	8b 55 ec             	mov    -0x14(%ebp),%edx
   1244a:	89 50 04             	mov    %edx,0x4(%eax)
   1244d:	c9                   	leave  
   1244e:	c3                   	ret    

0001244f <_dump_freelist>:
   1244f:	55                   	push   %ebp
   12450:	89 e5                	mov    %esp,%ebp
   12452:	83 ec 18             	sub    $0x18,%esp
   12455:	83 ec 08             	sub    $0x8,%esp
   12458:	68 b4 b6 01 00       	push   $0x1b6b4
   1245d:	68 82 7c 01 00       	push   $0x17c82
   12462:	e8 ee f3 ff ff       	call   11855 <c_printf>
   12467:	83 c4 10             	add    $0x10,%esp
   1246a:	a1 b4 b6 01 00       	mov    0x1b6b4,%eax
   1246f:	89 45 f4             	mov    %eax,-0xc(%ebp)
   12472:	eb 3e                	jmp    124b2 <_dump_freelist+0x63>
   12474:	8b 45 f4             	mov    -0xc(%ebp),%eax
   12477:	8b 50 04             	mov    0x4(%eax),%edx
   1247a:	8b 45 f4             	mov    -0xc(%ebp),%eax
   1247d:	8b 00                	mov    (%eax),%eax
   1247f:	83 c0 01             	add    $0x1,%eax
   12482:	8d 0c 85 00 00 00 00 	lea    0x0(,%eax,4),%ecx
   12489:	8b 45 f4             	mov    -0xc(%ebp),%eax
   1248c:	01 c1                	add    %eax,%ecx
   1248e:	8b 45 f4             	mov    -0xc(%ebp),%eax
   12491:	8b 00                	mov    (%eax),%eax
   12493:	83 ec 0c             	sub    $0xc,%esp
   12496:	52                   	push   %edx
   12497:	51                   	push   %ecx
   12498:	50                   	push   %eax
   12499:	ff 75 f4             	pushl  -0xc(%ebp)
   1249c:	68 94 7c 01 00       	push   $0x17c94
   124a1:	e8 af f3 ff ff       	call   11855 <c_printf>
   124a6:	83 c4 20             	add    $0x20,%esp
   124a9:	8b 45 f4             	mov    -0xc(%ebp),%eax
   124ac:	8b 40 04             	mov    0x4(%eax),%eax
   124af:	89 45 f4             	mov    %eax,-0xc(%ebp)
   124b2:	83 7d f4 00          	cmpl   $0x0,-0xc(%ebp)
   124b6:	75 bc                	jne    12474 <_dump_freelist+0x25>
   124b8:	90                   	nop
   124b9:	c9                   	leave  
   124ba:	c3                   	ret    

000124bb <_kmalloc>:
   124bb:	55                   	push   %ebp
   124bc:	89 e5                	mov    %esp,%ebp
   124be:	83 ec 10             	sub    $0x10,%esp
   124c1:	83 45 08 03          	addl   $0x3,0x8(%ebp)
   124c5:	c1 6d 08 02          	shrl   $0x2,0x8(%ebp)
   124c9:	c7 45 f8 b4 b6 01 00 	movl   $0x1b6b4,-0x8(%ebp)
   124d0:	a1 b4 b6 01 00       	mov    0x1b6b4,%eax
   124d5:	89 45 fc             	mov    %eax,-0x4(%ebp)
   124d8:	eb 11                	jmp    124eb <_kmalloc+0x30>
   124da:	8b 45 fc             	mov    -0x4(%ebp),%eax
   124dd:	83 c0 04             	add    $0x4,%eax
   124e0:	89 45 f8             	mov    %eax,-0x8(%ebp)
   124e3:	8b 45 f8             	mov    -0x8(%ebp),%eax
   124e6:	8b 00                	mov    (%eax),%eax
   124e8:	89 45 fc             	mov    %eax,-0x4(%ebp)
   124eb:	83 7d fc 00          	cmpl   $0x0,-0x4(%ebp)
   124ef:	74 0a                	je     124fb <_kmalloc+0x40>
   124f1:	8b 45 fc             	mov    -0x4(%ebp),%eax
   124f4:	8b 00                	mov    (%eax),%eax
   124f6:	3b 45 08             	cmp    0x8(%ebp),%eax
   124f9:	72 df                	jb     124da <_kmalloc+0x1f>
   124fb:	83 7d fc 00          	cmpl   $0x0,-0x4(%ebp)
   124ff:	75 07                	jne    12508 <_kmalloc+0x4d>
   12501:	b8 00 00 00 00       	mov    $0x0,%eax
   12506:	eb 62                	jmp    1256a <_kmalloc+0xaf>
   12508:	8b 45 fc             	mov    -0x4(%ebp),%eax
   1250b:	8b 00                	mov    (%eax),%eax
   1250d:	8b 55 08             	mov    0x8(%ebp),%edx
   12510:	83 c2 02             	add    $0x2,%edx
   12513:	39 d0                	cmp    %edx,%eax
   12515:	76 42                	jbe    12559 <_kmalloc+0x9e>
   12517:	8b 45 08             	mov    0x8(%ebp),%eax
   1251a:	83 c0 01             	add    $0x1,%eax
   1251d:	89 45 f4             	mov    %eax,-0xc(%ebp)
   12520:	8b 45 fc             	mov    -0x4(%ebp),%eax
   12523:	8d 48 04             	lea    0x4(%eax),%ecx
   12526:	8b 45 fc             	mov    -0x4(%ebp),%eax
   12529:	8b 10                	mov    (%eax),%edx
   1252b:	8b 45 f4             	mov    -0xc(%ebp),%eax
   1252e:	29 c2                	sub    %eax,%edx
   12530:	89 d0                	mov    %edx,%eax
   12532:	c1 e0 02             	shl    $0x2,%eax
   12535:	01 c8                	add    %ecx,%eax
   12537:	89 45 f0             	mov    %eax,-0x10(%ebp)
   1253a:	8b 45 f0             	mov    -0x10(%ebp),%eax
   1253d:	8b 55 08             	mov    0x8(%ebp),%edx
   12540:	89 10                	mov    %edx,(%eax)
   12542:	8b 45 fc             	mov    -0x4(%ebp),%eax
   12545:	8b 10                	mov    (%eax),%edx
   12547:	8b 45 f4             	mov    -0xc(%ebp),%eax
   1254a:	29 c2                	sub    %eax,%edx
   1254c:	8b 45 fc             	mov    -0x4(%ebp),%eax
   1254f:	89 10                	mov    %edx,(%eax)
   12551:	8b 45 f0             	mov    -0x10(%ebp),%eax
   12554:	89 45 fc             	mov    %eax,-0x4(%ebp)
   12557:	eb 0b                	jmp    12564 <_kmalloc+0xa9>
   12559:	8b 45 fc             	mov    -0x4(%ebp),%eax
   1255c:	8b 50 04             	mov    0x4(%eax),%edx
   1255f:	8b 45 f8             	mov    -0x8(%ebp),%eax
   12562:	89 10                	mov    %edx,(%eax)
   12564:	8b 45 fc             	mov    -0x4(%ebp),%eax
   12567:	83 c0 04             	add    $0x4,%eax
   1256a:	c9                   	leave  
   1256b:	c3                   	ret    

0001256c <_kfree>:
   1256c:	55                   	push   %ebp
   1256d:	89 e5                	mov    %esp,%ebp
   1256f:	83 ec 10             	sub    $0x10,%esp
   12572:	83 7d 08 00          	cmpl   $0x0,0x8(%ebp)
   12576:	0f 84 d6 00 00 00    	je     12652 <_kfree+0xe6>
   1257c:	8b 45 08             	mov    0x8(%ebp),%eax
   1257f:	83 e8 04             	sub    $0x4,%eax
   12582:	89 45 fc             	mov    %eax,-0x4(%ebp)
   12585:	a1 b4 b6 01 00       	mov    0x1b6b4,%eax
   1258a:	89 45 f8             	mov    %eax,-0x8(%ebp)
   1258d:	c7 45 f4 00 00 00 00 	movl   $0x0,-0xc(%ebp)
   12594:	eb 0f                	jmp    125a5 <_kfree+0x39>
   12596:	8b 45 f8             	mov    -0x8(%ebp),%eax
   12599:	89 45 f4             	mov    %eax,-0xc(%ebp)
   1259c:	8b 45 f8             	mov    -0x8(%ebp),%eax
   1259f:	8b 40 04             	mov    0x4(%eax),%eax
   125a2:	89 45 f8             	mov    %eax,-0x8(%ebp)
   125a5:	83 7d f8 00          	cmpl   $0x0,-0x8(%ebp)
   125a9:	74 08                	je     125b3 <_kfree+0x47>
   125ab:	8b 45 f8             	mov    -0x8(%ebp),%eax
   125ae:	3b 45 fc             	cmp    -0x4(%ebp),%eax
   125b1:	72 e3                	jb     12596 <_kfree+0x2a>
   125b3:	83 7d f4 00          	cmpl   $0x0,-0xc(%ebp)
   125b7:	74 48                	je     12601 <_kfree+0x95>
   125b9:	8b 45 f4             	mov    -0xc(%ebp),%eax
   125bc:	8d 50 04             	lea    0x4(%eax),%edx
   125bf:	8b 45 f4             	mov    -0xc(%ebp),%eax
   125c2:	8b 00                	mov    (%eax),%eax
   125c4:	c1 e0 02             	shl    $0x2,%eax
   125c7:	01 d0                	add    %edx,%eax
   125c9:	3b 45 fc             	cmp    -0x4(%ebp),%eax
   125cc:	75 1c                	jne    125ea <_kfree+0x7e>
   125ce:	8b 45 f4             	mov    -0xc(%ebp),%eax
   125d1:	8b 10                	mov    (%eax),%edx
   125d3:	8b 45 fc             	mov    -0x4(%ebp),%eax
   125d6:	8b 00                	mov    (%eax),%eax
   125d8:	01 d0                	add    %edx,%eax
   125da:	8d 50 01             	lea    0x1(%eax),%edx
   125dd:	8b 45 f4             	mov    -0xc(%ebp),%eax
   125e0:	89 10                	mov    %edx,(%eax)
   125e2:	8b 45 f4             	mov    -0xc(%ebp),%eax
   125e5:	89 45 fc             	mov    %eax,-0x4(%ebp)
   125e8:	eb 2b                	jmp    12615 <_kfree+0xa9>
   125ea:	8b 45 f4             	mov    -0xc(%ebp),%eax
   125ed:	8b 50 04             	mov    0x4(%eax),%edx
   125f0:	8b 45 fc             	mov    -0x4(%ebp),%eax
   125f3:	89 50 04             	mov    %edx,0x4(%eax)
   125f6:	8b 45 f4             	mov    -0xc(%ebp),%eax
   125f9:	8b 55 fc             	mov    -0x4(%ebp),%edx
   125fc:	89 50 04             	mov    %edx,0x4(%eax)
   125ff:	eb 14                	jmp    12615 <_kfree+0xa9>
   12601:	8b 15 b4 b6 01 00    	mov    0x1b6b4,%edx
   12607:	8b 45 fc             	mov    -0x4(%ebp),%eax
   1260a:	89 50 04             	mov    %edx,0x4(%eax)
   1260d:	8b 45 fc             	mov    -0x4(%ebp),%eax
   12610:	a3 b4 b6 01 00       	mov    %eax,0x1b6b4
   12615:	83 7d f8 00          	cmpl   $0x0,-0x8(%ebp)
   12619:	74 38                	je     12653 <_kfree+0xe7>
   1261b:	8b 45 fc             	mov    -0x4(%ebp),%eax
   1261e:	8d 50 04             	lea    0x4(%eax),%edx
   12621:	8b 45 fc             	mov    -0x4(%ebp),%eax
   12624:	8b 00                	mov    (%eax),%eax
   12626:	c1 e0 02             	shl    $0x2,%eax
   12629:	01 d0                	add    %edx,%eax
   1262b:	3b 45 f8             	cmp    -0x8(%ebp),%eax
   1262e:	75 23                	jne    12653 <_kfree+0xe7>
   12630:	8b 45 f8             	mov    -0x8(%ebp),%eax
   12633:	8b 50 04             	mov    0x4(%eax),%edx
   12636:	8b 45 fc             	mov    -0x4(%ebp),%eax
   12639:	89 50 04             	mov    %edx,0x4(%eax)
   1263c:	8b 45 fc             	mov    -0x4(%ebp),%eax
   1263f:	8b 10                	mov    (%eax),%edx
   12641:	8b 45 f8             	mov    -0x8(%ebp),%eax
   12644:	8b 00                	mov    (%eax),%eax
   12646:	01 d0                	add    %edx,%eax
   12648:	8d 50 01             	lea    0x1(%eax),%edx
   1264b:	8b 45 fc             	mov    -0x4(%ebp),%eax
   1264e:	89 10                	mov    %edx,(%eax)
   12650:	eb 01                	jmp    12653 <_kfree+0xe7>
   12652:	90                   	nop
   12653:	c9                   	leave  
   12654:	c3                   	ret    

00012655 <_km_init>:
   12655:	55                   	push   %ebp
   12656:	89 e5                	mov    %esp,%ebp
   12658:	83 ec 38             	sub    $0x38,%esp
   1265b:	c7 05 b4 b6 01 00 00 	movl   $0x0,0x1b6b4
   12662:	00 00 00 
   12665:	b9 88 dc 01 00       	mov    $0x1dc88,%ecx
   1266a:	89 4d e8             	mov    %ecx,-0x18(%ebp)
   1266d:	c7 45 ec 00 00 00 00 	movl   $0x0,-0x14(%ebp)
   12674:	8b 4d e8             	mov    -0x18(%ebp),%ecx
   12677:	0f b7 c1             	movzwl %cx,%eax
   1267a:	8b 4d ec             	mov    -0x14(%ebp),%ecx
   1267d:	83 e1 00             	and    $0x0,%ecx
   12680:	89 ca                	mov    %ecx,%edx
   12682:	09 d0                	or     %edx,%eax
   12684:	85 c0                	test   %eax,%eax
   12686:	74 16                	je     1269e <_km_init+0x49>
   12688:	81 65 e8 00 00 ff ff 	andl   $0xffff0000,-0x18(%ebp)
   1268f:	83 65 ec 00          	andl   $0x0,-0x14(%ebp)
   12693:	81 45 e8 00 00 01 00 	addl   $0x10000,-0x18(%ebp)
   1269a:	83 55 ec 00          	adcl   $0x0,-0x14(%ebp)
   1269e:	b8 00 2d 00 00       	mov    $0x2d00,%eax
   126a3:	8b 00                	mov    (%eax),%eax
   126a5:	89 45 d8             	mov    %eax,-0x28(%ebp)
   126a8:	83 7d d8 00          	cmpl   $0x0,-0x28(%ebp)
   126ac:	0f 8e e3 00 00 00    	jle    12795 <_km_init+0x140>
   126b2:	c7 45 f4 04 2d 00 00 	movl   $0x2d04,-0xc(%ebp)
   126b9:	c7 45 e4 00 00 00 00 	movl   $0x0,-0x1c(%ebp)
   126c0:	e9 b2 00 00 00       	jmp    12777 <_km_init+0x122>
   126c5:	8b 45 f4             	mov    -0xc(%ebp),%eax
   126c8:	8b 40 14             	mov    0x14(%eax),%eax
   126cb:	83 e0 01             	and    $0x1,%eax
   126ce:	85 c0                	test   %eax,%eax
   126d0:	0f 84 8f 00 00 00    	je     12765 <_km_init+0x110>
   126d6:	8b 45 f4             	mov    -0xc(%ebp),%eax
   126d9:	8b 40 10             	mov    0x10(%eax),%eax
   126dc:	83 f8 01             	cmp    $0x1,%eax
   126df:	0f 85 83 00 00 00    	jne    12768 <_km_init+0x113>
   126e5:	8b 45 f4             	mov    -0xc(%ebp),%eax
   126e8:	8b 40 04             	mov    0x4(%eax),%eax
   126eb:	85 c0                	test   %eax,%eax
   126ed:	75 7c                	jne    1276b <_km_init+0x116>
   126ef:	8b 45 f4             	mov    -0xc(%ebp),%eax
   126f2:	8b 40 0c             	mov    0xc(%eax),%eax
   126f5:	85 c0                	test   %eax,%eax
   126f7:	75 72                	jne    1276b <_km_init+0x116>
   126f9:	8b 45 f4             	mov    -0xc(%ebp),%eax
   126fc:	8b 00                	mov    (%eax),%eax
   126fe:	89 45 e0             	mov    %eax,-0x20(%ebp)
   12701:	8b 45 f4             	mov    -0xc(%ebp),%eax
   12704:	8b 40 08             	mov    0x8(%eax),%eax
   12707:	89 45 dc             	mov    %eax,-0x24(%ebp)
   1270a:	8b 45 e0             	mov    -0x20(%ebp),%eax
   1270d:	ba 00 00 00 00       	mov    $0x0,%edx
   12712:	3b 55 ec             	cmp    -0x14(%ebp),%edx
   12715:	77 3b                	ja     12752 <_km_init+0xfd>
   12717:	3b 55 ec             	cmp    -0x14(%ebp),%edx
   1271a:	72 05                	jb     12721 <_km_init+0xcc>
   1271c:	3b 45 e8             	cmp    -0x18(%ebp),%eax
   1271f:	73 31                	jae    12752 <_km_init+0xfd>
   12721:	8b 55 e0             	mov    -0x20(%ebp),%edx
   12724:	8b 45 dc             	mov    -0x24(%ebp),%eax
   12727:	01 d0                	add    %edx,%eax
   12729:	ba 00 00 00 00       	mov    $0x0,%edx
   1272e:	3b 55 ec             	cmp    -0x14(%ebp),%edx
   12731:	77 0a                	ja     1273d <_km_init+0xe8>
   12733:	3b 55 ec             	cmp    -0x14(%ebp),%edx
   12736:	72 36                	jb     1276e <_km_init+0x119>
   12738:	3b 45 e8             	cmp    -0x18(%ebp),%eax
   1273b:	72 31                	jb     1276e <_km_init+0x119>
   1273d:	8b 45 e8             	mov    -0x18(%ebp),%eax
   12740:	2b 45 e0             	sub    -0x20(%ebp),%eax
   12743:	89 45 d4             	mov    %eax,-0x2c(%ebp)
   12746:	8b 45 d4             	mov    -0x2c(%ebp),%eax
   12749:	29 45 dc             	sub    %eax,-0x24(%ebp)
   1274c:	8b 45 e8             	mov    -0x18(%ebp),%eax
   1274f:	89 45 e0             	mov    %eax,-0x20(%ebp)
   12752:	83 ec 08             	sub    $0x8,%esp
   12755:	ff 75 dc             	pushl  -0x24(%ebp)
   12758:	ff 75 e0             	pushl  -0x20(%ebp)
   1275b:	e8 3b fc ff ff       	call   1239b <_add_block>
   12760:	83 c4 10             	add    $0x10,%esp
   12763:	eb 0a                	jmp    1276f <_km_init+0x11a>
   12765:	90                   	nop
   12766:	eb 07                	jmp    1276f <_km_init+0x11a>
   12768:	90                   	nop
   12769:	eb 04                	jmp    1276f <_km_init+0x11a>
   1276b:	90                   	nop
   1276c:	eb 01                	jmp    1276f <_km_init+0x11a>
   1276e:	90                   	nop
   1276f:	83 45 e4 01          	addl   $0x1,-0x1c(%ebp)
   12773:	83 45 f4 18          	addl   $0x18,-0xc(%ebp)
   12777:	8b 45 e4             	mov    -0x1c(%ebp),%eax
   1277a:	3b 45 d8             	cmp    -0x28(%ebp),%eax
   1277d:	0f 8c 42 ff ff ff    	jl     126c5 <_km_init+0x70>
   12783:	83 ec 0c             	sub    $0xc,%esp
   12786:	68 c5 7c 01 00       	push   $0x17cc5
   1278b:	e8 83 e8 ff ff       	call   11013 <c_puts>
   12790:	83 c4 10             	add    $0x10,%esp
   12793:	eb 01                	jmp    12796 <_km_init+0x141>
   12795:	90                   	nop
   12796:	c9                   	leave  
   12797:	c3                   	ret    

00012798 <_pcb_init>:
   12798:	55                   	push   %ebp
   12799:	89 e5                	mov    %esp,%ebp
   1279b:	83 ec 18             	sub    $0x18,%esp
   1279e:	83 ec 0c             	sub    $0xc,%esp
   127a1:	68 cc 7c 01 00       	push   $0x17ccc
   127a6:	e8 68 e8 ff ff       	call   11013 <c_puts>
   127ab:	83 c4 10             	add    $0x10,%esp
   127ae:	66 c7 05 c8 cb 01 00 	movw   $0x64,0x1cbc8
   127b5:	64 00 
   127b7:	83 ec 0c             	sub    $0xc,%esp
   127ba:	6a 00                	push   $0x0
   127bc:	e8 30 07 00 00       	call   12ef1 <_q_alloc>
   127c1:	83 c4 10             	add    $0x10,%esp
   127c4:	a3 cc cb 01 00       	mov    %eax,0x1cbcc
   127c9:	a1 cc cb 01 00       	mov    0x1cbcc,%eax
   127ce:	85 c0                	test   %eax,%eax
   127d0:	75 15                	jne    127e7 <_pcb_init+0x4f>
   127d2:	83 ec 08             	sub    $0x8,%esp
   127d5:	68 d1 7c 01 00       	push   $0x17cd1
   127da:	68 e7 7c 01 00       	push   $0x17ce7
   127df:	e8 5b fa ff ff       	call   1223f <_kpanic>
   127e4:	83 c4 10             	add    $0x10,%esp
   127e7:	c7 45 f4 00 00 00 00 	movl   $0x0,-0xc(%ebp)
   127ee:	eb 12                	jmp    12802 <_pcb_init+0x6a>
   127f0:	8b 45 f4             	mov    -0xc(%ebp),%eax
   127f3:	c7 04 85 e0 cb 01 00 	movl   $0x0,0x1cbe0(,%eax,4)
   127fa:	00 00 00 00 
   127fe:	83 45 f4 01          	addl   $0x1,-0xc(%ebp)
   12802:	83 7d f4 18          	cmpl   $0x18,-0xc(%ebp)
   12806:	7e e8                	jle    127f0 <_pcb_init+0x58>
   12808:	c7 05 c0 cb 01 00 00 	movl   $0x0,0x1cbc0
   1280f:	00 00 00 
   12812:	90                   	nop
   12813:	c9                   	leave  
   12814:	c3                   	ret    

00012815 <_pcb_prune>:
   12815:	55                   	push   %ebp
   12816:	89 e5                	mov    %esp,%ebp
   12818:	83 ec 18             	sub    $0x18,%esp
   1281b:	c7 45 f4 00 00 00 00 	movl   $0x0,-0xc(%ebp)
   12822:	eb 26                	jmp    1284a <_pcb_prune+0x35>
   12824:	83 45 f4 01          	addl   $0x1,-0xc(%ebp)
   12828:	a1 cc cb 01 00       	mov    0x1cbcc,%eax
   1282d:	83 ec 0c             	sub    $0xc,%esp
   12830:	50                   	push   %eax
   12831:	e8 4f 09 00 00       	call   13185 <_q_remove>
   12836:	83 c4 10             	add    $0x10,%esp
   12839:	89 45 f0             	mov    %eax,-0x10(%ebp)
   1283c:	83 ec 0c             	sub    $0xc,%esp
   1283f:	ff 75 f0             	pushl  -0x10(%ebp)
   12842:	e8 25 fd ff ff       	call   1256c <_kfree>
   12847:	83 c4 10             	add    $0x10,%esp
   1284a:	a1 cc cb 01 00       	mov    0x1cbcc,%eax
   1284f:	83 ec 0c             	sub    $0xc,%esp
   12852:	50                   	push   %eax
   12853:	e8 a2 07 00 00       	call   12ffa <_q_size>
   12858:	83 c4 10             	add    $0x10,%esp
   1285b:	85 c0                	test   %eax,%eax
   1285d:	75 c5                	jne    12824 <_pcb_prune+0xf>
   1285f:	8b 45 f4             	mov    -0xc(%ebp),%eax
   12862:	c1 e0 02             	shl    $0x2,%eax
   12865:	8d 14 c5 00 00 00 00 	lea    0x0(,%eax,8),%edx
   1286c:	29 c2                	sub    %eax,%edx
   1286e:	89 d0                	mov    %edx,%eax
   12870:	c9                   	leave  
   12871:	c3                   	ret    

00012872 <_pcb_alloc>:
   12872:	55                   	push   %ebp
   12873:	89 e5                	mov    %esp,%ebp
   12875:	83 ec 18             	sub    $0x18,%esp
   12878:	a1 cc cb 01 00       	mov    0x1cbcc,%eax
   1287d:	83 ec 0c             	sub    $0xc,%esp
   12880:	50                   	push   %eax
   12881:	e8 74 07 00 00       	call   12ffa <_q_size>
   12886:	83 c4 10             	add    $0x10,%esp
   12889:	85 c0                	test   %eax,%eax
   1288b:	74 17                	je     128a4 <_pcb_alloc+0x32>
   1288d:	a1 cc cb 01 00       	mov    0x1cbcc,%eax
   12892:	83 ec 0c             	sub    $0xc,%esp
   12895:	50                   	push   %eax
   12896:	e8 ea 08 00 00       	call   13185 <_q_remove>
   1289b:	83 c4 10             	add    $0x10,%esp
   1289e:	89 45 f4             	mov    %eax,-0xc(%ebp)
   128a1:	eb 11                	jmp    128b4 <_pcb_alloc+0x42>
   128a3:	90                   	nop
   128a4:	83 ec 0c             	sub    $0xc,%esp
   128a7:	6a 1c                	push   $0x1c
   128a9:	e8 0d fc ff ff       	call   124bb <_kmalloc>
   128ae:	83 c4 10             	add    $0x10,%esp
   128b1:	89 45 f4             	mov    %eax,-0xc(%ebp)
   128b4:	83 7d f4 00          	cmpl   $0x0,-0xc(%ebp)
   128b8:	75 20                	jne    128da <_pcb_alloc+0x68>
   128ba:	e8 61 2a 00 00       	call   15320 <_prune>
   128bf:	85 c0                	test   %eax,%eax
   128c1:	75 e0                	jne    128a3 <_pcb_alloc+0x31>
   128c3:	83 ec 08             	sub    $0x8,%esp
   128c6:	68 f1 7c 01 00       	push   $0x17cf1
   128cb:	68 fe 7c 01 00       	push   $0x17cfe
   128d0:	e8 6a f9 ff ff       	call   1223f <_kpanic>
   128d5:	83 c4 10             	add    $0x10,%esp
   128d8:	eb c9                	jmp    128a3 <_pcb_alloc+0x31>
   128da:	83 ec 08             	sub    $0x8,%esp
   128dd:	6a 1c                	push   $0x1c
   128df:	ff 75 f4             	pushl  -0xc(%ebp)
   128e2:	e8 84 f8 ff ff       	call   1216b <_kmemclr>
   128e7:	83 c4 10             	add    $0x10,%esp
   128ea:	8b 45 f4             	mov    -0xc(%ebp),%eax
   128ed:	c6 40 16 01          	movb   $0x1,0x16(%eax)
   128f1:	8b 45 f4             	mov    -0xc(%ebp),%eax
   128f4:	c9                   	leave  
   128f5:	c3                   	ret    

000128f6 <_pcb_free>:
   128f6:	55                   	push   %ebp
   128f7:	89 e5                	mov    %esp,%ebp
   128f9:	83 ec 08             	sub    $0x8,%esp
   128fc:	83 7d 08 00          	cmpl   $0x0,0x8(%ebp)
   12900:	75 15                	jne    12917 <_pcb_free+0x21>
   12902:	83 ec 08             	sub    $0x8,%esp
   12905:	68 09 7d 01 00       	push   $0x17d09
   1290a:	68 17 7d 01 00       	push   $0x17d17
   1290f:	e8 2b f9 ff ff       	call   1223f <_kpanic>
   12914:	83 c4 10             	add    $0x10,%esp
   12917:	8b 45 08             	mov    0x8(%ebp),%eax
   1291a:	c6 40 16 00          	movb   $0x0,0x16(%eax)
   1291e:	8b 45 08             	mov    0x8(%ebp),%eax
   12921:	66 c7 40 10 ff ff    	movw   $0xffff,0x10(%eax)
   12927:	8b 45 08             	mov    0x8(%ebp),%eax
   1292a:	66 c7 40 12 ff ff    	movw   $0xffff,0x12(%eax)
   12930:	a1 cc cb 01 00       	mov    0x1cbcc,%eax
   12935:	83 ec 08             	sub    $0x8,%esp
   12938:	ff 75 08             	pushl  0x8(%ebp)
   1293b:	50                   	push   %eax
   1293c:	e8 c4 06 00 00       	call   13005 <_q_insert>
   12941:	83 c4 10             	add    $0x10,%esp
   12944:	90                   	nop
   12945:	c9                   	leave  
   12946:	c3                   	ret    

00012947 <_pcb_find>:
   12947:	55                   	push   %ebp
   12948:	89 e5                	mov    %esp,%ebp
   1294a:	83 ec 14             	sub    $0x14,%esp
   1294d:	8b 45 08             	mov    0x8(%ebp),%eax
   12950:	66 89 45 ec          	mov    %ax,-0x14(%ebp)
   12954:	c7 45 fc 00 00 00 00 	movl   $0x0,-0x4(%ebp)
   1295b:	eb 32                	jmp    1298f <_pcb_find+0x48>
   1295d:	8b 45 fc             	mov    -0x4(%ebp),%eax
   12960:	8b 04 85 e0 cb 01 00 	mov    0x1cbe0(,%eax,4),%eax
   12967:	85 c0                	test   %eax,%eax
   12969:	74 20                	je     1298b <_pcb_find+0x44>
   1296b:	8b 45 fc             	mov    -0x4(%ebp),%eax
   1296e:	8b 04 85 e0 cb 01 00 	mov    0x1cbe0(,%eax,4),%eax
   12975:	0f b7 40 10          	movzwl 0x10(%eax),%eax
   12979:	66 3b 45 ec          	cmp    -0x14(%ebp),%ax
   1297d:	75 0c                	jne    1298b <_pcb_find+0x44>
   1297f:	8b 45 fc             	mov    -0x4(%ebp),%eax
   12982:	8b 04 85 e0 cb 01 00 	mov    0x1cbe0(,%eax,4),%eax
   12989:	eb 0f                	jmp    1299a <_pcb_find+0x53>
   1298b:	83 45 fc 01          	addl   $0x1,-0x4(%ebp)
   1298f:	83 7d fc 18          	cmpl   $0x18,-0x4(%ebp)
   12993:	7e c8                	jle    1295d <_pcb_find+0x16>
   12995:	b8 00 00 00 00       	mov    $0x0,%eax
   1299a:	c9                   	leave  
   1299b:	c3                   	ret    

0001299c <_pcb_find_parent>:
   1299c:	55                   	push   %ebp
   1299d:	89 e5                	mov    %esp,%ebp
   1299f:	83 ec 14             	sub    $0x14,%esp
   129a2:	8b 45 08             	mov    0x8(%ebp),%eax
   129a5:	66 89 45 ec          	mov    %ax,-0x14(%ebp)
   129a9:	c7 45 fc 00 00 00 00 	movl   $0x0,-0x4(%ebp)
   129b0:	eb 32                	jmp    129e4 <_pcb_find_parent+0x48>
   129b2:	8b 45 fc             	mov    -0x4(%ebp),%eax
   129b5:	8b 04 85 e0 cb 01 00 	mov    0x1cbe0(,%eax,4),%eax
   129bc:	85 c0                	test   %eax,%eax
   129be:	74 20                	je     129e0 <_pcb_find_parent+0x44>
   129c0:	8b 45 fc             	mov    -0x4(%ebp),%eax
   129c3:	8b 04 85 e0 cb 01 00 	mov    0x1cbe0(,%eax,4),%eax
   129ca:	0f b7 40 12          	movzwl 0x12(%eax),%eax
   129ce:	66 3b 45 ec          	cmp    -0x14(%ebp),%ax
   129d2:	75 0c                	jne    129e0 <_pcb_find_parent+0x44>
   129d4:	8b 45 fc             	mov    -0x4(%ebp),%eax
   129d7:	8b 04 85 e0 cb 01 00 	mov    0x1cbe0(,%eax,4),%eax
   129de:	eb 0f                	jmp    129ef <_pcb_find_parent+0x53>
   129e0:	83 45 fc 01          	addl   $0x1,-0x4(%ebp)
   129e4:	83 7d fc 18          	cmpl   $0x18,-0x4(%ebp)
   129e8:	7e c8                	jle    129b2 <_pcb_find_parent+0x16>
   129ea:	b8 00 00 00 00       	mov    $0x0,%eax
   129ef:	c9                   	leave  
   129f0:	c3                   	ret    

000129f1 <_pcb_cleanup>:
   129f1:	55                   	push   %ebp
   129f2:	89 e5                	mov    %esp,%ebp
   129f4:	83 ec 18             	sub    $0x18,%esp
   129f7:	8b 45 08             	mov    0x8(%ebp),%eax
   129fa:	8b 40 04             	mov    0x4(%eax),%eax
   129fd:	83 ec 0c             	sub    $0xc,%esp
   12a00:	50                   	push   %eax
   12a01:	e8 32 16 00 00       	call   14038 <_stk_free>
   12a06:	83 c4 10             	add    $0x10,%esp
   12a09:	c7 45 f4 00 00 00 00 	movl   $0x0,-0xc(%ebp)
   12a10:	eb 23                	jmp    12a35 <_pcb_cleanup+0x44>
   12a12:	8b 45 f4             	mov    -0xc(%ebp),%eax
   12a15:	8b 04 85 e0 cb 01 00 	mov    0x1cbe0(,%eax,4),%eax
   12a1c:	3b 45 08             	cmp    0x8(%ebp),%eax
   12a1f:	75 10                	jne    12a31 <_pcb_cleanup+0x40>
   12a21:	8b 45 f4             	mov    -0xc(%ebp),%eax
   12a24:	c7 04 85 e0 cb 01 00 	movl   $0x0,0x1cbe0(,%eax,4)
   12a2b:	00 00 00 00 
   12a2f:	eb 0a                	jmp    12a3b <_pcb_cleanup+0x4a>
   12a31:	83 45 f4 01          	addl   $0x1,-0xc(%ebp)
   12a35:	83 7d f4 18          	cmpl   $0x18,-0xc(%ebp)
   12a39:	7e d7                	jle    12a12 <_pcb_cleanup+0x21>
   12a3b:	a1 c0 cb 01 00       	mov    0x1cbc0,%eax
   12a40:	83 e8 01             	sub    $0x1,%eax
   12a43:	a3 c0 cb 01 00       	mov    %eax,0x1cbc0
   12a48:	83 ec 0c             	sub    $0xc,%esp
   12a4b:	ff 75 08             	pushl  0x8(%ebp)
   12a4e:	e8 a3 fe ff ff       	call   128f6 <_pcb_free>
   12a53:	83 c4 10             	add    $0x10,%esp
   12a56:	90                   	nop
   12a57:	c9                   	leave  
   12a58:	c3                   	ret    

00012a59 <_pcb_dump>:
   12a59:	55                   	push   %ebp
   12a5a:	89 e5                	mov    %esp,%ebp
   12a5c:	83 ec 08             	sub    $0x8,%esp
   12a5f:	8b 45 0c             	mov    0xc(%ebp),%eax
   12a62:	83 ec 04             	sub    $0x4,%esp
   12a65:	50                   	push   %eax
   12a66:	ff 75 08             	pushl  0x8(%ebp)
   12a69:	68 21 7d 01 00       	push   $0x17d21
   12a6e:	e8 e2 ed ff ff       	call   11855 <c_printf>
   12a73:	83 c4 10             	add    $0x10,%esp
   12a76:	83 7d 0c 00          	cmpl   $0x0,0xc(%ebp)
   12a7a:	75 15                	jne    12a91 <_pcb_dump+0x38>
   12a7c:	83 ec 0c             	sub    $0xc,%esp
   12a7f:	68 2d 7d 01 00       	push   $0x17d2d
   12a84:	e8 8a e5 ff ff       	call   11013 <c_puts>
   12a89:	83 c4 10             	add    $0x10,%esp
   12a8c:	e9 d7 00 00 00       	jmp    12b68 <_pcb_dump+0x10f>
   12a91:	8b 45 0c             	mov    0xc(%ebp),%eax
   12a94:	0f b7 40 12          	movzwl 0x12(%eax),%eax
   12a98:	0f b7 d0             	movzwl %ax,%edx
   12a9b:	8b 45 0c             	mov    0xc(%ebp),%eax
   12a9e:	0f b7 40 10          	movzwl 0x10(%eax),%eax
   12aa2:	0f b7 c0             	movzwl %ax,%eax
   12aa5:	83 ec 04             	sub    $0x4,%esp
   12aa8:	52                   	push   %edx
   12aa9:	50                   	push   %eax
   12aaa:	68 37 7d 01 00       	push   $0x17d37
   12aaf:	e8 a1 ed ff ff       	call   11855 <c_printf>
   12ab4:	83 c4 10             	add    $0x10,%esp
   12ab7:	8b 45 0c             	mov    0xc(%ebp),%eax
   12aba:	0f b6 40 16          	movzbl 0x16(%eax),%eax
   12abe:	3c 08                	cmp    $0x8,%al
   12ac0:	77 20                	ja     12ae2 <_pcb_dump+0x89>
   12ac2:	8b 45 0c             	mov    0xc(%ebp),%eax
   12ac5:	0f b6 40 16          	movzbl 0x16(%eax),%eax
   12ac9:	0f b6 c0             	movzbl %al,%eax
   12acc:	c1 e0 02             	shl    $0x2,%eax
   12acf:	05 a0 b5 01 00       	add    $0x1b5a0,%eax
   12ad4:	83 ec 0c             	sub    $0xc,%esp
   12ad7:	50                   	push   %eax
   12ad8:	e8 36 e5 ff ff       	call   11013 <c_puts>
   12add:	83 c4 10             	add    $0x10,%esp
   12ae0:	eb 1b                	jmp    12afd <_pcb_dump+0xa4>
   12ae2:	8b 45 0c             	mov    0xc(%ebp),%eax
   12ae5:	0f b6 40 16          	movzbl 0x16(%eax),%eax
   12ae9:	0f b6 c0             	movzbl %al,%eax
   12aec:	83 ec 08             	sub    $0x8,%esp
   12aef:	50                   	push   %eax
   12af0:	68 4a 7d 01 00       	push   $0x17d4a
   12af5:	e8 5b ed ff ff       	call   11855 <c_printf>
   12afa:	83 c4 10             	add    $0x10,%esp
   12afd:	8b 45 0c             	mov    0xc(%ebp),%eax
   12b00:	8b 50 0c             	mov    0xc(%eax),%edx
   12b03:	8b 45 0c             	mov    0xc(%ebp),%eax
   12b06:	8b 40 08             	mov    0x8(%eax),%eax
   12b09:	83 ec 04             	sub    $0x4,%esp
   12b0c:	52                   	push   %edx
   12b0d:	50                   	push   %eax
   12b0e:	68 51 7d 01 00       	push   $0x17d51
   12b13:	e8 3d ed ff ff       	call   11855 <c_printf>
   12b18:	83 c4 10             	add    $0x10,%esp
   12b1b:	8b 45 0c             	mov    0xc(%ebp),%eax
   12b1e:	0f b6 40 18          	movzbl 0x18(%eax),%eax
   12b22:	0f b6 c8             	movzbl %al,%ecx
   12b25:	8b 45 0c             	mov    0xc(%ebp),%eax
   12b28:	0f b6 40 17          	movzbl 0x17(%eax),%eax
   12b2c:	0f b6 d0             	movzbl %al,%edx
   12b2f:	8b 45 0c             	mov    0xc(%ebp),%eax
   12b32:	0f b7 40 14          	movzwl 0x14(%eax),%eax
   12b36:	0f b7 c0             	movzwl %ax,%eax
   12b39:	51                   	push   %ecx
   12b3a:	52                   	push   %edx
   12b3b:	50                   	push   %eax
   12b3c:	68 63 7d 01 00       	push   $0x17d63
   12b41:	e8 0f ed ff ff       	call   11855 <c_printf>
   12b46:	83 c4 10             	add    $0x10,%esp
   12b49:	8b 45 0c             	mov    0xc(%ebp),%eax
   12b4c:	8b 40 04             	mov    0x4(%eax),%eax
   12b4f:	89 c2                	mov    %eax,%edx
   12b51:	8b 45 0c             	mov    0xc(%ebp),%eax
   12b54:	8b 00                	mov    (%eax),%eax
   12b56:	83 ec 04             	sub    $0x4,%esp
   12b59:	52                   	push   %edx
   12b5a:	50                   	push   %eax
   12b5b:	68 7d 7d 01 00       	push   $0x17d7d
   12b60:	e8 f0 ec ff ff       	call   11855 <c_printf>
   12b65:	83 c4 10             	add    $0x10,%esp
   12b68:	c9                   	leave  
   12b69:	c3                   	ret    

00012b6a <_context_dump>:
   12b6a:	55                   	push   %ebp
   12b6b:	89 e5                	mov    %esp,%ebp
   12b6d:	53                   	push   %ebx
   12b6e:	83 ec 04             	sub    $0x4,%esp
   12b71:	8b 45 0c             	mov    0xc(%ebp),%eax
   12b74:	83 ec 04             	sub    $0x4,%esp
   12b77:	50                   	push   %eax
   12b78:	ff 75 08             	pushl  0x8(%ebp)
   12b7b:	68 21 7d 01 00       	push   $0x17d21
   12b80:	e8 d0 ec ff ff       	call   11855 <c_printf>
   12b85:	83 c4 10             	add    $0x10,%esp
   12b88:	83 7d 0c 00          	cmpl   $0x0,0xc(%ebp)
   12b8c:	75 15                	jne    12ba3 <_context_dump+0x39>
   12b8e:	83 ec 0c             	sub    $0xc,%esp
   12b91:	68 2d 7d 01 00       	push   $0x17d2d
   12b96:	e8 78 e4 ff ff       	call   11013 <c_puts>
   12b9b:	83 c4 10             	add    $0x10,%esp
   12b9e:	e9 cd 00 00 00       	jmp    12c70 <_context_dump+0x106>
   12ba3:	8b 45 0c             	mov    0xc(%ebp),%eax
   12ba6:	8b 58 0c             	mov    0xc(%eax),%ebx
   12ba9:	8b 45 0c             	mov    0xc(%ebp),%eax
   12bac:	8b 48 08             	mov    0x8(%eax),%ecx
   12baf:	8b 45 0c             	mov    0xc(%ebp),%eax
   12bb2:	8b 50 04             	mov    0x4(%eax),%edx
   12bb5:	8b 45 0c             	mov    0xc(%ebp),%eax
   12bb8:	8b 00                	mov    (%eax),%eax
   12bba:	83 ec 0c             	sub    $0xc,%esp
   12bbd:	53                   	push   %ebx
   12bbe:	51                   	push   %ecx
   12bbf:	52                   	push   %edx
   12bc0:	50                   	push   %eax
   12bc1:	68 98 7d 01 00       	push   $0x17d98
   12bc6:	e8 8a ec ff ff       	call   11855 <c_printf>
   12bcb:	83 c4 20             	add    $0x20,%esp
   12bce:	8b 45 0c             	mov    0xc(%ebp),%eax
   12bd1:	8b 58 1c             	mov    0x1c(%eax),%ebx
   12bd4:	8b 45 0c             	mov    0xc(%ebp),%eax
   12bd7:	8b 48 18             	mov    0x18(%eax),%ecx
   12bda:	8b 45 0c             	mov    0xc(%ebp),%eax
   12bdd:	8b 50 14             	mov    0x14(%eax),%edx
   12be0:	8b 45 0c             	mov    0xc(%ebp),%eax
   12be3:	8b 40 10             	mov    0x10(%eax),%eax
   12be6:	83 ec 0c             	sub    $0xc,%esp
   12be9:	53                   	push   %ebx
   12bea:	51                   	push   %ecx
   12beb:	52                   	push   %edx
   12bec:	50                   	push   %eax
   12bed:	68 c4 7d 01 00       	push   $0x17dc4
   12bf2:	e8 5e ec ff ff       	call   11855 <c_printf>
   12bf7:	83 c4 20             	add    $0x20,%esp
   12bfa:	8b 45 0c             	mov    0xc(%ebp),%eax
   12bfd:	8b 58 2c             	mov    0x2c(%eax),%ebx
   12c00:	8b 45 0c             	mov    0xc(%ebp),%eax
   12c03:	8b 48 28             	mov    0x28(%eax),%ecx
   12c06:	8b 45 0c             	mov    0xc(%ebp),%eax
   12c09:	8b 50 24             	mov    0x24(%eax),%edx
   12c0c:	8b 45 0c             	mov    0xc(%ebp),%eax
   12c0f:	8b 40 20             	mov    0x20(%eax),%eax
   12c12:	83 ec 0c             	sub    $0xc,%esp
   12c15:	53                   	push   %ebx
   12c16:	51                   	push   %ecx
   12c17:	52                   	push   %edx
   12c18:	50                   	push   %eax
   12c19:	68 f0 7d 01 00       	push   $0x17df0
   12c1e:	e8 32 ec ff ff       	call   11855 <c_printf>
   12c23:	83 c4 20             	add    $0x20,%esp
   12c26:	8b 45 0c             	mov    0xc(%ebp),%eax
   12c29:	8b 58 3c             	mov    0x3c(%eax),%ebx
   12c2c:	8b 45 0c             	mov    0xc(%ebp),%eax
   12c2f:	8b 48 38             	mov    0x38(%eax),%ecx
   12c32:	8b 45 0c             	mov    0xc(%ebp),%eax
   12c35:	8b 50 34             	mov    0x34(%eax),%edx
   12c38:	8b 45 0c             	mov    0xc(%ebp),%eax
   12c3b:	8b 40 30             	mov    0x30(%eax),%eax
   12c3e:	83 ec 0c             	sub    $0xc,%esp
   12c41:	53                   	push   %ebx
   12c42:	51                   	push   %ecx
   12c43:	52                   	push   %edx
   12c44:	50                   	push   %eax
   12c45:	68 1c 7e 01 00       	push   $0x17e1c
   12c4a:	e8 06 ec ff ff       	call   11855 <c_printf>
   12c4f:	83 c4 20             	add    $0x20,%esp
   12c52:	8b 45 0c             	mov    0xc(%ebp),%eax
   12c55:	8b 50 44             	mov    0x44(%eax),%edx
   12c58:	8b 45 0c             	mov    0xc(%ebp),%eax
   12c5b:	8b 40 40             	mov    0x40(%eax),%eax
   12c5e:	83 ec 04             	sub    $0x4,%esp
   12c61:	52                   	push   %edx
   12c62:	50                   	push   %eax
   12c63:	68 45 7e 01 00       	push   $0x17e45
   12c68:	e8 e8 eb ff ff       	call   11855 <c_printf>
   12c6d:	83 c4 10             	add    $0x10,%esp
   12c70:	8b 5d fc             	mov    -0x4(%ebp),%ebx
   12c73:	c9                   	leave  
   12c74:	c3                   	ret    

00012c75 <_active_dump>:
   12c75:	55                   	push   %ebp
   12c76:	89 e5                	mov    %esp,%ebp
   12c78:	83 ec 18             	sub    $0x18,%esp
   12c7b:	83 7d 08 00          	cmpl   $0x0,0x8(%ebp)
   12c7f:	74 13                	je     12c94 <_active_dump+0x1f>
   12c81:	83 ec 08             	sub    $0x8,%esp
   12c84:	ff 75 08             	pushl  0x8(%ebp)
   12c87:	68 5c 7e 01 00       	push   $0x17e5c
   12c8c:	e8 c4 eb ff ff       	call   11855 <c_printf>
   12c91:	83 c4 10             	add    $0x10,%esp
   12c94:	c7 45 f4 00 00 00 00 	movl   $0x0,-0xc(%ebp)
   12c9b:	c7 45 f0 00 00 00 00 	movl   $0x0,-0x10(%ebp)
   12ca2:	c7 45 ec 00 00 00 00 	movl   $0x0,-0x14(%ebp)
   12ca9:	e9 41 01 00 00       	jmp    12def <_active_dump+0x17a>
   12cae:	8b 45 ec             	mov    -0x14(%ebp),%eax
   12cb1:	8b 04 85 e0 cb 01 00 	mov    0x1cbe0(,%eax,4),%eax
   12cb8:	85 c0                	test   %eax,%eax
   12cba:	0f 84 27 01 00 00    	je     12de7 <_active_dump+0x172>
   12cc0:	83 7d 0c 00          	cmpl   $0x0,0xc(%ebp)
   12cc4:	75 13                	jne    12cd9 <_active_dump+0x64>
   12cc6:	83 7d f4 00          	cmpl   $0x0,-0xc(%ebp)
   12cca:	74 0d                	je     12cd9 <_active_dump+0x64>
   12ccc:	83 ec 0c             	sub    $0xc,%esp
   12ccf:	6a 2c                	push   $0x2c
   12cd1:	e8 fd e1 ff ff       	call   10ed3 <c_putchar>
   12cd6:	83 c4 10             	add    $0x10,%esp
   12cd9:	8b 45 ec             	mov    -0x14(%ebp),%eax
   12cdc:	8b 04 85 e0 cb 01 00 	mov    0x1cbe0(,%eax,4),%eax
   12ce3:	0f b7 40 12          	movzwl 0x12(%eax),%eax
   12ce7:	0f b7 d0             	movzwl %ax,%edx
   12cea:	8b 45 ec             	mov    -0x14(%ebp),%eax
   12ced:	8b 04 85 e0 cb 01 00 	mov    0x1cbe0(,%eax,4),%eax
   12cf4:	0f b7 40 10          	movzwl 0x10(%eax),%eax
   12cf8:	0f b7 c0             	movzwl %ax,%eax
   12cfb:	52                   	push   %edx
   12cfc:	50                   	push   %eax
   12cfd:	ff 75 ec             	pushl  -0x14(%ebp)
   12d00:	68 61 7e 01 00       	push   $0x17e61
   12d05:	e8 4b eb ff ff       	call   11855 <c_printf>
   12d0a:	83 c4 10             	add    $0x10,%esp
   12d0d:	8b 45 ec             	mov    -0x14(%ebp),%eax
   12d10:	8b 04 85 e0 cb 01 00 	mov    0x1cbe0(,%eax,4),%eax
   12d17:	0f b6 40 16          	movzbl 0x16(%eax),%eax
   12d1b:	3c 08                	cmp    $0x8,%al
   12d1d:	77 2c                	ja     12d4b <_active_dump+0xd6>
   12d1f:	8b 45 ec             	mov    -0x14(%ebp),%eax
   12d22:	8b 04 85 e0 cb 01 00 	mov    0x1cbe0(,%eax,4),%eax
   12d29:	0f b6 40 16          	movzbl 0x16(%eax),%eax
   12d2d:	0f b6 c0             	movzbl %al,%eax
   12d30:	c1 e0 02             	shl    $0x2,%eax
   12d33:	05 a0 b5 01 00       	add    $0x1b5a0,%eax
   12d38:	83 ec 08             	sub    $0x8,%esp
   12d3b:	50                   	push   %eax
   12d3c:	68 6d 7e 01 00       	push   $0x17e6d
   12d41:	e8 0f eb ff ff       	call   11855 <c_printf>
   12d46:	83 c4 10             	add    $0x10,%esp
   12d49:	eb 22                	jmp    12d6d <_active_dump+0xf8>
   12d4b:	8b 45 ec             	mov    -0x14(%ebp),%eax
   12d4e:	8b 04 85 e0 cb 01 00 	mov    0x1cbe0(,%eax,4),%eax
   12d55:	0f b6 40 16          	movzbl 0x16(%eax),%eax
   12d59:	0f b6 c0             	movzbl %al,%eax
   12d5c:	83 ec 08             	sub    $0x8,%esp
   12d5f:	50                   	push   %eax
   12d60:	68 71 7e 01 00       	push   $0x17e71
   12d65:	e8 eb ea ff ff       	call   11855 <c_printf>
   12d6a:	83 c4 10             	add    $0x10,%esp
   12d6d:	8b 45 ec             	mov    -0x14(%ebp),%eax
   12d70:	8b 04 85 e0 cb 01 00 	mov    0x1cbe0(,%eax,4),%eax
   12d77:	0f b6 40 17          	movzbl 0x17(%eax),%eax
   12d7b:	0f b6 c0             	movzbl %al,%eax
   12d7e:	8b 55 ec             	mov    -0x14(%ebp),%edx
   12d81:	8b 14 95 e0 cb 01 00 	mov    0x1cbe0(,%edx,4),%edx
   12d88:	0f b6 52 17          	movzbl 0x17(%edx),%edx
   12d8c:	80 fa 04             	cmp    $0x4,%dl
   12d8f:	77 07                	ja     12d98 <_active_dump+0x123>
   12d91:	ba 78 7e 01 00       	mov    $0x17e78,%edx
   12d96:	eb 05                	jmp    12d9d <_active_dump+0x128>
   12d98:	ba 7f 7e 01 00       	mov    $0x17e7f,%edx
   12d9d:	83 ec 08             	sub    $0x8,%esp
   12da0:	50                   	push   %eax
   12da1:	52                   	push   %edx
   12da2:	e8 ae ea ff ff       	call   11855 <c_printf>
   12da7:	83 c4 10             	add    $0x10,%esp
   12daa:	83 7d 0c 00          	cmpl   $0x0,0xc(%ebp)
   12dae:	74 31                	je     12de1 <_active_dump+0x16c>
   12db0:	8b 45 ec             	mov    -0x14(%ebp),%eax
   12db3:	8b 04 85 e0 cb 01 00 	mov    0x1cbe0(,%eax,4),%eax
   12dba:	8b 40 04             	mov    0x4(%eax),%eax
   12dbd:	83 e8 04             	sub    $0x4,%eax
   12dc0:	8b 00                	mov    (%eax),%eax
   12dc2:	8b 55 ec             	mov    -0x14(%ebp),%edx
   12dc5:	8b 14 95 e0 cb 01 00 	mov    0x1cbe0(,%edx,4),%edx
   12dcc:	8b 52 04             	mov    0x4(%edx),%edx
   12dcf:	83 ec 04             	sub    $0x4,%esp
   12dd2:	50                   	push   %eax
   12dd3:	52                   	push   %edx
   12dd4:	68 89 7e 01 00       	push   $0x17e89
   12dd9:	e8 77 ea ff ff       	call   11855 <c_printf>
   12dde:	83 c4 10             	add    $0x10,%esp
   12de1:	83 45 f4 01          	addl   $0x1,-0xc(%ebp)
   12de5:	eb 04                	jmp    12deb <_active_dump+0x176>
   12de7:	83 45 f0 01          	addl   $0x1,-0x10(%ebp)
   12deb:	83 45 ec 01          	addl   $0x1,-0x14(%ebp)
   12def:	83 7d ec 18          	cmpl   $0x18,-0x14(%ebp)
   12df3:	0f 8e b5 fe ff ff    	jle    12cae <_active_dump+0x39>
   12df9:	83 7d 0c 00          	cmpl   $0x0,0xc(%ebp)
   12dfd:	75 0d                	jne    12e0c <_active_dump+0x197>
   12dff:	83 ec 0c             	sub    $0xc,%esp
   12e02:	6a 0a                	push   $0xa
   12e04:	e8 ca e0 ff ff       	call   10ed3 <c_putchar>
   12e09:	83 c4 10             	add    $0x10,%esp
   12e0c:	8b 55 f4             	mov    -0xc(%ebp),%edx
   12e0f:	8b 45 f0             	mov    -0x10(%ebp),%eax
   12e12:	01 d0                	add    %edx,%eax
   12e14:	83 f8 19             	cmp    $0x19,%eax
   12e17:	74 21                	je     12e3a <_active_dump+0x1c5>
   12e19:	8b 55 f4             	mov    -0xc(%ebp),%edx
   12e1c:	8b 45 f0             	mov    -0x10(%ebp),%eax
   12e1f:	01 d0                	add    %edx,%eax
   12e21:	83 ec 0c             	sub    $0xc,%esp
   12e24:	50                   	push   %eax
   12e25:	ff 75 f0             	pushl  -0x10(%ebp)
   12e28:	ff 75 f4             	pushl  -0xc(%ebp)
   12e2b:	6a 19                	push   $0x19
   12e2d:	68 9c 7e 01 00       	push   $0x17e9c
   12e32:	e8 1e ea ff ff       	call   11855 <c_printf>
   12e37:	83 c4 20             	add    $0x20,%esp
   12e3a:	90                   	nop
   12e3b:	c9                   	leave  
   12e3c:	c3                   	ret    

00012e3d <_qnode_alloc>:
   12e3d:	55                   	push   %ebp
   12e3e:	89 e5                	mov    %esp,%ebp
   12e40:	83 ec 18             	sub    $0x18,%esp
   12e43:	a1 b8 b6 01 00       	mov    0x1b6b8,%eax
   12e48:	85 c0                	test   %eax,%eax
   12e4a:	74 16                	je     12e62 <_qnode_alloc+0x25>
   12e4c:	a1 b8 b6 01 00       	mov    0x1b6b8,%eax
   12e51:	89 45 f4             	mov    %eax,-0xc(%ebp)
   12e54:	8b 45 f4             	mov    -0xc(%ebp),%eax
   12e57:	8b 40 04             	mov    0x4(%eax),%eax
   12e5a:	a3 b8 b6 01 00       	mov    %eax,0x1b6b8
   12e5f:	eb 11                	jmp    12e72 <_qnode_alloc+0x35>
   12e61:	90                   	nop
   12e62:	83 ec 0c             	sub    $0xc,%esp
   12e65:	6a 08                	push   $0x8
   12e67:	e8 4f f6 ff ff       	call   124bb <_kmalloc>
   12e6c:	83 c4 10             	add    $0x10,%esp
   12e6f:	89 45 f4             	mov    %eax,-0xc(%ebp)
   12e72:	83 7d f4 00          	cmpl   $0x0,-0xc(%ebp)
   12e76:	75 20                	jne    12e98 <_qnode_alloc+0x5b>
   12e78:	e8 a3 24 00 00       	call   15320 <_prune>
   12e7d:	85 c0                	test   %eax,%eax
   12e7f:	75 e0                	jne    12e61 <_qnode_alloc+0x24>
   12e81:	83 ec 08             	sub    $0x8,%esp
   12e84:	68 c7 7e 01 00       	push   $0x17ec7
   12e89:	68 d4 7e 01 00       	push   $0x17ed4
   12e8e:	e8 ac f3 ff ff       	call   1223f <_kpanic>
   12e93:	83 c4 10             	add    $0x10,%esp
   12e96:	eb c9                	jmp    12e61 <_qnode_alloc+0x24>
   12e98:	8b 45 f4             	mov    -0xc(%ebp),%eax
   12e9b:	c7 00 00 00 00 00    	movl   $0x0,(%eax)
   12ea1:	8b 45 f4             	mov    -0xc(%ebp),%eax
   12ea4:	c7 40 04 00 00 00 00 	movl   $0x0,0x4(%eax)
   12eab:	8b 45 f4             	mov    -0xc(%ebp),%eax
   12eae:	c9                   	leave  
   12eaf:	c3                   	ret    

00012eb0 <_qnode_free>:
   12eb0:	55                   	push   %ebp
   12eb1:	89 e5                	mov    %esp,%ebp
   12eb3:	83 ec 08             	sub    $0x8,%esp
   12eb6:	83 7d 08 00          	cmpl   $0x0,0x8(%ebp)
   12eba:	75 15                	jne    12ed1 <_qnode_free+0x21>
   12ebc:	83 ec 08             	sub    $0x8,%esp
   12ebf:	68 e1 7e 01 00       	push   $0x17ee1
   12ec4:	68 ef 7e 01 00       	push   $0x17eef
   12ec9:	e8 71 f3 ff ff       	call   1223f <_kpanic>
   12ece:	83 c4 10             	add    $0x10,%esp
   12ed1:	8b 45 08             	mov    0x8(%ebp),%eax
   12ed4:	c7 00 00 00 00 00    	movl   $0x0,(%eax)
   12eda:	8b 15 b8 b6 01 00    	mov    0x1b6b8,%edx
   12ee0:	8b 45 08             	mov    0x8(%ebp),%eax
   12ee3:	89 50 04             	mov    %edx,0x4(%eax)
   12ee6:	8b 45 08             	mov    0x8(%ebp),%eax
   12ee9:	a3 b8 b6 01 00       	mov    %eax,0x1b6b8
   12eee:	90                   	nop
   12eef:	c9                   	leave  
   12ef0:	c3                   	ret    

00012ef1 <_q_alloc>:
   12ef1:	55                   	push   %ebp
   12ef2:	89 e5                	mov    %esp,%ebp
   12ef4:	83 ec 18             	sub    $0x18,%esp
   12ef7:	83 ec 0c             	sub    $0xc,%esp
   12efa:	6a 10                	push   $0x10
   12efc:	e8 ba f5 ff ff       	call   124bb <_kmalloc>
   12f01:	83 c4 10             	add    $0x10,%esp
   12f04:	89 45 f4             	mov    %eax,-0xc(%ebp)
   12f07:	83 7d f4 00          	cmpl   $0x0,-0xc(%ebp)
   12f0b:	74 26                	je     12f33 <_q_alloc+0x42>
   12f0d:	8b 45 f4             	mov    -0xc(%ebp),%eax
   12f10:	c7 00 00 00 00 00    	movl   $0x0,(%eax)
   12f16:	8b 45 f4             	mov    -0xc(%ebp),%eax
   12f19:	c7 40 04 00 00 00 00 	movl   $0x0,0x4(%eax)
   12f20:	8b 45 f4             	mov    -0xc(%ebp),%eax
   12f23:	c7 40 08 00 00 00 00 	movl   $0x0,0x8(%eax)
   12f2a:	8b 45 f4             	mov    -0xc(%ebp),%eax
   12f2d:	8b 55 08             	mov    0x8(%ebp),%edx
   12f30:	89 50 0c             	mov    %edx,0xc(%eax)
   12f33:	8b 45 f4             	mov    -0xc(%ebp),%eax
   12f36:	c9                   	leave  
   12f37:	c3                   	ret    

00012f38 <_q_free>:
   12f38:	55                   	push   %ebp
   12f39:	89 e5                	mov    %esp,%ebp
   12f3b:	83 ec 08             	sub    $0x8,%esp
   12f3e:	83 7d 08 00          	cmpl   $0x0,0x8(%ebp)
   12f42:	75 15                	jne    12f59 <_q_free+0x21>
   12f44:	83 ec 08             	sub    $0x8,%esp
   12f47:	68 e1 7e 01 00       	push   $0x17ee1
   12f4c:	68 fb 7e 01 00       	push   $0x17efb
   12f51:	e8 e9 f2 ff ff       	call   1223f <_kpanic>
   12f56:	83 c4 10             	add    $0x10,%esp
   12f59:	83 ec 0c             	sub    $0xc,%esp
   12f5c:	ff 75 08             	pushl  0x8(%ebp)
   12f5f:	e8 96 00 00 00       	call   12ffa <_q_size>
   12f64:	83 c4 10             	add    $0x10,%esp
   12f67:	85 c0                	test   %eax,%eax
   12f69:	74 0e                	je     12f79 <_q_free+0x41>
   12f6b:	83 ec 0c             	sub    $0xc,%esp
   12f6e:	ff 75 08             	pushl  0x8(%ebp)
   12f71:	e8 14 00 00 00       	call   12f8a <_q_empty>
   12f76:	83 c4 10             	add    $0x10,%esp
   12f79:	83 ec 0c             	sub    $0xc,%esp
   12f7c:	ff 75 08             	pushl  0x8(%ebp)
   12f7f:	e8 e8 f5 ff ff       	call   1256c <_kfree>
   12f84:	83 c4 10             	add    $0x10,%esp
   12f87:	90                   	nop
   12f88:	c9                   	leave  
   12f89:	c3                   	ret    

00012f8a <_q_empty>:
   12f8a:	55                   	push   %ebp
   12f8b:	89 e5                	mov    %esp,%ebp
   12f8d:	83 ec 18             	sub    $0x18,%esp
   12f90:	83 7d 08 00          	cmpl   $0x0,0x8(%ebp)
   12f94:	75 15                	jne    12fab <_q_empty+0x21>
   12f96:	83 ec 08             	sub    $0x8,%esp
   12f99:	68 e1 7e 01 00       	push   $0x17ee1
   12f9e:	68 fb 7e 01 00       	push   $0x17efb
   12fa3:	e8 97 f2 ff ff       	call   1223f <_kpanic>
   12fa8:	83 c4 10             	add    $0x10,%esp
   12fab:	8b 45 08             	mov    0x8(%ebp),%eax
   12fae:	8b 00                	mov    (%eax),%eax
   12fb0:	89 45 f4             	mov    %eax,-0xc(%ebp)
   12fb3:	eb 1d                	jmp    12fd2 <_q_empty+0x48>
   12fb5:	8b 45 f4             	mov    -0xc(%ebp),%eax
   12fb8:	89 45 f0             	mov    %eax,-0x10(%ebp)
   12fbb:	8b 45 f0             	mov    -0x10(%ebp),%eax
   12fbe:	8b 40 04             	mov    0x4(%eax),%eax
   12fc1:	89 45 f4             	mov    %eax,-0xc(%ebp)
   12fc4:	83 ec 0c             	sub    $0xc,%esp
   12fc7:	ff 75 f0             	pushl  -0x10(%ebp)
   12fca:	e8 e1 fe ff ff       	call   12eb0 <_qnode_free>
   12fcf:	83 c4 10             	add    $0x10,%esp
   12fd2:	83 7d f4 00          	cmpl   $0x0,-0xc(%ebp)
   12fd6:	75 dd                	jne    12fb5 <_q_empty+0x2b>
   12fd8:	8b 45 08             	mov    0x8(%ebp),%eax
   12fdb:	c7 40 04 00 00 00 00 	movl   $0x0,0x4(%eax)
   12fe2:	8b 45 08             	mov    0x8(%ebp),%eax
   12fe5:	8b 50 04             	mov    0x4(%eax),%edx
   12fe8:	8b 45 08             	mov    0x8(%ebp),%eax
   12feb:	89 10                	mov    %edx,(%eax)
   12fed:	8b 45 08             	mov    0x8(%ebp),%eax
   12ff0:	c7 40 08 00 00 00 00 	movl   $0x0,0x8(%eax)
   12ff7:	90                   	nop
   12ff8:	c9                   	leave  
   12ff9:	c3                   	ret    

00012ffa <_q_size>:
   12ffa:	55                   	push   %ebp
   12ffb:	89 e5                	mov    %esp,%ebp
   12ffd:	8b 45 08             	mov    0x8(%ebp),%eax
   13000:	8b 40 08             	mov    0x8(%eax),%eax
   13003:	5d                   	pop    %ebp
   13004:	c3                   	ret    

00013005 <_q_insert>:
   13005:	55                   	push   %ebp
   13006:	89 e5                	mov    %esp,%ebp
   13008:	83 ec 18             	sub    $0x18,%esp
   1300b:	83 7d 08 00          	cmpl   $0x0,0x8(%ebp)
   1300f:	75 15                	jne    13026 <_q_insert+0x21>
   13011:	83 ec 08             	sub    $0x8,%esp
   13014:	68 03 7f 01 00       	push   $0x17f03
   13019:	68 18 7f 01 00       	push   $0x17f18
   1301e:	e8 1c f2 ff ff       	call   1223f <_kpanic>
   13023:	83 c4 10             	add    $0x10,%esp
   13026:	e8 12 fe ff ff       	call   12e3d <_qnode_alloc>
   1302b:	89 45 ec             	mov    %eax,-0x14(%ebp)
   1302e:	8b 45 ec             	mov    -0x14(%ebp),%eax
   13031:	8b 55 0c             	mov    0xc(%ebp),%edx
   13034:	89 10                	mov    %edx,(%eax)
   13036:	83 ec 0c             	sub    $0xc,%esp
   13039:	ff 75 08             	pushl  0x8(%ebp)
   1303c:	e8 b9 ff ff ff       	call   12ffa <_q_size>
   13041:	83 c4 10             	add    $0x10,%esp
   13044:	85 c0                	test   %eax,%eax
   13046:	75 23                	jne    1306b <_q_insert+0x66>
   13048:	8b 45 08             	mov    0x8(%ebp),%eax
   1304b:	8b 55 ec             	mov    -0x14(%ebp),%edx
   1304e:	89 50 04             	mov    %edx,0x4(%eax)
   13051:	8b 45 08             	mov    0x8(%ebp),%eax
   13054:	8b 50 04             	mov    0x4(%eax),%edx
   13057:	8b 45 08             	mov    0x8(%ebp),%eax
   1305a:	89 10                	mov    %edx,(%eax)
   1305c:	8b 45 08             	mov    0x8(%ebp),%eax
   1305f:	c7 40 08 01 00 00 00 	movl   $0x1,0x8(%eax)
   13066:	e9 d5 00 00 00       	jmp    13140 <_q_insert+0x13b>
   1306b:	8b 45 08             	mov    0x8(%ebp),%eax
   1306e:	8b 40 0c             	mov    0xc(%eax),%eax
   13071:	85 c0                	test   %eax,%eax
   13073:	75 29                	jne    1309e <_q_insert+0x99>
   13075:	8b 45 08             	mov    0x8(%ebp),%eax
   13078:	8b 40 04             	mov    0x4(%eax),%eax
   1307b:	8b 55 ec             	mov    -0x14(%ebp),%edx
   1307e:	89 50 04             	mov    %edx,0x4(%eax)
   13081:	8b 45 08             	mov    0x8(%ebp),%eax
   13084:	8b 55 ec             	mov    -0x14(%ebp),%edx
   13087:	89 50 04             	mov    %edx,0x4(%eax)
   1308a:	8b 45 08             	mov    0x8(%ebp),%eax
   1308d:	8b 40 08             	mov    0x8(%eax),%eax
   13090:	8d 50 01             	lea    0x1(%eax),%edx
   13093:	8b 45 08             	mov    0x8(%ebp),%eax
   13096:	89 50 08             	mov    %edx,0x8(%eax)
   13099:	e9 a2 00 00 00       	jmp    13140 <_q_insert+0x13b>
   1309e:	8b 45 08             	mov    0x8(%ebp),%eax
   130a1:	8b 40 0c             	mov    0xc(%eax),%eax
   130a4:	89 45 e8             	mov    %eax,-0x18(%ebp)
   130a7:	c7 45 f4 00 00 00 00 	movl   $0x0,-0xc(%ebp)
   130ae:	8b 45 08             	mov    0x8(%ebp),%eax
   130b1:	8b 00                	mov    (%eax),%eax
   130b3:	89 45 f0             	mov    %eax,-0x10(%ebp)
   130b6:	eb 0f                	jmp    130c7 <_q_insert+0xc2>
   130b8:	8b 45 f0             	mov    -0x10(%ebp),%eax
   130bb:	89 45 f4             	mov    %eax,-0xc(%ebp)
   130be:	8b 45 f0             	mov    -0x10(%ebp),%eax
   130c1:	8b 40 04             	mov    0x4(%eax),%eax
   130c4:	89 45 f0             	mov    %eax,-0x10(%ebp)
   130c7:	83 7d f0 00          	cmpl   $0x0,-0x10(%ebp)
   130cb:	74 18                	je     130e5 <_q_insert+0xe0>
   130cd:	8b 45 f0             	mov    -0x10(%ebp),%eax
   130d0:	8b 00                	mov    (%eax),%eax
   130d2:	83 ec 08             	sub    $0x8,%esp
   130d5:	ff 75 0c             	pushl  0xc(%ebp)
   130d8:	50                   	push   %eax
   130d9:	8b 45 e8             	mov    -0x18(%ebp),%eax
   130dc:	ff d0                	call   *%eax
   130de:	83 c4 10             	add    $0x10,%esp
   130e1:	85 c0                	test   %eax,%eax
   130e3:	7e d3                	jle    130b8 <_q_insert+0xb3>
   130e5:	8b 45 ec             	mov    -0x14(%ebp),%eax
   130e8:	8b 55 f0             	mov    -0x10(%ebp),%edx
   130eb:	89 50 04             	mov    %edx,0x4(%eax)
   130ee:	83 7d f4 00          	cmpl   $0x0,-0xc(%ebp)
   130f2:	75 25                	jne    13119 <_q_insert+0x114>
   130f4:	83 7d f0 00          	cmpl   $0x0,-0x10(%ebp)
   130f8:	75 15                	jne    1310f <_q_insert+0x10a>
   130fa:	83 ec 08             	sub    $0x8,%esp
   130fd:	68 22 7f 01 00       	push   $0x17f22
   13102:	68 18 7f 01 00       	push   $0x17f18
   13107:	e8 33 f1 ff ff       	call   1223f <_kpanic>
   1310c:	83 c4 10             	add    $0x10,%esp
   1310f:	8b 45 08             	mov    0x8(%ebp),%eax
   13112:	8b 55 ec             	mov    -0x14(%ebp),%edx
   13115:	89 10                	mov    %edx,(%eax)
   13117:	eb 18                	jmp    13131 <_q_insert+0x12c>
   13119:	8b 45 f4             	mov    -0xc(%ebp),%eax
   1311c:	8b 55 ec             	mov    -0x14(%ebp),%edx
   1311f:	89 50 04             	mov    %edx,0x4(%eax)
   13122:	83 7d f0 00          	cmpl   $0x0,-0x10(%ebp)
   13126:	75 09                	jne    13131 <_q_insert+0x12c>
   13128:	8b 45 08             	mov    0x8(%ebp),%eax
   1312b:	8b 55 ec             	mov    -0x14(%ebp),%edx
   1312e:	89 50 04             	mov    %edx,0x4(%eax)
   13131:	8b 45 08             	mov    0x8(%ebp),%eax
   13134:	8b 40 08             	mov    0x8(%eax),%eax
   13137:	8d 50 01             	lea    0x1(%eax),%edx
   1313a:	8b 45 08             	mov    0x8(%ebp),%eax
   1313d:	89 50 08             	mov    %edx,0x8(%eax)
   13140:	c9                   	leave  
   13141:	c3                   	ret    

00013142 <_q_peek>:
   13142:	55                   	push   %ebp
   13143:	89 e5                	mov    %esp,%ebp
   13145:	83 ec 08             	sub    $0x8,%esp
   13148:	83 7d 08 00          	cmpl   $0x0,0x8(%ebp)
   1314c:	75 15                	jne    13163 <_q_peek+0x21>
   1314e:	83 ec 08             	sub    $0x8,%esp
   13151:	68 e1 7e 01 00       	push   $0x17ee1
   13156:	68 3b 7f 01 00       	push   $0x17f3b
   1315b:	e8 df f0 ff ff       	call   1223f <_kpanic>
   13160:	83 c4 10             	add    $0x10,%esp
   13163:	83 ec 0c             	sub    $0xc,%esp
   13166:	ff 75 08             	pushl  0x8(%ebp)
   13169:	e8 8c fe ff ff       	call   12ffa <_q_size>
   1316e:	83 c4 10             	add    $0x10,%esp
   13171:	85 c0                	test   %eax,%eax
   13173:	75 07                	jne    1317c <_q_peek+0x3a>
   13175:	b8 00 00 00 00       	mov    $0x0,%eax
   1317a:	eb 07                	jmp    13183 <_q_peek+0x41>
   1317c:	8b 45 08             	mov    0x8(%ebp),%eax
   1317f:	8b 00                	mov    (%eax),%eax
   13181:	8b 00                	mov    (%eax),%eax
   13183:	c9                   	leave  
   13184:	c3                   	ret    

00013185 <_q_remove>:
   13185:	55                   	push   %ebp
   13186:	89 e5                	mov    %esp,%ebp
   13188:	83 ec 18             	sub    $0x18,%esp
   1318b:	83 7d 08 00          	cmpl   $0x0,0x8(%ebp)
   1318f:	75 15                	jne    131a6 <_q_remove+0x21>
   13191:	83 ec 08             	sub    $0x8,%esp
   13194:	68 e1 7e 01 00       	push   $0x17ee1
   13199:	68 43 7f 01 00       	push   $0x17f43
   1319e:	e8 9c f0 ff ff       	call   1223f <_kpanic>
   131a3:	83 c4 10             	add    $0x10,%esp
   131a6:	83 ec 0c             	sub    $0xc,%esp
   131a9:	ff 75 08             	pushl  0x8(%ebp)
   131ac:	e8 49 fe ff ff       	call   12ffa <_q_size>
   131b1:	83 c4 10             	add    $0x10,%esp
   131b4:	85 c0                	test   %eax,%eax
   131b6:	75 07                	jne    131bf <_q_remove+0x3a>
   131b8:	b8 00 00 00 00       	mov    $0x0,%eax
   131bd:	eb 58                	jmp    13217 <_q_remove+0x92>
   131bf:	83 ec 0c             	sub    $0xc,%esp
   131c2:	ff 75 08             	pushl  0x8(%ebp)
   131c5:	e8 78 ff ff ff       	call   13142 <_q_peek>
   131ca:	83 c4 10             	add    $0x10,%esp
   131cd:	89 45 f4             	mov    %eax,-0xc(%ebp)
   131d0:	8b 45 08             	mov    0x8(%ebp),%eax
   131d3:	8b 00                	mov    (%eax),%eax
   131d5:	89 45 f0             	mov    %eax,-0x10(%ebp)
   131d8:	8b 45 f0             	mov    -0x10(%ebp),%eax
   131db:	8b 50 04             	mov    0x4(%eax),%edx
   131de:	8b 45 08             	mov    0x8(%ebp),%eax
   131e1:	89 10                	mov    %edx,(%eax)
   131e3:	8b 45 08             	mov    0x8(%ebp),%eax
   131e6:	8b 40 08             	mov    0x8(%eax),%eax
   131e9:	8d 50 ff             	lea    -0x1(%eax),%edx
   131ec:	8b 45 08             	mov    0x8(%ebp),%eax
   131ef:	89 50 08             	mov    %edx,0x8(%eax)
   131f2:	8b 45 08             	mov    0x8(%ebp),%eax
   131f5:	8b 40 08             	mov    0x8(%eax),%eax
   131f8:	85 c0                	test   %eax,%eax
   131fa:	75 0a                	jne    13206 <_q_remove+0x81>
   131fc:	8b 45 08             	mov    0x8(%ebp),%eax
   131ff:	c7 40 04 00 00 00 00 	movl   $0x0,0x4(%eax)
   13206:	83 ec 0c             	sub    $0xc,%esp
   13209:	ff 75 f0             	pushl  -0x10(%ebp)
   1320c:	e8 9f fc ff ff       	call   12eb0 <_qnode_free>
   13211:	83 c4 10             	add    $0x10,%esp
   13214:	8b 45 f4             	mov    -0xc(%ebp),%eax
   13217:	c9                   	leave  
   13218:	c3                   	ret    

00013219 <_q_remove_by>:
   13219:	55                   	push   %ebp
   1321a:	89 e5                	mov    %esp,%ebp
   1321c:	83 ec 18             	sub    $0x18,%esp
   1321f:	83 7d 08 00          	cmpl   $0x0,0x8(%ebp)
   13223:	75 15                	jne    1323a <_q_remove_by+0x21>
   13225:	83 ec 08             	sub    $0x8,%esp
   13228:	68 e1 7e 01 00       	push   $0x17ee1
   1322d:	68 4d 7f 01 00       	push   $0x17f4d
   13232:	e8 08 f0 ff ff       	call   1223f <_kpanic>
   13237:	83 c4 10             	add    $0x10,%esp
   1323a:	c7 45 f4 00 00 00 00 	movl   $0x0,-0xc(%ebp)
   13241:	8b 45 08             	mov    0x8(%ebp),%eax
   13244:	8b 00                	mov    (%eax),%eax
   13246:	89 45 f0             	mov    %eax,-0x10(%ebp)
   13249:	e9 83 00 00 00       	jmp    132d1 <_q_remove_by+0xb8>
   1324e:	8b 45 f0             	mov    -0x10(%ebp),%eax
   13251:	8b 00                	mov    (%eax),%eax
   13253:	83 ec 08             	sub    $0x8,%esp
   13256:	50                   	push   %eax
   13257:	ff 75 0c             	pushl  0xc(%ebp)
   1325a:	8b 45 10             	mov    0x10(%ebp),%eax
   1325d:	ff d0                	call   *%eax
   1325f:	83 c4 10             	add    $0x10,%esp
   13262:	85 c0                	test   %eax,%eax
   13264:	74 5c                	je     132c2 <_q_remove_by+0xa9>
   13266:	8b 45 f0             	mov    -0x10(%ebp),%eax
   13269:	8b 00                	mov    (%eax),%eax
   1326b:	89 45 ec             	mov    %eax,-0x14(%ebp)
   1326e:	83 7d f4 00          	cmpl   $0x0,-0xc(%ebp)
   13272:	74 0e                	je     13282 <_q_remove_by+0x69>
   13274:	8b 45 f0             	mov    -0x10(%ebp),%eax
   13277:	8b 50 04             	mov    0x4(%eax),%edx
   1327a:	8b 45 f4             	mov    -0xc(%ebp),%eax
   1327d:	89 50 04             	mov    %edx,0x4(%eax)
   13280:	eb 0b                	jmp    1328d <_q_remove_by+0x74>
   13282:	8b 45 f0             	mov    -0x10(%ebp),%eax
   13285:	8b 50 04             	mov    0x4(%eax),%edx
   13288:	8b 45 08             	mov    0x8(%ebp),%eax
   1328b:	89 10                	mov    %edx,(%eax)
   1328d:	8b 45 f0             	mov    -0x10(%ebp),%eax
   13290:	8b 40 04             	mov    0x4(%eax),%eax
   13293:	85 c0                	test   %eax,%eax
   13295:	75 09                	jne    132a0 <_q_remove_by+0x87>
   13297:	8b 45 08             	mov    0x8(%ebp),%eax
   1329a:	8b 55 f4             	mov    -0xc(%ebp),%edx
   1329d:	89 50 04             	mov    %edx,0x4(%eax)
   132a0:	8b 45 08             	mov    0x8(%ebp),%eax
   132a3:	8b 40 08             	mov    0x8(%eax),%eax
   132a6:	8d 50 ff             	lea    -0x1(%eax),%edx
   132a9:	8b 45 08             	mov    0x8(%ebp),%eax
   132ac:	89 50 08             	mov    %edx,0x8(%eax)
   132af:	83 ec 0c             	sub    $0xc,%esp
   132b2:	ff 75 f0             	pushl  -0x10(%ebp)
   132b5:	e8 f6 fb ff ff       	call   12eb0 <_qnode_free>
   132ba:	83 c4 10             	add    $0x10,%esp
   132bd:	8b 45 ec             	mov    -0x14(%ebp),%eax
   132c0:	eb 1e                	jmp    132e0 <_q_remove_by+0xc7>
   132c2:	8b 45 f0             	mov    -0x10(%ebp),%eax
   132c5:	89 45 f4             	mov    %eax,-0xc(%ebp)
   132c8:	8b 45 f0             	mov    -0x10(%ebp),%eax
   132cb:	8b 40 04             	mov    0x4(%eax),%eax
   132ce:	89 45 f0             	mov    %eax,-0x10(%ebp)
   132d1:	83 7d f0 00          	cmpl   $0x0,-0x10(%ebp)
   132d5:	0f 85 73 ff ff ff    	jne    1324e <_q_remove_by+0x35>
   132db:	b8 00 00 00 00       	mov    $0x0,%eax
   132e0:	c9                   	leave  
   132e1:	c3                   	ret    

000132e2 <_q_init>:
   132e2:	55                   	push   %ebp
   132e3:	89 e5                	mov    %esp,%ebp
   132e5:	83 ec 08             	sub    $0x8,%esp
   132e8:	83 ec 0c             	sub    $0xc,%esp
   132eb:	68 5a 7f 01 00       	push   $0x17f5a
   132f0:	e8 1e dd ff ff       	call   11013 <c_puts>
   132f5:	83 c4 10             	add    $0x10,%esp
   132f8:	c7 05 b8 b6 01 00 00 	movl   $0x0,0x1b6b8
   132ff:	00 00 00 
   13302:	83 ec 0c             	sub    $0xc,%esp
   13305:	6a 00                	push   $0x0
   13307:	e8 e5 fb ff ff       	call   12ef1 <_q_alloc>
   1330c:	83 c4 10             	add    $0x10,%esp
   1330f:	a3 48 cc 01 00       	mov    %eax,0x1cc48
   13314:	a1 48 cc 01 00       	mov    0x1cc48,%eax
   13319:	85 c0                	test   %eax,%eax
   1331b:	75 15                	jne    13332 <_q_init+0x50>
   1331d:	83 ec 08             	sub    $0x8,%esp
   13320:	68 61 7f 01 00       	push   $0x17f61
   13325:	68 78 7f 01 00       	push   $0x17f78
   1332a:	e8 10 ef ff ff       	call   1223f <_kpanic>
   1332f:	83 c4 10             	add    $0x10,%esp
   13332:	83 ec 0c             	sub    $0xc,%esp
   13335:	6a 00                	push   $0x0
   13337:	e8 b5 fb ff ff       	call   12ef1 <_q_alloc>
   1333c:	83 c4 10             	add    $0x10,%esp
   1333f:	a3 44 cc 01 00       	mov    %eax,0x1cc44
   13344:	a1 44 cc 01 00       	mov    0x1cc44,%eax
   13349:	85 c0                	test   %eax,%eax
   1334b:	75 15                	jne    13362 <_q_init+0x80>
   1334d:	83 ec 08             	sub    $0x8,%esp
   13350:	68 80 7f 01 00       	push   $0x17f80
   13355:	68 78 7f 01 00       	push   $0x17f78
   1335a:	e8 e0 ee ff ff       	call   1223f <_kpanic>
   1335f:	83 c4 10             	add    $0x10,%esp
   13362:	83 ec 0c             	sub    $0xc,%esp
   13365:	6a 00                	push   $0x0
   13367:	e8 85 fb ff ff       	call   12ef1 <_q_alloc>
   1336c:	83 c4 10             	add    $0x10,%esp
   1336f:	a3 4c cc 01 00       	mov    %eax,0x1cc4c
   13374:	a1 4c cc 01 00       	mov    0x1cc4c,%eax
   13379:	85 c0                	test   %eax,%eax
   1337b:	75 15                	jne    13392 <_q_init+0xb0>
   1337d:	83 ec 08             	sub    $0x8,%esp
   13380:	68 95 7f 01 00       	push   $0x17f95
   13385:	68 78 7f 01 00       	push   $0x17f78
   1338a:	e8 b0 ee ff ff       	call   1223f <_kpanic>
   1338f:	83 c4 10             	add    $0x10,%esp
   13392:	90                   	nop
   13393:	c9                   	leave  
   13394:	c3                   	ret    

00013395 <_q_prune>:
   13395:	55                   	push   %ebp
   13396:	89 e5                	mov    %esp,%ebp
   13398:	83 ec 18             	sub    $0x18,%esp
   1339b:	c7 45 f4 00 00 00 00 	movl   $0x0,-0xc(%ebp)
   133a2:	eb 25                	jmp    133c9 <_q_prune+0x34>
   133a4:	a1 b8 b6 01 00       	mov    0x1b6b8,%eax
   133a9:	89 45 f0             	mov    %eax,-0x10(%ebp)
   133ac:	8b 45 f0             	mov    -0x10(%ebp),%eax
   133af:	8b 40 04             	mov    0x4(%eax),%eax
   133b2:	a3 b8 b6 01 00       	mov    %eax,0x1b6b8
   133b7:	83 ec 0c             	sub    $0xc,%esp
   133ba:	ff 75 f0             	pushl  -0x10(%ebp)
   133bd:	e8 aa f1 ff ff       	call   1256c <_kfree>
   133c2:	83 c4 10             	add    $0x10,%esp
   133c5:	83 45 f4 01          	addl   $0x1,-0xc(%ebp)
   133c9:	a1 b8 b6 01 00       	mov    0x1b6b8,%eax
   133ce:	85 c0                	test   %eax,%eax
   133d0:	75 d2                	jne    133a4 <_q_prune+0xf>
   133d2:	8b 45 f4             	mov    -0xc(%ebp),%eax
   133d5:	c1 e0 03             	shl    $0x3,%eax
   133d8:	c9                   	leave  
   133d9:	c3                   	ret    

000133da <_q_dump>:
   133da:	55                   	push   %ebp
   133db:	89 e5                	mov    %esp,%ebp
   133dd:	83 ec 18             	sub    $0x18,%esp
   133e0:	83 ec 08             	sub    $0x8,%esp
   133e3:	ff 75 08             	pushl  0x8(%ebp)
   133e6:	68 ab 7f 01 00       	push   $0x17fab
   133eb:	e8 65 e4 ff ff       	call   11855 <c_printf>
   133f0:	83 c4 10             	add    $0x10,%esp
   133f3:	83 7d 0c 00          	cmpl   $0x0,0xc(%ebp)
   133f7:	75 15                	jne    1340e <_q_dump+0x34>
   133f9:	83 ec 0c             	sub    $0xc,%esp
   133fc:	68 b0 7f 01 00       	push   $0x17fb0
   13401:	e8 0d dc ff ff       	call   11013 <c_puts>
   13406:	83 c4 10             	add    $0x10,%esp
   13409:	e9 d6 00 00 00       	jmp    134e4 <_q_dump+0x10a>
   1340e:	8b 45 0c             	mov    0xc(%ebp),%eax
   13411:	8b 40 08             	mov    0x8(%eax),%eax
   13414:	8b 55 0c             	mov    0xc(%ebp),%edx
   13417:	8b 52 04             	mov    0x4(%edx),%edx
   1341a:	89 d1                	mov    %edx,%ecx
   1341c:	8b 55 0c             	mov    0xc(%ebp),%edx
   1341f:	8b 12                	mov    (%edx),%edx
   13421:	50                   	push   %eax
   13422:	51                   	push   %ecx
   13423:	52                   	push   %edx
   13424:	68 b9 7f 01 00       	push   $0x17fb9
   13429:	e8 27 e4 ff ff       	call   11855 <c_printf>
   1342e:	83 c4 10             	add    $0x10,%esp
   13431:	8b 45 0c             	mov    0xc(%ebp),%eax
   13434:	8b 40 0c             	mov    0xc(%eax),%eax
   13437:	85 c0                	test   %eax,%eax
   13439:	74 19                	je     13454 <_q_dump+0x7a>
   1343b:	8b 45 0c             	mov    0xc(%ebp),%eax
   1343e:	8b 40 0c             	mov    0xc(%eax),%eax
   13441:	83 ec 08             	sub    $0x8,%esp
   13444:	50                   	push   %eax
   13445:	68 d6 7f 01 00       	push   $0x17fd6
   1344a:	e8 06 e4 ff ff       	call   11855 <c_printf>
   1344f:	83 c4 10             	add    $0x10,%esp
   13452:	eb 10                	jmp    13464 <_q_dump+0x8a>
   13454:	83 ec 0c             	sub    $0xc,%esp
   13457:	68 e1 7f 01 00       	push   $0x17fe1
   1345c:	e8 b2 db ff ff       	call   11013 <c_puts>
   13461:	83 c4 10             	add    $0x10,%esp
   13464:	8b 45 0c             	mov    0xc(%ebp),%eax
   13467:	8b 40 08             	mov    0x8(%eax),%eax
   1346a:	85 c0                	test   %eax,%eax
   1346c:	74 76                	je     134e4 <_q_dump+0x10a>
   1346e:	83 ec 0c             	sub    $0xc,%esp
   13471:	68 e8 7f 01 00       	push   $0x17fe8
   13476:	e8 98 db ff ff       	call   11013 <c_puts>
   1347b:	83 c4 10             	add    $0x10,%esp
   1347e:	c7 45 f0 00 00 00 00 	movl   $0x0,-0x10(%ebp)
   13485:	8b 45 0c             	mov    0xc(%ebp),%eax
   13488:	8b 00                	mov    (%eax),%eax
   1348a:	89 45 f4             	mov    %eax,-0xc(%ebp)
   1348d:	eb 23                	jmp    134b2 <_q_dump+0xd8>
   1348f:	8b 45 f4             	mov    -0xc(%ebp),%eax
   13492:	8b 00                	mov    (%eax),%eax
   13494:	83 ec 08             	sub    $0x8,%esp
   13497:	50                   	push   %eax
   13498:	68 f0 7f 01 00       	push   $0x17ff0
   1349d:	e8 b3 e3 ff ff       	call   11855 <c_printf>
   134a2:	83 c4 10             	add    $0x10,%esp
   134a5:	83 45 f0 01          	addl   $0x1,-0x10(%ebp)
   134a9:	8b 45 f4             	mov    -0xc(%ebp),%eax
   134ac:	8b 40 04             	mov    0x4(%eax),%eax
   134af:	89 45 f4             	mov    %eax,-0xc(%ebp)
   134b2:	83 7d f0 04          	cmpl   $0x4,-0x10(%ebp)
   134b6:	7f 06                	jg     134be <_q_dump+0xe4>
   134b8:	83 7d f4 00          	cmpl   $0x0,-0xc(%ebp)
   134bc:	75 d1                	jne    1348f <_q_dump+0xb5>
   134be:	83 7d f4 00          	cmpl   $0x0,-0xc(%ebp)
   134c2:	74 10                	je     134d4 <_q_dump+0xfa>
   134c4:	83 ec 0c             	sub    $0xc,%esp
   134c7:	68 f8 7f 01 00       	push   $0x17ff8
   134cc:	e8 42 db ff ff       	call   11013 <c_puts>
   134d1:	83 c4 10             	add    $0x10,%esp
   134d4:	83 ec 0c             	sub    $0xc,%esp
   134d7:	68 fd 7f 01 00       	push   $0x17ffd
   134dc:	e8 32 db ff ff       	call   11013 <c_puts>
   134e1:	83 c4 10             	add    $0x10,%esp
   134e4:	c9                   	leave  
   134e5:	c3                   	ret    

000134e6 <_q_dump_all>:
   134e6:	55                   	push   %ebp
   134e7:	89 e5                	mov    %esp,%ebp
   134e9:	83 ec 28             	sub    $0x28,%esp
   134ec:	83 7d 08 00          	cmpl   $0x0,0x8(%ebp)
   134f0:	74 0e                	je     13500 <_q_dump_all+0x1a>
   134f2:	83 ec 0c             	sub    $0xc,%esp
   134f5:	ff 75 08             	pushl  0x8(%ebp)
   134f8:	e8 16 db ff ff       	call   11013 <c_puts>
   134fd:	83 c4 10             	add    $0x10,%esp
   13500:	83 ec 08             	sub    $0x8,%esp
   13503:	68 ff 7f 01 00       	push   $0x17fff
   13508:	8d 45 e0             	lea    -0x20(%ebp),%eax
   1350b:	50                   	push   %eax
   1350c:	e8 a6 ec ff ff       	call   121b7 <_kstrcpy>
   13511:	83 c4 10             	add    $0x10,%esp
   13514:	c7 45 f0 05 00 00 00 	movl   $0x5,-0x10(%ebp)
   1351b:	c7 45 f4 00 00 00 00 	movl   $0x0,-0xc(%ebp)
   13522:	eb 27                	jmp    1354b <_q_dump_all+0x65>
   13524:	8b 45 f4             	mov    -0xc(%ebp),%eax
   13527:	83 c0 30             	add    $0x30,%eax
   1352a:	88 45 e6             	mov    %al,-0x1a(%ebp)
   1352d:	8b 45 f4             	mov    -0xc(%ebp),%eax
   13530:	8b 04 85 50 cc 01 00 	mov    0x1cc50(,%eax,4),%eax
   13537:	83 ec 08             	sub    $0x8,%esp
   1353a:	50                   	push   %eax
   1353b:	8d 45 e0             	lea    -0x20(%ebp),%eax
   1353e:	50                   	push   %eax
   1353f:	e8 96 fe ff ff       	call   133da <_q_dump>
   13544:	83 c4 10             	add    $0x10,%esp
   13547:	83 45 f4 01          	addl   $0x1,-0xc(%ebp)
   1354b:	8b 45 f4             	mov    -0xc(%ebp),%eax
   1354e:	3b 45 f0             	cmp    -0x10(%ebp),%eax
   13551:	7c d1                	jl     13524 <_q_dump_all+0x3e>
   13553:	a1 48 cc 01 00       	mov    0x1cc48,%eax
   13558:	83 ec 08             	sub    $0x8,%esp
   1355b:	50                   	push   %eax
   1355c:	68 08 80 01 00       	push   $0x18008
   13561:	e8 74 fe ff ff       	call   133da <_q_dump>
   13566:	83 c4 10             	add    $0x10,%esp
   13569:	a1 4c cc 01 00       	mov    0x1cc4c,%eax
   1356e:	83 ec 08             	sub    $0x8,%esp
   13571:	50                   	push   %eax
   13572:	68 11 80 01 00       	push   $0x18011
   13577:	e8 5e fe ff ff       	call   133da <_q_dump>
   1357c:	83 c4 10             	add    $0x10,%esp
   1357f:	a1 44 cc 01 00       	mov    0x1cc44,%eax
   13584:	83 ec 08             	sub    $0x8,%esp
   13587:	50                   	push   %eax
   13588:	68 19 80 01 00       	push   $0x18019
   1358d:	e8 48 fe ff ff       	call   133da <_q_dump>
   13592:	83 c4 10             	add    $0x10,%esp
   13595:	a1 68 cc 01 00       	mov    0x1cc68,%eax
   1359a:	83 ec 08             	sub    $0x8,%esp
   1359d:	50                   	push   %eax
   1359e:	68 20 80 01 00       	push   $0x18020
   135a3:	e8 32 fe ff ff       	call   133da <_q_dump>
   135a8:	83 c4 10             	add    $0x10,%esp
   135ab:	90                   	nop
   135ac:	c9                   	leave  
   135ad:	c3                   	ret    

000135ae <_q_order_wakeup>:
   135ae:	55                   	push   %ebp
   135af:	89 e5                	mov    %esp,%ebp
   135b1:	83 ec 10             	sub    $0x10,%esp
   135b4:	8b 45 08             	mov    0x8(%ebp),%eax
   135b7:	89 45 fc             	mov    %eax,-0x4(%ebp)
   135ba:	8b 45 0c             	mov    0xc(%ebp),%eax
   135bd:	89 45 f8             	mov    %eax,-0x8(%ebp)
   135c0:	8b 45 fc             	mov    -0x4(%ebp),%eax
   135c3:	8b 50 08             	mov    0x8(%eax),%edx
   135c6:	8b 45 f8             	mov    -0x8(%ebp),%eax
   135c9:	8b 40 08             	mov    0x8(%eax),%eax
   135cc:	39 c2                	cmp    %eax,%edx
   135ce:	73 07                	jae    135d7 <_q_order_wakeup+0x29>
   135d0:	b8 ff ff ff ff       	mov    $0xffffffff,%eax
   135d5:	eb 1c                	jmp    135f3 <_q_order_wakeup+0x45>
   135d7:	8b 45 fc             	mov    -0x4(%ebp),%eax
   135da:	8b 50 08             	mov    0x8(%eax),%edx
   135dd:	8b 45 f8             	mov    -0x8(%ebp),%eax
   135e0:	8b 40 08             	mov    0x8(%eax),%eax
   135e3:	39 c2                	cmp    %eax,%edx
   135e5:	75 07                	jne    135ee <_q_order_wakeup+0x40>
   135e7:	b8 00 00 00 00       	mov    $0x0,%eax
   135ec:	eb 05                	jmp    135f3 <_q_order_wakeup+0x45>
   135ee:	b8 01 00 00 00       	mov    $0x1,%eax
   135f3:	c9                   	leave  
   135f4:	c3                   	ret    

000135f5 <_q_find_pid>:
   135f5:	55                   	push   %ebp
   135f6:	89 e5                	mov    %esp,%ebp
   135f8:	83 ec 10             	sub    $0x10,%esp
   135fb:	8b 45 0c             	mov    0xc(%ebp),%eax
   135fe:	89 45 fc             	mov    %eax,-0x4(%ebp)
   13601:	8b 45 08             	mov    0x8(%ebp),%eax
   13604:	25 ff ff 00 00       	and    $0xffff,%eax
   13609:	89 45 f8             	mov    %eax,-0x8(%ebp)
   1360c:	8b 45 fc             	mov    -0x4(%ebp),%eax
   1360f:	0f b7 40 10          	movzwl 0x10(%eax),%eax
   13613:	0f b7 c0             	movzwl %ax,%eax
   13616:	3b 45 f8             	cmp    -0x8(%ebp),%eax
   13619:	0f 94 c0             	sete   %al
   1361c:	0f b6 c0             	movzbl %al,%eax
   1361f:	c9                   	leave  
   13620:	c3                   	ret    

00013621 <_q_find_ppid>:
   13621:	55                   	push   %ebp
   13622:	89 e5                	mov    %esp,%ebp
   13624:	83 ec 10             	sub    $0x10,%esp
   13627:	8b 45 0c             	mov    0xc(%ebp),%eax
   1362a:	89 45 fc             	mov    %eax,-0x4(%ebp)
   1362d:	8b 45 08             	mov    0x8(%ebp),%eax
   13630:	25 ff ff 00 00       	and    $0xffff,%eax
   13635:	89 45 f8             	mov    %eax,-0x8(%ebp)
   13638:	8b 45 fc             	mov    -0x4(%ebp),%eax
   1363b:	0f b7 40 12          	movzwl 0x12(%eax),%eax
   1363f:	0f b7 c0             	movzwl %ax,%eax
   13642:	3b 45 f8             	cmp    -0x8(%ebp),%eax
   13645:	0f 94 c0             	sete   %al
   13648:	0f b6 c0             	movzbl %al,%eax
   1364b:	c9                   	leave  
   1364c:	c3                   	ret    

0001364d <_sched_init>:
   1364d:	55                   	push   %ebp
   1364e:	89 e5                	mov    %esp,%ebp
   13650:	83 ec 18             	sub    $0x18,%esp
   13653:	83 ec 0c             	sub    $0xc,%esp
   13656:	68 28 80 01 00       	push   $0x18028
   1365b:	e8 b3 d9 ff ff       	call   11013 <c_puts>
   13660:	83 c4 10             	add    $0x10,%esp
   13663:	c7 45 f4 00 00 00 00 	movl   $0x0,-0xc(%ebp)
   1366a:	eb 53                	jmp    136bf <_sched_init+0x72>
   1366c:	83 ec 0c             	sub    $0xc,%esp
   1366f:	6a 00                	push   $0x0
   13671:	e8 7b f8 ff ff       	call   12ef1 <_q_alloc>
   13676:	83 c4 10             	add    $0x10,%esp
   13679:	89 c2                	mov    %eax,%edx
   1367b:	8b 45 f4             	mov    -0xc(%ebp),%eax
   1367e:	89 14 85 50 cc 01 00 	mov    %edx,0x1cc50(,%eax,4)
   13685:	8b 45 f4             	mov    -0xc(%ebp),%eax
   13688:	8b 04 85 50 cc 01 00 	mov    0x1cc50(,%eax,4),%eax
   1368f:	85 c0                	test   %eax,%eax
   13691:	75 28                	jne    136bb <_sched_init+0x6e>
   13693:	83 ec 08             	sub    $0x8,%esp
   13696:	ff 75 f4             	pushl  -0xc(%ebp)
   13699:	68 30 80 01 00       	push   $0x18030
   1369e:	e8 b2 e1 ff ff       	call   11855 <c_printf>
   136a3:	83 c4 10             	add    $0x10,%esp
   136a6:	83 ec 08             	sub    $0x8,%esp
   136a9:	68 51 80 01 00       	push   $0x18051
   136ae:	68 63 80 01 00       	push   $0x18063
   136b3:	e8 87 eb ff ff       	call   1223f <_kpanic>
   136b8:	83 c4 10             	add    $0x10,%esp
   136bb:	83 45 f4 01          	addl   $0x1,-0xc(%ebp)
   136bf:	83 7d f4 04          	cmpl   $0x4,-0xc(%ebp)
   136c3:	7e a7                	jle    1366c <_sched_init+0x1f>
   136c5:	90                   	nop
   136c6:	c9                   	leave  
   136c7:	c3                   	ret    

000136c8 <_schedule>:
   136c8:	55                   	push   %ebp
   136c9:	89 e5                	mov    %esp,%ebp
   136cb:	83 ec 08             	sub    $0x8,%esp
   136ce:	83 7d 08 00          	cmpl   $0x0,0x8(%ebp)
   136d2:	74 6f                	je     13743 <_schedule+0x7b>
   136d4:	8b 45 08             	mov    0x8(%ebp),%eax
   136d7:	0f b6 40 17          	movzbl 0x17(%eax),%eax
   136db:	3c 04                	cmp    $0x4,%al
   136dd:	76 3b                	jbe    1371a <_schedule+0x52>
   136df:	8b 45 08             	mov    0x8(%ebp),%eax
   136e2:	0f b6 40 17          	movzbl 0x17(%eax),%eax
   136e6:	0f b6 d0             	movzbl %al,%edx
   136e9:	8b 45 08             	mov    0x8(%ebp),%eax
   136ec:	0f b7 40 10          	movzwl 0x10(%eax),%eax
   136f0:	0f b7 c0             	movzwl %ax,%eax
   136f3:	83 ec 04             	sub    $0x4,%esp
   136f6:	52                   	push   %edx
   136f7:	50                   	push   %eax
   136f8:	68 6f 80 01 00       	push   $0x1806f
   136fd:	e8 53 e1 ff ff       	call   11855 <c_printf>
   13702:	83 c4 10             	add    $0x10,%esp
   13705:	83 ec 08             	sub    $0x8,%esp
   13708:	68 8a 80 01 00       	push   $0x1808a
   1370d:	68 a5 80 01 00       	push   $0x180a5
   13712:	e8 28 eb ff ff       	call   1223f <_kpanic>
   13717:	83 c4 10             	add    $0x10,%esp
   1371a:	8b 45 08             	mov    0x8(%ebp),%eax
   1371d:	c6 40 16 08          	movb   $0x8,0x16(%eax)
   13721:	8b 45 08             	mov    0x8(%ebp),%eax
   13724:	0f b6 40 17          	movzbl 0x17(%eax),%eax
   13728:	0f b6 c0             	movzbl %al,%eax
   1372b:	8b 04 85 50 cc 01 00 	mov    0x1cc50(,%eax,4),%eax
   13732:	83 ec 08             	sub    $0x8,%esp
   13735:	ff 75 08             	pushl  0x8(%ebp)
   13738:	50                   	push   %eax
   13739:	e8 c7 f8 ff ff       	call   13005 <_q_insert>
   1373e:	83 c4 10             	add    $0x10,%esp
   13741:	eb 01                	jmp    13744 <_schedule+0x7c>
   13743:	90                   	nop
   13744:	c9                   	leave  
   13745:	c3                   	ret    

00013746 <_dispatch>:
   13746:	55                   	push   %ebp
   13747:	89 e5                	mov    %esp,%ebp
   13749:	83 ec 18             	sub    $0x18,%esp
   1374c:	c7 45 f4 00 00 00 00 	movl   $0x0,-0xc(%ebp)
   13753:	c7 45 f0 00 00 00 00 	movl   $0x0,-0x10(%ebp)
   1375a:	eb 39                	jmp    13795 <_dispatch+0x4f>
   1375c:	8b 45 f0             	mov    -0x10(%ebp),%eax
   1375f:	8b 04 85 50 cc 01 00 	mov    0x1cc50(,%eax,4),%eax
   13766:	83 ec 0c             	sub    $0xc,%esp
   13769:	50                   	push   %eax
   1376a:	e8 8b f8 ff ff       	call   12ffa <_q_size>
   1376f:	83 c4 10             	add    $0x10,%esp
   13772:	85 c0                	test   %eax,%eax
   13774:	74 1b                	je     13791 <_dispatch+0x4b>
   13776:	8b 45 f0             	mov    -0x10(%ebp),%eax
   13779:	8b 04 85 50 cc 01 00 	mov    0x1cc50(,%eax,4),%eax
   13780:	83 ec 0c             	sub    $0xc,%esp
   13783:	50                   	push   %eax
   13784:	e8 fc f9 ff ff       	call   13185 <_q_remove>
   13789:	83 c4 10             	add    $0x10,%esp
   1378c:	89 45 f4             	mov    %eax,-0xc(%ebp)
   1378f:	eb 0a                	jmp    1379b <_dispatch+0x55>
   13791:	83 45 f0 01          	addl   $0x1,-0x10(%ebp)
   13795:	83 7d f0 04          	cmpl   $0x4,-0x10(%ebp)
   13799:	7e c1                	jle    1375c <_dispatch+0x16>
   1379b:	83 7d f4 00          	cmpl   $0x0,-0xc(%ebp)
   1379f:	75 15                	jne    137b6 <_dispatch+0x70>
   137a1:	83 ec 08             	sub    $0x8,%esp
   137a4:	68 af 80 01 00       	push   $0x180af
   137a9:	68 c0 80 01 00       	push   $0x180c0
   137ae:	e8 8c ea ff ff       	call   1223f <_kpanic>
   137b3:	83 c4 10             	add    $0x10,%esp
   137b6:	8b 45 f4             	mov    -0xc(%ebp),%eax
   137b9:	c6 40 16 02          	movb   $0x2,0x16(%eax)
   137bd:	8b 45 f4             	mov    -0xc(%ebp),%eax
   137c0:	c6 40 18 05          	movb   $0x5,0x18(%eax)
   137c4:	8b 45 f4             	mov    -0xc(%ebp),%eax
   137c7:	a3 64 cc 01 00       	mov    %eax,0x1cc64
   137cc:	90                   	nop
   137cd:	c9                   	leave  
   137ce:	c3                   	ret    

000137cf <_sio_isr>:
   137cf:	55                   	push   %ebp
   137d0:	89 e5                	mov    %esp,%ebp
   137d2:	83 ec 28             	sub    $0x28,%esp
   137d5:	83 ec 0c             	sub    $0xc,%esp
   137d8:	68 fa 03 00 00       	push   $0x3fa
   137dd:	e8 5e c8 ff ff       	call   10040 <__inb>
   137e2:	83 c4 10             	add    $0x10,%esp
   137e5:	83 e0 0f             	and    $0xf,%eax
   137e8:	89 45 f0             	mov    %eax,-0x10(%ebp)
   137eb:	83 7d f0 0c          	cmpl   $0xc,-0x10(%ebp)
   137ef:	0f 87 f4 01 00 00    	ja     139e9 <_sio_isr+0x21a>
   137f5:	8b 45 f0             	mov    -0x10(%ebp),%eax
   137f8:	c1 e0 02             	shl    $0x2,%eax
   137fb:	05 6c 81 01 00       	add    $0x1816c,%eax
   13800:	8b 00                	mov    (%eax),%eax
   13802:	ff e0                	jmp    *%eax
   13804:	83 ec 0c             	sub    $0xc,%esp
   13807:	68 fd 03 00 00       	push   $0x3fd
   1380c:	e8 2f c8 ff ff       	call   10040 <__inb>
   13811:	83 c4 10             	add    $0x10,%esp
   13814:	89 45 ec             	mov    %eax,-0x14(%ebp)
   13817:	83 ec 08             	sub    $0x8,%esp
   1381a:	ff 75 ec             	pushl  -0x14(%ebp)
   1381d:	68 cc 80 01 00       	push   $0x180cc
   13822:	e8 2e e0 ff ff       	call   11855 <c_printf>
   13827:	83 c4 10             	add    $0x10,%esp
   1382a:	e9 d5 01 00 00       	jmp    13a04 <_sio_isr+0x235>
   1382f:	83 ec 0c             	sub    $0xc,%esp
   13832:	68 f8 03 00 00       	push   $0x3f8
   13837:	e8 04 c8 ff ff       	call   10040 <__inb>
   1383c:	83 c4 10             	add    $0x10,%esp
   1383f:	89 45 f4             	mov    %eax,-0xc(%ebp)
   13842:	83 7d f4 0d          	cmpl   $0xd,-0xc(%ebp)
   13846:	75 07                	jne    1384f <_sio_isr+0x80>
   13848:	c7 45 f4 0a 00 00 00 	movl   $0xa,-0xc(%ebp)
   1384f:	a1 68 cc 01 00       	mov    0x1cc68,%eax
   13854:	83 ec 0c             	sub    $0xc,%esp
   13857:	50                   	push   %eax
   13858:	e8 9d f7 ff ff       	call   12ffa <_q_size>
   1385d:	83 c4 10             	add    $0x10,%esp
   13860:	85 c0                	test   %eax,%eax
   13862:	74 50                	je     138b4 <_sio_isr+0xe5>
   13864:	a1 68 cc 01 00       	mov    0x1cc68,%eax
   13869:	83 ec 0c             	sub    $0xc,%esp
   1386c:	50                   	push   %eax
   1386d:	e8 13 f9 ff ff       	call   13185 <_q_remove>
   13872:	83 c4 10             	add    $0x10,%esp
   13875:	89 45 e8             	mov    %eax,-0x18(%ebp)
   13878:	83 7d e8 00          	cmpl   $0x0,-0x18(%ebp)
   1387c:	75 15                	jne    13893 <_sio_isr+0xc4>
   1387e:	83 ec 08             	sub    $0x8,%esp
   13881:	68 ec 80 01 00       	push   $0x180ec
   13886:	68 05 81 01 00       	push   $0x18105
   1388b:	e8 af e9 ff ff       	call   1223f <_kpanic>
   13890:	83 c4 10             	add    $0x10,%esp
   13893:	8b 45 e8             	mov    -0x18(%ebp),%eax
   13896:	8b 00                	mov    (%eax),%eax
   13898:	8b 55 f4             	mov    -0xc(%ebp),%edx
   1389b:	0f b6 d2             	movzbl %dl,%edx
   1389e:	89 50 30             	mov    %edx,0x30(%eax)
   138a1:	83 ec 0c             	sub    $0xc,%esp
   138a4:	ff 75 e8             	pushl  -0x18(%ebp)
   138a7:	e8 1c fe ff ff       	call   136c8 <_schedule>
   138ac:	83 c4 10             	add    $0x10,%esp
   138af:	e9 4f 01 00 00       	jmp    13a03 <_sio_isr+0x234>
   138b4:	a1 c8 be 01 00       	mov    0x1bec8,%eax
   138b9:	3d ff 07 00 00       	cmp    $0x7ff,%eax
   138be:	0f 87 3f 01 00 00    	ja     13a03 <_sio_isr+0x234>
   138c4:	a1 c0 be 01 00       	mov    0x1bec0,%eax
   138c9:	8d 50 01             	lea    0x1(%eax),%edx
   138cc:	89 15 c0 be 01 00    	mov    %edx,0x1bec0
   138d2:	8b 55 f4             	mov    -0xc(%ebp),%edx
   138d5:	88 10                	mov    %dl,(%eax)
   138d7:	a1 c8 be 01 00       	mov    0x1bec8,%eax
   138dc:	83 c0 01             	add    $0x1,%eax
   138df:	a3 c8 be 01 00       	mov    %eax,0x1bec8
   138e4:	e9 1a 01 00 00       	jmp    13a03 <_sio_isr+0x234>
   138e9:	83 ec 0c             	sub    $0xc,%esp
   138ec:	68 f8 03 00 00       	push   $0x3f8
   138f1:	e8 4a c7 ff ff       	call   10040 <__inb>
   138f6:	83 c4 10             	add    $0x10,%esp
   138f9:	89 45 f4             	mov    %eax,-0xc(%ebp)
   138fc:	83 ec 08             	sub    $0x8,%esp
   138ff:	ff 75 f4             	pushl  -0xc(%ebp)
   13902:	68 10 81 01 00       	push   $0x18110
   13907:	e8 49 df ff ff       	call   11855 <c_printf>
   1390c:	83 c4 10             	add    $0x10,%esp
   1390f:	e9 f0 00 00 00       	jmp    13a04 <_sio_isr+0x235>
   13914:	a1 ec c6 01 00       	mov    0x1c6ec,%eax
   13919:	85 c0                	test   %eax,%eax
   1391b:	74 5c                	je     13979 <_sio_isr+0x1aa>
   1391d:	a1 e8 c6 01 00       	mov    0x1c6e8,%eax
   13922:	85 c0                	test   %eax,%eax
   13924:	74 53                	je     13979 <_sio_isr+0x1aa>
   13926:	a1 e4 c6 01 00       	mov    0x1c6e4,%eax
   1392b:	0f b6 00             	movzbl (%eax),%eax
   1392e:	0f be c0             	movsbl %al,%eax
   13931:	83 ec 08             	sub    $0x8,%esp
   13934:	50                   	push   %eax
   13935:	68 f8 03 00 00       	push   $0x3f8
   1393a:	e8 26 c7 ff ff       	call   10065 <__outb>
   1393f:	83 c4 10             	add    $0x10,%esp
   13942:	a1 e4 c6 01 00       	mov    0x1c6e4,%eax
   13947:	83 c0 01             	add    $0x1,%eax
   1394a:	a3 e4 c6 01 00       	mov    %eax,0x1c6e4
   1394f:	a1 e4 c6 01 00       	mov    0x1c6e4,%eax
   13954:	ba e0 c6 01 00       	mov    $0x1c6e0,%edx
   13959:	39 d0                	cmp    %edx,%eax
   1395b:	72 0a                	jb     13967 <_sio_isr+0x198>
   1395d:	c7 05 e4 c6 01 00 e0 	movl   $0x1bee0,0x1c6e4
   13964:	be 01 00 
   13967:	a1 e8 c6 01 00       	mov    0x1c6e8,%eax
   1396c:	83 e8 01             	sub    $0x1,%eax
   1396f:	a3 e8 c6 01 00       	mov    %eax,0x1c6e8
   13974:	e9 8b 00 00 00       	jmp    13a04 <_sio_isr+0x235>
   13979:	c7 05 e8 c6 01 00 00 	movl   $0x0,0x1c6e8
   13980:	00 00 00 
   13983:	c7 05 e4 c6 01 00 e0 	movl   $0x1bee0,0x1c6e4
   1398a:	be 01 00 
   1398d:	a1 e4 c6 01 00       	mov    0x1c6e4,%eax
   13992:	a3 e0 c6 01 00       	mov    %eax,0x1c6e0
   13997:	c7 05 ec c6 01 00 00 	movl   $0x0,0x1c6ec
   1399e:	00 00 00 
   139a1:	83 ec 0c             	sub    $0xc,%esp
   139a4:	6a 01                	push   $0x1
   139a6:	e8 76 02 00 00       	call   13c21 <_sio_disable>
   139ab:	83 c4 10             	add    $0x10,%esp
   139ae:	eb 54                	jmp    13a04 <_sio_isr+0x235>
   139b0:	83 ec 08             	sub    $0x8,%esp
   139b3:	6a 20                	push   $0x20
   139b5:	6a 20                	push   $0x20
   139b7:	e8 a9 c6 ff ff       	call   10065 <__outb>
   139bc:	83 c4 10             	add    $0x10,%esp
   139bf:	eb 48                	jmp    13a09 <_sio_isr+0x23a>
   139c1:	83 ec 0c             	sub    $0xc,%esp
   139c4:	68 fe 03 00 00       	push   $0x3fe
   139c9:	e8 72 c6 ff ff       	call   10040 <__inb>
   139ce:	83 c4 10             	add    $0x10,%esp
   139d1:	89 45 e4             	mov    %eax,-0x1c(%ebp)
   139d4:	83 ec 08             	sub    $0x8,%esp
   139d7:	ff 75 e4             	pushl  -0x1c(%ebp)
   139da:	68 34 81 01 00       	push   $0x18134
   139df:	e8 71 de ff ff       	call   11855 <c_printf>
   139e4:	83 c4 10             	add    $0x10,%esp
   139e7:	eb 1b                	jmp    13a04 <_sio_isr+0x235>
   139e9:	83 ec 08             	sub    $0x8,%esp
   139ec:	68 55 81 01 00       	push   $0x18155
   139f1:	68 05 81 01 00       	push   $0x18105
   139f6:	e8 44 e8 ff ff       	call   1223f <_kpanic>
   139fb:	83 c4 10             	add    $0x10,%esp
   139fe:	e9 d2 fd ff ff       	jmp    137d5 <_sio_isr+0x6>
   13a03:	90                   	nop
   13a04:	e9 cc fd ff ff       	jmp    137d5 <_sio_isr+0x6>
   13a09:	c9                   	leave  
   13a0a:	c3                   	ret    

00013a0b <_sio_init>:
   13a0b:	55                   	push   %ebp
   13a0c:	89 e5                	mov    %esp,%ebp
   13a0e:	83 ec 08             	sub    $0x8,%esp
   13a11:	83 ec 0c             	sub    $0xc,%esp
   13a14:	68 a0 81 01 00       	push   $0x181a0
   13a19:	e8 f5 d5 ff ff       	call   11013 <c_puts>
   13a1e:	83 c4 10             	add    $0x10,%esp
   13a21:	83 ec 04             	sub    $0x4,%esp
   13a24:	6a 00                	push   $0x0
   13a26:	68 00 08 00 00       	push   $0x800
   13a2b:	68 c0 b6 01 00       	push   $0x1b6c0
   13a30:	e8 11 e7 ff ff       	call   12146 <_kmemset>
   13a35:	83 c4 10             	add    $0x10,%esp
   13a38:	c7 05 c4 be 01 00 c0 	movl   $0x1b6c0,0x1bec4
   13a3f:	b6 01 00 
   13a42:	a1 c4 be 01 00       	mov    0x1bec4,%eax
   13a47:	a3 c0 be 01 00       	mov    %eax,0x1bec0
   13a4c:	c7 05 c8 be 01 00 00 	movl   $0x0,0x1bec8
   13a53:	00 00 00 
   13a56:	83 ec 04             	sub    $0x4,%esp
   13a59:	6a 00                	push   $0x0
   13a5b:	68 00 08 00 00       	push   $0x800
   13a60:	68 e0 be 01 00       	push   $0x1bee0
   13a65:	e8 dc e6 ff ff       	call   12146 <_kmemset>
   13a6a:	83 c4 10             	add    $0x10,%esp
   13a6d:	c7 05 e4 c6 01 00 e0 	movl   $0x1bee0,0x1c6e4
   13a74:	be 01 00 
   13a77:	a1 e4 c6 01 00       	mov    0x1c6e4,%eax
   13a7c:	a3 e0 c6 01 00       	mov    %eax,0x1c6e0
   13a81:	c7 05 e8 c6 01 00 00 	movl   $0x0,0x1c6e8
   13a88:	00 00 00 
   13a8b:	c7 05 ec c6 01 00 00 	movl   $0x0,0x1c6ec
   13a92:	00 00 00 
   13a95:	83 ec 0c             	sub    $0xc,%esp
   13a98:	6a 00                	push   $0x0
   13a9a:	e8 52 f4 ff ff       	call   12ef1 <_q_alloc>
   13a9f:	83 c4 10             	add    $0x10,%esp
   13aa2:	a3 68 cc 01 00       	mov    %eax,0x1cc68
   13aa7:	a1 68 cc 01 00       	mov    0x1cc68,%eax
   13aac:	85 c0                	test   %eax,%eax
   13aae:	75 15                	jne    13ac5 <_sio_init+0xba>
   13ab0:	83 ec 08             	sub    $0x8,%esp
   13ab3:	68 a5 81 01 00       	push   $0x181a5
   13ab8:	68 c0 81 01 00       	push   $0x181c0
   13abd:	e8 7d e7 ff ff       	call   1223f <_kpanic>
   13ac2:	83 c4 10             	add    $0x10,%esp
   13ac5:	83 ec 08             	sub    $0x8,%esp
   13ac8:	6a 20                	push   $0x20
   13aca:	68 fa 03 00 00       	push   $0x3fa
   13acf:	e8 91 c5 ff ff       	call   10065 <__outb>
   13ad4:	83 c4 10             	add    $0x10,%esp
   13ad7:	83 ec 08             	sub    $0x8,%esp
   13ada:	6a 00                	push   $0x0
   13adc:	68 fa 03 00 00       	push   $0x3fa
   13ae1:	e8 7f c5 ff ff       	call   10065 <__outb>
   13ae6:	83 c4 10             	add    $0x10,%esp
   13ae9:	83 ec 08             	sub    $0x8,%esp
   13aec:	6a 01                	push   $0x1
   13aee:	68 fa 03 00 00       	push   $0x3fa
   13af3:	e8 6d c5 ff ff       	call   10065 <__outb>
   13af8:	83 c4 10             	add    $0x10,%esp
   13afb:	83 ec 08             	sub    $0x8,%esp
   13afe:	6a 03                	push   $0x3
   13b00:	68 fa 03 00 00       	push   $0x3fa
   13b05:	e8 5b c5 ff ff       	call   10065 <__outb>
   13b0a:	83 c4 10             	add    $0x10,%esp
   13b0d:	83 ec 08             	sub    $0x8,%esp
   13b10:	6a 07                	push   $0x7
   13b12:	68 fa 03 00 00       	push   $0x3fa
   13b17:	e8 49 c5 ff ff       	call   10065 <__outb>
   13b1c:	83 c4 10             	add    $0x10,%esp
   13b1f:	83 ec 08             	sub    $0x8,%esp
   13b22:	6a 00                	push   $0x0
   13b24:	68 f9 03 00 00       	push   $0x3f9
   13b29:	e8 37 c5 ff ff       	call   10065 <__outb>
   13b2e:	83 c4 10             	add    $0x10,%esp
   13b31:	c6 05 f0 c6 01 00 00 	movb   $0x0,0x1c6f0
   13b38:	83 ec 08             	sub    $0x8,%esp
   13b3b:	68 80 00 00 00       	push   $0x80
   13b40:	68 fb 03 00 00       	push   $0x3fb
   13b45:	e8 1b c5 ff ff       	call   10065 <__outb>
   13b4a:	83 c4 10             	add    $0x10,%esp
   13b4d:	83 ec 08             	sub    $0x8,%esp
   13b50:	6a 0c                	push   $0xc
   13b52:	68 f8 03 00 00       	push   $0x3f8
   13b57:	e8 09 c5 ff ff       	call   10065 <__outb>
   13b5c:	83 c4 10             	add    $0x10,%esp
   13b5f:	83 ec 08             	sub    $0x8,%esp
   13b62:	6a 00                	push   $0x0
   13b64:	68 f9 03 00 00       	push   $0x3f9
   13b69:	e8 f7 c4 ff ff       	call   10065 <__outb>
   13b6e:	83 c4 10             	add    $0x10,%esp
   13b71:	83 ec 08             	sub    $0x8,%esp
   13b74:	6a 03                	push   $0x3
   13b76:	68 fb 03 00 00       	push   $0x3fb
   13b7b:	e8 e5 c4 ff ff       	call   10065 <__outb>
   13b80:	83 c4 10             	add    $0x10,%esp
   13b83:	83 ec 08             	sub    $0x8,%esp
   13b86:	6a 0b                	push   $0xb
   13b88:	68 fc 03 00 00       	push   $0x3fc
   13b8d:	e8 d3 c4 ff ff       	call   10065 <__outb>
   13b92:	83 c4 10             	add    $0x10,%esp
   13b95:	83 ec 08             	sub    $0x8,%esp
   13b98:	68 cf 37 01 00       	push   $0x137cf
   13b9d:	6a 24                	push   $0x24
   13b9f:	e8 3f e2 ff ff       	call   11de3 <__install_isr>
   13ba4:	83 c4 10             	add    $0x10,%esp
   13ba7:	90                   	nop
   13ba8:	c9                   	leave  
   13ba9:	c3                   	ret    

00013baa <_sio_enable>:
   13baa:	55                   	push   %ebp
   13bab:	89 e5                	mov    %esp,%ebp
   13bad:	83 ec 28             	sub    $0x28,%esp
   13bb0:	8b 45 08             	mov    0x8(%ebp),%eax
   13bb3:	88 45 e4             	mov    %al,-0x1c(%ebp)
   13bb6:	0f b6 05 f0 c6 01 00 	movzbl 0x1c6f0,%eax
   13bbd:	88 45 f7             	mov    %al,-0x9(%ebp)
   13bc0:	0f b6 45 e4          	movzbl -0x1c(%ebp),%eax
   13bc4:	83 e0 01             	and    $0x1,%eax
   13bc7:	85 c0                	test   %eax,%eax
   13bc9:	74 0f                	je     13bda <_sio_enable+0x30>
   13bcb:	0f b6 05 f0 c6 01 00 	movzbl 0x1c6f0,%eax
   13bd2:	83 c8 02             	or     $0x2,%eax
   13bd5:	a2 f0 c6 01 00       	mov    %al,0x1c6f0
   13bda:	0f b6 45 e4          	movzbl -0x1c(%ebp),%eax
   13bde:	83 e0 02             	and    $0x2,%eax
   13be1:	85 c0                	test   %eax,%eax
   13be3:	74 0f                	je     13bf4 <_sio_enable+0x4a>
   13be5:	0f b6 05 f0 c6 01 00 	movzbl 0x1c6f0,%eax
   13bec:	83 c8 01             	or     $0x1,%eax
   13bef:	a2 f0 c6 01 00       	mov    %al,0x1c6f0
   13bf4:	0f b6 05 f0 c6 01 00 	movzbl 0x1c6f0,%eax
   13bfb:	38 45 f7             	cmp    %al,-0x9(%ebp)
   13bfe:	74 1b                	je     13c1b <_sio_enable+0x71>
   13c00:	0f b6 05 f0 c6 01 00 	movzbl 0x1c6f0,%eax
   13c07:	0f b6 c0             	movzbl %al,%eax
   13c0a:	83 ec 08             	sub    $0x8,%esp
   13c0d:	50                   	push   %eax
   13c0e:	68 f9 03 00 00       	push   $0x3f9
   13c13:	e8 4d c4 ff ff       	call   10065 <__outb>
   13c18:	83 c4 10             	add    $0x10,%esp
   13c1b:	0f b6 45 f7          	movzbl -0x9(%ebp),%eax
   13c1f:	c9                   	leave  
   13c20:	c3                   	ret    

00013c21 <_sio_disable>:
   13c21:	55                   	push   %ebp
   13c22:	89 e5                	mov    %esp,%ebp
   13c24:	83 ec 28             	sub    $0x28,%esp
   13c27:	8b 45 08             	mov    0x8(%ebp),%eax
   13c2a:	88 45 e4             	mov    %al,-0x1c(%ebp)
   13c2d:	0f b6 05 f0 c6 01 00 	movzbl 0x1c6f0,%eax
   13c34:	88 45 f7             	mov    %al,-0x9(%ebp)
   13c37:	0f b6 45 e4          	movzbl -0x1c(%ebp),%eax
   13c3b:	83 e0 01             	and    $0x1,%eax
   13c3e:	85 c0                	test   %eax,%eax
   13c40:	74 0f                	je     13c51 <_sio_disable+0x30>
   13c42:	0f b6 05 f0 c6 01 00 	movzbl 0x1c6f0,%eax
   13c49:	83 e0 fd             	and    $0xfffffffd,%eax
   13c4c:	a2 f0 c6 01 00       	mov    %al,0x1c6f0
   13c51:	0f b6 45 e4          	movzbl -0x1c(%ebp),%eax
   13c55:	83 e0 02             	and    $0x2,%eax
   13c58:	85 c0                	test   %eax,%eax
   13c5a:	74 0f                	je     13c6b <_sio_disable+0x4a>
   13c5c:	0f b6 05 f0 c6 01 00 	movzbl 0x1c6f0,%eax
   13c63:	83 e0 fe             	and    $0xfffffffe,%eax
   13c66:	a2 f0 c6 01 00       	mov    %al,0x1c6f0
   13c6b:	0f b6 05 f0 c6 01 00 	movzbl 0x1c6f0,%eax
   13c72:	38 45 f7             	cmp    %al,-0x9(%ebp)
   13c75:	74 1b                	je     13c92 <_sio_disable+0x71>
   13c77:	0f b6 05 f0 c6 01 00 	movzbl 0x1c6f0,%eax
   13c7e:	0f b6 c0             	movzbl %al,%eax
   13c81:	83 ec 08             	sub    $0x8,%esp
   13c84:	50                   	push   %eax
   13c85:	68 f9 03 00 00       	push   $0x3f9
   13c8a:	e8 d6 c3 ff ff       	call   10065 <__outb>
   13c8f:	83 c4 10             	add    $0x10,%esp
   13c92:	0f b6 45 f7          	movzbl -0x9(%ebp),%eax
   13c96:	c9                   	leave  
   13c97:	c3                   	ret    

00013c98 <_sio_input_queue>:
   13c98:	55                   	push   %ebp
   13c99:	89 e5                	mov    %esp,%ebp
   13c9b:	a1 c8 be 01 00       	mov    0x1bec8,%eax
   13ca0:	5d                   	pop    %ebp
   13ca1:	c3                   	ret    

00013ca2 <_sio_readc>:
   13ca2:	55                   	push   %ebp
   13ca3:	89 e5                	mov    %esp,%ebp
   13ca5:	83 ec 10             	sub    $0x10,%esp
   13ca8:	c7 45 fc ff ff ff ff 	movl   $0xffffffff,-0x4(%ebp)
   13caf:	a1 c8 be 01 00       	mov    0x1bec8,%eax
   13cb4:	85 c0                	test   %eax,%eax
   13cb6:	74 46                	je     13cfe <_sio_readc+0x5c>
   13cb8:	a1 c4 be 01 00       	mov    0x1bec4,%eax
   13cbd:	8d 50 01             	lea    0x1(%eax),%edx
   13cc0:	89 15 c4 be 01 00    	mov    %edx,0x1bec4
   13cc6:	0f b6 00             	movzbl (%eax),%eax
   13cc9:	0f be c0             	movsbl %al,%eax
   13ccc:	25 ff 00 00 00       	and    $0xff,%eax
   13cd1:	89 45 fc             	mov    %eax,-0x4(%ebp)
   13cd4:	a1 c8 be 01 00       	mov    0x1bec8,%eax
   13cd9:	83 e8 01             	sub    $0x1,%eax
   13cdc:	a3 c8 be 01 00       	mov    %eax,0x1bec8
   13ce1:	a1 c8 be 01 00       	mov    0x1bec8,%eax
   13ce6:	85 c0                	test   %eax,%eax
   13ce8:	75 14                	jne    13cfe <_sio_readc+0x5c>
   13cea:	c7 05 c4 be 01 00 c0 	movl   $0x1b6c0,0x1bec4
   13cf1:	b6 01 00 
   13cf4:	a1 c4 be 01 00       	mov    0x1bec4,%eax
   13cf9:	a3 c0 be 01 00       	mov    %eax,0x1bec0
   13cfe:	8b 45 fc             	mov    -0x4(%ebp),%eax
   13d01:	c9                   	leave  
   13d02:	c3                   	ret    

00013d03 <_sio_reads>:
   13d03:	55                   	push   %ebp
   13d04:	89 e5                	mov    %esp,%ebp
   13d06:	83 ec 10             	sub    $0x10,%esp
   13d09:	8b 45 08             	mov    0x8(%ebp),%eax
   13d0c:	89 45 fc             	mov    %eax,-0x4(%ebp)
   13d0f:	c7 45 f8 00 00 00 00 	movl   $0x0,-0x8(%ebp)
   13d16:	a1 c8 be 01 00       	mov    0x1bec8,%eax
   13d1b:	85 c0                	test   %eax,%eax
   13d1d:	75 4d                	jne    13d6c <_sio_reads+0x69>
   13d1f:	b8 00 00 00 00       	mov    $0x0,%eax
   13d24:	eb 77                	jmp    13d9d <_sio_reads+0x9a>
   13d26:	8b 45 fc             	mov    -0x4(%ebp),%eax
   13d29:	8d 50 01             	lea    0x1(%eax),%edx
   13d2c:	89 55 fc             	mov    %edx,-0x4(%ebp)
   13d2f:	8b 15 c4 be 01 00    	mov    0x1bec4,%edx
   13d35:	8d 4a 01             	lea    0x1(%edx),%ecx
   13d38:	89 0d c4 be 01 00    	mov    %ecx,0x1bec4
   13d3e:	0f b6 12             	movzbl (%edx),%edx
   13d41:	88 10                	mov    %dl,(%eax)
   13d43:	a1 c4 be 01 00       	mov    0x1bec4,%eax
   13d48:	ba c0 be 01 00       	mov    $0x1bec0,%edx
   13d4d:	39 d0                	cmp    %edx,%eax
   13d4f:	76 0a                	jbe    13d5b <_sio_reads+0x58>
   13d51:	c7 05 c4 be 01 00 c0 	movl   $0x1b6c0,0x1bec4
   13d58:	b6 01 00 
   13d5b:	a1 c8 be 01 00       	mov    0x1bec8,%eax
   13d60:	83 e8 01             	sub    $0x1,%eax
   13d63:	a3 c8 be 01 00       	mov    %eax,0x1bec8
   13d68:	83 45 f8 01          	addl   $0x1,-0x8(%ebp)
   13d6c:	a1 c8 be 01 00       	mov    0x1bec8,%eax
   13d71:	85 c0                	test   %eax,%eax
   13d73:	74 08                	je     13d7d <_sio_reads+0x7a>
   13d75:	8b 45 f8             	mov    -0x8(%ebp),%eax
   13d78:	3b 45 0c             	cmp    0xc(%ebp),%eax
   13d7b:	7c a9                	jl     13d26 <_sio_reads+0x23>
   13d7d:	a1 c8 be 01 00       	mov    0x1bec8,%eax
   13d82:	85 c0                	test   %eax,%eax
   13d84:	75 14                	jne    13d9a <_sio_reads+0x97>
   13d86:	c7 05 c4 be 01 00 c0 	movl   $0x1b6c0,0x1bec4
   13d8d:	b6 01 00 
   13d90:	a1 c4 be 01 00       	mov    0x1bec4,%eax
   13d95:	a3 c0 be 01 00       	mov    %eax,0x1bec0
   13d9a:	8b 45 f8             	mov    -0x8(%ebp),%eax
   13d9d:	c9                   	leave  
   13d9e:	c3                   	ret    

00013d9f <_sio_writec>:
   13d9f:	55                   	push   %ebp
   13da0:	89 e5                	mov    %esp,%ebp
   13da2:	83 ec 08             	sub    $0x8,%esp
   13da5:	83 7d 08 0a          	cmpl   $0xa,0x8(%ebp)
   13da9:	75 0d                	jne    13db8 <_sio_writec+0x19>
   13dab:	83 ec 0c             	sub    $0xc,%esp
   13dae:	6a 0d                	push   $0xd
   13db0:	e8 ea ff ff ff       	call   13d9f <_sio_writec>
   13db5:	83 c4 10             	add    $0x10,%esp
   13db8:	a1 ec c6 01 00       	mov    0x1c6ec,%eax
   13dbd:	85 c0                	test   %eax,%eax
   13dbf:	74 22                	je     13de3 <_sio_writec+0x44>
   13dc1:	a1 e0 c6 01 00       	mov    0x1c6e0,%eax
   13dc6:	8d 50 01             	lea    0x1(%eax),%edx
   13dc9:	89 15 e0 c6 01 00    	mov    %edx,0x1c6e0
   13dcf:	8b 55 08             	mov    0x8(%ebp),%edx
   13dd2:	88 10                	mov    %dl,(%eax)
   13dd4:	a1 e8 c6 01 00       	mov    0x1c6e8,%eax
   13dd9:	83 c0 01             	add    $0x1,%eax
   13ddc:	a3 e8 c6 01 00       	mov    %eax,0x1c6e8
   13de1:	eb 2a                	jmp    13e0d <_sio_writec+0x6e>
   13de3:	c7 05 ec c6 01 00 01 	movl   $0x1,0x1c6ec
   13dea:	00 00 00 
   13ded:	83 ec 08             	sub    $0x8,%esp
   13df0:	ff 75 08             	pushl  0x8(%ebp)
   13df3:	68 f8 03 00 00       	push   $0x3f8
   13df8:	e8 68 c2 ff ff       	call   10065 <__outb>
   13dfd:	83 c4 10             	add    $0x10,%esp
   13e00:	83 ec 0c             	sub    $0xc,%esp
   13e03:	6a 01                	push   $0x1
   13e05:	e8 a0 fd ff ff       	call   13baa <_sio_enable>
   13e0a:	83 c4 10             	add    $0x10,%esp
   13e0d:	c9                   	leave  
   13e0e:	c3                   	ret    

00013e0f <_sio_writes>:
   13e0f:	55                   	push   %ebp
   13e10:	89 e5                	mov    %esp,%ebp
   13e12:	83 ec 18             	sub    $0x18,%esp
   13e15:	8b 45 08             	mov    0x8(%ebp),%eax
   13e18:	0f b6 00             	movzbl (%eax),%eax
   13e1b:	0f be c0             	movsbl %al,%eax
   13e1e:	89 45 ec             	mov    %eax,-0x14(%ebp)
   13e21:	8b 45 08             	mov    0x8(%ebp),%eax
   13e24:	89 45 f4             	mov    %eax,-0xc(%ebp)
   13e27:	c7 45 f0 00 00 00 00 	movl   $0x0,-0x10(%ebp)
   13e2e:	a1 ec c6 01 00       	mov    0x1c6ec,%eax
   13e33:	85 c0                	test   %eax,%eax
   13e35:	75 4f                	jne    13e86 <_sio_writes+0x77>
   13e37:	83 45 f4 01          	addl   $0x1,-0xc(%ebp)
   13e3b:	83 45 f0 01          	addl   $0x1,-0x10(%ebp)
   13e3f:	eb 45                	jmp    13e86 <_sio_writes+0x77>
   13e41:	a1 e0 c6 01 00       	mov    0x1c6e0,%eax
   13e46:	8d 50 01             	lea    0x1(%eax),%edx
   13e49:	89 15 e0 c6 01 00    	mov    %edx,0x1c6e0
   13e4f:	8b 55 f4             	mov    -0xc(%ebp),%edx
   13e52:	8d 4a 01             	lea    0x1(%edx),%ecx
   13e55:	89 4d f4             	mov    %ecx,-0xc(%ebp)
   13e58:	0f b6 12             	movzbl (%edx),%edx
   13e5b:	88 10                	mov    %dl,(%eax)
   13e5d:	a1 e0 c6 01 00       	mov    0x1c6e0,%eax
   13e62:	ba e0 c6 01 00       	mov    $0x1c6e0,%edx
   13e67:	39 d0                	cmp    %edx,%eax
   13e69:	72 0a                	jb     13e75 <_sio_writes+0x66>
   13e6b:	c7 05 e0 c6 01 00 e0 	movl   $0x1bee0,0x1c6e0
   13e72:	be 01 00 
   13e75:	a1 e8 c6 01 00       	mov    0x1c6e8,%eax
   13e7a:	83 c0 01             	add    $0x1,%eax
   13e7d:	a3 e8 c6 01 00       	mov    %eax,0x1c6e8
   13e82:	83 45 f0 01          	addl   $0x1,-0x10(%ebp)
   13e86:	8b 45 f0             	mov    -0x10(%ebp),%eax
   13e89:	3b 45 0c             	cmp    0xc(%ebp),%eax
   13e8c:	7d 0c                	jge    13e9a <_sio_writes+0x8b>
   13e8e:	a1 e8 c6 01 00       	mov    0x1c6e8,%eax
   13e93:	3d ff 07 00 00       	cmp    $0x7ff,%eax
   13e98:	76 a7                	jbe    13e41 <_sio_writes+0x32>
   13e9a:	a1 ec c6 01 00       	mov    0x1c6ec,%eax
   13e9f:	85 c0                	test   %eax,%eax
   13ea1:	75 0e                	jne    13eb1 <_sio_writes+0xa2>
   13ea3:	83 ec 0c             	sub    $0xc,%esp
   13ea6:	ff 75 ec             	pushl  -0x14(%ebp)
   13ea9:	e8 f1 fe ff ff       	call   13d9f <_sio_writec>
   13eae:	83 c4 10             	add    $0x10,%esp
   13eb1:	8b 45 f0             	mov    -0x10(%ebp),%eax
   13eb4:	c9                   	leave  
   13eb5:	c3                   	ret    

00013eb6 <_sio_puts>:
   13eb6:	55                   	push   %ebp
   13eb7:	89 e5                	mov    %esp,%ebp
   13eb9:	83 ec 18             	sub    $0x18,%esp
   13ebc:	c7 45 f4 00 00 00 00 	movl   $0x0,-0xc(%ebp)
   13ec3:	eb 1f                	jmp    13ee4 <_sio_puts+0x2e>
   13ec5:	8b 45 08             	mov    0x8(%ebp),%eax
   13ec8:	8d 50 01             	lea    0x1(%eax),%edx
   13ecb:	89 55 08             	mov    %edx,0x8(%ebp)
   13ece:	0f b6 00             	movzbl (%eax),%eax
   13ed1:	0f be c0             	movsbl %al,%eax
   13ed4:	83 ec 0c             	sub    $0xc,%esp
   13ed7:	50                   	push   %eax
   13ed8:	e8 c2 fe ff ff       	call   13d9f <_sio_writec>
   13edd:	83 c4 10             	add    $0x10,%esp
   13ee0:	83 45 f4 01          	addl   $0x1,-0xc(%ebp)
   13ee4:	8b 45 08             	mov    0x8(%ebp),%eax
   13ee7:	0f b6 00             	movzbl (%eax),%eax
   13eea:	84 c0                	test   %al,%al
   13eec:	75 d7                	jne    13ec5 <_sio_puts+0xf>
   13eee:	8b 45 f4             	mov    -0xc(%ebp),%eax
   13ef1:	c9                   	leave  
   13ef2:	c3                   	ret    

00013ef3 <_sio_dump>:
   13ef3:	55                   	push   %ebp
   13ef4:	89 e5                	mov    %esp,%ebp
   13ef6:	83 ec 18             	sub    $0x18,%esp
   13ef9:	8b 15 e8 c6 01 00    	mov    0x1c6e8,%edx
   13eff:	a1 c8 be 01 00       	mov    0x1bec8,%eax
   13f04:	83 ec 04             	sub    $0x4,%esp
   13f07:	52                   	push   %edx
   13f08:	50                   	push   %eax
   13f09:	68 ca 81 01 00       	push   $0x181ca
   13f0e:	e8 42 d9 ff ff       	call   11855 <c_printf>
   13f13:	83 c4 10             	add    $0x10,%esp
   13f16:	a1 c8 be 01 00       	mov    0x1bec8,%eax
   13f1b:	85 c0                	test   %eax,%eax
   13f1d:	74 5c                	je     13f7b <_sio_dump+0x88>
   13f1f:	83 ec 0c             	sub    $0xc,%esp
   13f22:	68 e5 81 01 00       	push   $0x181e5
   13f27:	e8 e7 d0 ff ff       	call   11013 <c_puts>
   13f2c:	83 c4 10             	add    $0x10,%esp
   13f2f:	a1 c4 be 01 00       	mov    0x1bec4,%eax
   13f34:	89 45 f0             	mov    %eax,-0x10(%ebp)
   13f37:	c7 45 f4 00 00 00 00 	movl   $0x0,-0xc(%ebp)
   13f3e:	eb 1f                	jmp    13f5f <_sio_dump+0x6c>
   13f40:	8b 45 f0             	mov    -0x10(%ebp),%eax
   13f43:	8d 50 01             	lea    0x1(%eax),%edx
   13f46:	89 55 f0             	mov    %edx,-0x10(%ebp)
   13f49:	0f b6 00             	movzbl (%eax),%eax
   13f4c:	0f be c0             	movsbl %al,%eax
   13f4f:	83 ec 0c             	sub    $0xc,%esp
   13f52:	50                   	push   %eax
   13f53:	e8 b5 e1 ff ff       	call   1210d <_put_char_or_code>
   13f58:	83 c4 10             	add    $0x10,%esp
   13f5b:	83 45 f4 01          	addl   $0x1,-0xc(%ebp)
   13f5f:	8b 55 f4             	mov    -0xc(%ebp),%edx
   13f62:	a1 c8 be 01 00       	mov    0x1bec8,%eax
   13f67:	39 c2                	cmp    %eax,%edx
   13f69:	72 d5                	jb     13f40 <_sio_dump+0x4d>
   13f6b:	83 ec 0c             	sub    $0xc,%esp
   13f6e:	68 ec 81 01 00       	push   $0x181ec
   13f73:	e8 9b d0 ff ff       	call   11013 <c_puts>
   13f78:	83 c4 10             	add    $0x10,%esp
   13f7b:	a1 e8 c6 01 00       	mov    0x1c6e8,%eax
   13f80:	85 c0                	test   %eax,%eax
   13f82:	74 5c                	je     13fe0 <_sio_dump+0xed>
   13f84:	83 ec 0c             	sub    $0xc,%esp
   13f87:	68 ef 81 01 00       	push   $0x181ef
   13f8c:	e8 82 d0 ff ff       	call   11013 <c_puts>
   13f91:	83 c4 10             	add    $0x10,%esp
   13f94:	a1 e4 c6 01 00       	mov    0x1c6e4,%eax
   13f99:	89 45 f0             	mov    %eax,-0x10(%ebp)
   13f9c:	c7 45 f4 00 00 00 00 	movl   $0x0,-0xc(%ebp)
   13fa3:	eb 1f                	jmp    13fc4 <_sio_dump+0xd1>
   13fa5:	8b 45 f0             	mov    -0x10(%ebp),%eax
   13fa8:	8d 50 01             	lea    0x1(%eax),%edx
   13fab:	89 55 f0             	mov    %edx,-0x10(%ebp)
   13fae:	0f b6 00             	movzbl (%eax),%eax
   13fb1:	0f be c0             	movsbl %al,%eax
   13fb4:	83 ec 0c             	sub    $0xc,%esp
   13fb7:	50                   	push   %eax
   13fb8:	e8 50 e1 ff ff       	call   1210d <_put_char_or_code>
   13fbd:	83 c4 10             	add    $0x10,%esp
   13fc0:	83 45 f4 01          	addl   $0x1,-0xc(%ebp)
   13fc4:	8b 55 f4             	mov    -0xc(%ebp),%edx
   13fc7:	a1 e8 c6 01 00       	mov    0x1c6e8,%eax
   13fcc:	39 c2                	cmp    %eax,%edx
   13fce:	72 d5                	jb     13fa5 <_sio_dump+0xb2>
   13fd0:	83 ec 0c             	sub    $0xc,%esp
   13fd3:	68 ec 81 01 00       	push   $0x181ec
   13fd8:	e8 36 d0 ff ff       	call   11013 <c_puts>
   13fdd:	83 c4 10             	add    $0x10,%esp
   13fe0:	90                   	nop
   13fe1:	c9                   	leave  
   13fe2:	c3                   	ret    

00013fe3 <_stk_init>:
   13fe3:	55                   	push   %ebp
   13fe4:	89 e5                	mov    %esp,%ebp
   13fe6:	83 ec 08             	sub    $0x8,%esp
   13fe9:	83 ec 0c             	sub    $0xc,%esp
   13fec:	68 f6 81 01 00       	push   $0x181f6
   13ff1:	e8 1d d0 ff ff       	call   11013 <c_puts>
   13ff6:	83 c4 10             	add    $0x10,%esp
   13ff9:	b8 78 dc 01 00       	mov    $0x1dc78,%eax
   13ffe:	a3 80 dc 01 00       	mov    %eax,0x1dc80
   14003:	90                   	nop
   14004:	c9                   	leave  
   14005:	c3                   	ret    

00014006 <_stk_alloc>:
   14006:	55                   	push   %ebp
   14007:	89 e5                	mov    %esp,%ebp
   14009:	83 ec 18             	sub    $0x18,%esp
   1400c:	c7 45 f4 00 00 00 00 	movl   $0x0,-0xc(%ebp)
   14013:	83 ec 0c             	sub    $0xc,%esp
   14016:	68 00 10 00 00       	push   $0x1000
   1401b:	e8 9b e4 ff ff       	call   124bb <_kmalloc>
   14020:	83 c4 10             	add    $0x10,%esp
   14023:	89 45 f4             	mov    %eax,-0xc(%ebp)
   14026:	83 7d f4 00          	cmpl   $0x0,-0xc(%ebp)
   1402a:	75 07                	jne    14033 <_stk_alloc+0x2d>
   1402c:	b8 00 00 00 00       	mov    $0x0,%eax
   14031:	eb 03                	jmp    14036 <_stk_alloc+0x30>
   14033:	8b 45 f4             	mov    -0xc(%ebp),%eax
   14036:	c9                   	leave  
   14037:	c3                   	ret    

00014038 <_stk_free>:
   14038:	55                   	push   %ebp
   14039:	89 e5                	mov    %esp,%ebp
   1403b:	83 ec 08             	sub    $0x8,%esp
   1403e:	83 7d 08 00          	cmpl   $0x0,0x8(%ebp)
   14042:	74 10                	je     14054 <_stk_free+0x1c>
   14044:	83 ec 0c             	sub    $0xc,%esp
   14047:	ff 75 08             	pushl  0x8(%ebp)
   1404a:	e8 1d e5 ff ff       	call   1256c <_kfree>
   1404f:	83 c4 10             	add    $0x10,%esp
   14052:	eb 01                	jmp    14055 <_stk_free+0x1d>
   14054:	90                   	nop
   14055:	c9                   	leave  
   14056:	c3                   	ret    

00014057 <_stk_dump>:
   14057:	55                   	push   %ebp
   14058:	89 e5                	mov    %esp,%ebp
   1405a:	57                   	push   %edi
   1405b:	56                   	push   %esi
   1405c:	53                   	push   %ebx
   1405d:	81 ec dc 00 00 00    	sub    $0xdc,%esp
   14063:	c7 45 e4 00 04 00 00 	movl   $0x400,-0x1c(%ebp)
   1406a:	c7 45 e0 00 00 00 00 	movl   $0x0,-0x20(%ebp)
   14071:	8b 45 0c             	mov    0xc(%ebp),%eax
   14074:	89 45 dc             	mov    %eax,-0x24(%ebp)
   14077:	8b 45 0c             	mov    0xc(%ebp),%eax
   1407a:	89 45 d8             	mov    %eax,-0x28(%ebp)
   1407d:	c7 85 37 ff ff ff 30 	movl   $0x33323130,-0xc9(%ebp)
   14084:	31 32 33 
   14087:	c7 85 3b ff ff ff 34 	movl   $0x37363534,-0xc5(%ebp)
   1408e:	35 36 37 
   14091:	c7 85 3f ff ff ff 38 	movl   $0x42413938,-0xc1(%ebp)
   14098:	39 41 42 
   1409b:	c7 85 43 ff ff ff 43 	movl   $0x46454443,-0xbd(%ebp)
   140a2:	44 45 46 
   140a5:	c6 85 47 ff ff ff 00 	movb   $0x0,-0xb9(%ebp)
   140ac:	83 7d 10 00          	cmpl   $0x0,0x10(%ebp)
   140b0:	74 30                	je     140e2 <_stk_dump+0x8b>
   140b2:	8b 45 10             	mov    0x10(%ebp),%eax
   140b5:	89 45 e4             	mov    %eax,-0x1c(%ebp)
   140b8:	8b 45 e4             	mov    -0x1c(%ebp),%eax
   140bb:	83 e0 03             	and    $0x3,%eax
   140be:	85 c0                	test   %eax,%eax
   140c0:	74 0c                	je     140ce <_stk_dump+0x77>
   140c2:	8b 45 e4             	mov    -0x1c(%ebp),%eax
   140c5:	83 e0 fc             	and    $0xfffffffc,%eax
   140c8:	83 c0 04             	add    $0x4,%eax
   140cb:	89 45 e4             	mov    %eax,-0x1c(%ebp)
   140ce:	b8 00 04 00 00       	mov    $0x400,%eax
   140d3:	2b 45 e4             	sub    -0x1c(%ebp),%eax
   140d6:	c1 e0 02             	shl    $0x2,%eax
   140d9:	01 45 d8             	add    %eax,-0x28(%ebp)
   140dc:	8b 45 d8             	mov    -0x28(%ebp),%eax
   140df:	89 45 dc             	mov    %eax,-0x24(%ebp)
   140e2:	83 ec 0c             	sub    $0xc,%esp
   140e5:	68 fb 81 01 00       	push   $0x181fb
   140ea:	e8 24 cf ff ff       	call   11013 <c_puts>
   140ef:	83 c4 10             	add    $0x10,%esp
   140f2:	83 7d 08 00          	cmpl   $0x0,0x8(%ebp)
   140f6:	74 15                	je     1410d <_stk_dump+0xb6>
   140f8:	83 ec 08             	sub    $0x8,%esp
   140fb:	ff 75 08             	pushl  0x8(%ebp)
   140fe:	68 05 82 01 00       	push   $0x18205
   14103:	e8 4d d7 ff ff       	call   11855 <c_printf>
   14108:	83 c4 10             	add    $0x10,%esp
   1410b:	eb 10                	jmp    1411d <_stk_dump+0xc6>
   1410d:	83 ec 0c             	sub    $0xc,%esp
   14110:	68 0d 82 01 00       	push   $0x1820d
   14115:	e8 f9 ce ff ff       	call   11013 <c_puts>
   1411a:	83 c4 10             	add    $0x10,%esp
   1411d:	c6 45 90 00          	movb   $0x0,-0x70(%ebp)
   14121:	e9 5c 01 00 00       	jmp    14282 <_stk_dump+0x22b>
   14126:	8d 9d 60 ff ff ff    	lea    -0xa0(%ebp),%ebx
   1412c:	8d bd 48 ff ff ff    	lea    -0xb8(%ebp),%edi
   14132:	8b 45 dc             	mov    -0x24(%ebp),%eax
   14135:	89 45 c8             	mov    %eax,-0x38(%ebp)
   14138:	c7 45 d4 00 00 00 00 	movl   $0x0,-0x2c(%ebp)
   1413f:	e9 a3 00 00 00       	jmp    141e7 <_stk_dump+0x190>
   14144:	8b 45 d8             	mov    -0x28(%ebp),%eax
   14147:	8d 50 04             	lea    0x4(%eax),%edx
   1414a:	89 55 d8             	mov    %edx,-0x28(%ebp)
   1414d:	8b 00                	mov    (%eax),%eax
   1414f:	89 85 24 ff ff ff    	mov    %eax,-0xdc(%ebp)
   14155:	89 c6                	mov    %eax,%esi
   14157:	89 d8                	mov    %ebx,%eax
   14159:	8d 58 01             	lea    0x1(%eax),%ebx
   1415c:	c6 00 20             	movb   $0x20,(%eax)
   1415f:	89 d8                	mov    %ebx,%eax
   14161:	8d 58 01             	lea    0x1(%eax),%ebx
   14164:	c6 00 20             	movb   $0x20,(%eax)
   14167:	c7 45 d0 00 00 00 00 	movl   $0x0,-0x30(%ebp)
   1416e:	eb 24                	jmp    14194 <_stk_dump+0x13d>
   14170:	89 f0                	mov    %esi,%eax
   14172:	c1 e8 1c             	shr    $0x1c,%eax
   14175:	89 45 c4             	mov    %eax,-0x3c(%ebp)
   14178:	89 da                	mov    %ebx,%edx
   1417a:	8d 5a 01             	lea    0x1(%edx),%ebx
   1417d:	8d 8d 37 ff ff ff    	lea    -0xc9(%ebp),%ecx
   14183:	8b 45 c4             	mov    -0x3c(%ebp),%eax
   14186:	01 c8                	add    %ecx,%eax
   14188:	0f b6 00             	movzbl (%eax),%eax
   1418b:	88 02                	mov    %al,(%edx)
   1418d:	c1 e6 04             	shl    $0x4,%esi
   14190:	83 45 d0 01          	addl   $0x1,-0x30(%ebp)
   14194:	83 7d d0 07          	cmpl   $0x7,-0x30(%ebp)
   14198:	7e d6                	jle    14170 <_stk_dump+0x119>
   1419a:	8b b5 24 ff ff ff    	mov    -0xdc(%ebp),%esi
   141a0:	89 f8                	mov    %edi,%eax
   141a2:	8d 78 01             	lea    0x1(%eax),%edi
   141a5:	c6 00 20             	movb   $0x20,(%eax)
   141a8:	c7 45 cc 00 00 00 00 	movl   $0x0,-0x34(%ebp)
   141af:	eb 2c                	jmp    141dd <_stk_dump+0x186>
   141b1:	89 f0                	mov    %esi,%eax
   141b3:	c1 e8 18             	shr    $0x18,%eax
   141b6:	89 45 c0             	mov    %eax,-0x40(%ebp)
   141b9:	89 f8                	mov    %edi,%eax
   141bb:	8d 78 01             	lea    0x1(%eax),%edi
   141be:	83 7d c0 1f          	cmpl   $0x1f,-0x40(%ebp)
   141c2:	76 0b                	jbe    141cf <_stk_dump+0x178>
   141c4:	83 7d c0 7e          	cmpl   $0x7e,-0x40(%ebp)
   141c8:	77 05                	ja     141cf <_stk_dump+0x178>
   141ca:	8b 55 c0             	mov    -0x40(%ebp),%edx
   141cd:	eb 05                	jmp    141d4 <_stk_dump+0x17d>
   141cf:	ba 2e 00 00 00       	mov    $0x2e,%edx
   141d4:	88 10                	mov    %dl,(%eax)
   141d6:	c1 e6 08             	shl    $0x8,%esi
   141d9:	83 45 cc 01          	addl   $0x1,-0x34(%ebp)
   141dd:	83 7d cc 03          	cmpl   $0x3,-0x34(%ebp)
   141e1:	7e ce                	jle    141b1 <_stk_dump+0x15a>
   141e3:	83 45 d4 01          	addl   $0x1,-0x2c(%ebp)
   141e7:	83 7d d4 03          	cmpl   $0x3,-0x2c(%ebp)
   141eb:	0f 8e 53 ff ff ff    	jle    14144 <_stk_dump+0xed>
   141f1:	c6 03 00             	movb   $0x0,(%ebx)
   141f4:	c6 07 00             	movb   $0x0,(%edi)
   141f7:	83 6d e4 04          	subl   $0x4,-0x1c(%ebp)
   141fb:	83 45 dc 10          	addl   $0x10,-0x24(%ebp)
   141ff:	83 ec 08             	sub    $0x8,%esp
   14202:	8d 85 60 ff ff ff    	lea    -0xa0(%ebp),%eax
   14208:	50                   	push   %eax
   14209:	8d 45 90             	lea    -0x70(%ebp),%eax
   1420c:	50                   	push   %eax
   1420d:	e8 f7 df ff ff       	call   12209 <_kstrcmp>
   14212:	83 c4 10             	add    $0x10,%esp
   14215:	85 c0                	test   %eax,%eax
   14217:	75 06                	jne    1421f <_stk_dump+0x1c8>
   14219:	83 45 e0 01          	addl   $0x1,-0x20(%ebp)
   1421d:	eb 63                	jmp    14282 <_stk_dump+0x22b>
   1421f:	83 7d e0 00          	cmpl   $0x0,-0x20(%ebp)
   14223:	74 07                	je     1422c <_stk_dump+0x1d5>
   14225:	b8 2a 00 00 00       	mov    $0x2a,%eax
   1422a:	eb 05                	jmp    14231 <_stk_dump+0x1da>
   1422c:	b8 20 00 00 00       	mov    $0x20,%eax
   14231:	83 ec 04             	sub    $0x4,%esp
   14234:	50                   	push   %eax
   14235:	ff 75 c8             	pushl  -0x38(%ebp)
   14238:	68 10 82 01 00       	push   $0x18210
   1423d:	e8 13 d6 ff ff       	call   11855 <c_printf>
   14242:	83 c4 10             	add    $0x10,%esp
   14245:	c7 45 e0 00 00 00 00 	movl   $0x0,-0x20(%ebp)
   1424c:	83 ec 04             	sub    $0x4,%esp
   1424f:	8d 85 48 ff ff ff    	lea    -0xb8(%ebp),%eax
   14255:	50                   	push   %eax
   14256:	8d 85 60 ff ff ff    	lea    -0xa0(%ebp),%eax
   1425c:	50                   	push   %eax
   1425d:	68 17 82 01 00       	push   $0x18217
   14262:	e8 ee d5 ff ff       	call   11855 <c_printf>
   14267:	83 c4 10             	add    $0x10,%esp
   1426a:	83 ec 04             	sub    $0x4,%esp
   1426d:	6a 30                	push   $0x30
   1426f:	8d 85 60 ff ff ff    	lea    -0xa0(%ebp),%eax
   14275:	50                   	push   %eax
   14276:	8d 45 90             	lea    -0x70(%ebp),%eax
   14279:	50                   	push   %eax
   1427a:	e8 0b df ff ff       	call   1218a <_kmemcpy>
   1427f:	83 c4 10             	add    $0x10,%esp
   14282:	83 7d e4 00          	cmpl   $0x0,-0x1c(%ebp)
   14286:	0f 8f 9a fe ff ff    	jg     14126 <_stk_dump+0xcf>
   1428c:	90                   	nop
   1428d:	8d 65 f4             	lea    -0xc(%ebp),%esp
   14290:	5b                   	pop    %ebx
   14291:	5e                   	pop    %esi
   14292:	5f                   	pop    %edi
   14293:	5d                   	pop    %ebp
   14294:	c3                   	ret    

00014295 <_stk_setup>:
   14295:	55                   	push   %ebp
   14296:	89 e5                	mov    %esp,%ebp
   14298:	81 ec 28 01 00 00    	sub    $0x128,%esp
   1429e:	83 7d 08 00          	cmpl   $0x0,0x8(%ebp)
   142a2:	75 0a                	jne    142ae <_stk_setup+0x19>
   142a4:	b8 00 00 00 00       	mov    $0x0,%eax
   142a9:	e9 80 01 00 00       	jmp    1442e <_stk_setup+0x199>
   142ae:	83 ec 08             	sub    $0x8,%esp
   142b1:	68 00 10 00 00       	push   $0x1000
   142b6:	ff 75 08             	pushl  0x8(%ebp)
   142b9:	e8 ad de ff ff       	call   1216b <_kmemclr>
   142be:	83 c4 10             	add    $0x10,%esp
   142c1:	8b 45 08             	mov    0x8(%ebp),%eax
   142c4:	05 00 10 00 00       	add    $0x1000,%eax
   142c9:	89 45 f4             	mov    %eax,-0xc(%ebp)
   142cc:	83 6d f4 04          	subl   $0x4,-0xc(%ebp)
   142d0:	8b 45 f4             	mov    -0xc(%ebp),%eax
   142d3:	c7 00 00 00 00 00    	movl   $0x0,(%eax)
   142d9:	8b 45 18             	mov    0x18(%ebp),%eax
   142dc:	f7 d8                	neg    %eax
   142de:	89 c2                	mov    %eax,%edx
   142e0:	8b 45 f4             	mov    -0xc(%ebp),%eax
   142e3:	01 d0                	add    %edx,%eax
   142e5:	89 45 f0             	mov    %eax,-0x10(%ebp)
   142e8:	8b 45 f0             	mov    -0x10(%ebp),%eax
   142eb:	89 45 ec             	mov    %eax,-0x14(%ebp)
   142ee:	c7 45 e8 00 00 00 00 	movl   $0x0,-0x18(%ebp)
   142f5:	eb 54                	jmp    1434b <_stk_setup+0xb6>
   142f7:	8b 45 e8             	mov    -0x18(%ebp),%eax
   142fa:	8d 14 85 00 00 00 00 	lea    0x0(,%eax,4),%edx
   14301:	8b 45 10             	mov    0x10(%ebp),%eax
   14304:	01 d0                	add    %edx,%eax
   14306:	8b 00                	mov    (%eax),%eax
   14308:	83 ec 08             	sub    $0x8,%esp
   1430b:	50                   	push   %eax
   1430c:	ff 75 f0             	pushl  -0x10(%ebp)
   1430f:	e8 a3 de ff ff       	call   121b7 <_kstrcpy>
   14314:	83 c4 10             	add    $0x10,%esp
   14317:	8b 45 e8             	mov    -0x18(%ebp),%eax
   1431a:	8b 55 f0             	mov    -0x10(%ebp),%edx
   1431d:	89 94 85 d8 fe ff ff 	mov    %edx,-0x128(%ebp,%eax,4)
   14324:	8b 45 e8             	mov    -0x18(%ebp),%eax
   14327:	8d 14 85 00 00 00 00 	lea    0x0(,%eax,4),%edx
   1432e:	8b 45 10             	mov    0x10(%ebp),%eax
   14331:	01 d0                	add    %edx,%eax
   14333:	8b 00                	mov    (%eax),%eax
   14335:	83 ec 0c             	sub    $0xc,%esp
   14338:	50                   	push   %eax
   14339:	e8 a9 de ff ff       	call   121e7 <_kstrlen>
   1433e:	83 c4 10             	add    $0x10,%esp
   14341:	83 c0 01             	add    $0x1,%eax
   14344:	01 45 f0             	add    %eax,-0x10(%ebp)
   14347:	83 45 e8 01          	addl   $0x1,-0x18(%ebp)
   1434b:	8b 45 e8             	mov    -0x18(%ebp),%eax
   1434e:	3b 45 14             	cmp    0x14(%ebp),%eax
   14351:	7c a4                	jl     142f7 <_stk_setup+0x62>
   14353:	8b 45 14             	mov    0x14(%ebp),%eax
   14356:	c7 84 85 d8 fe ff ff 	movl   $0x0,-0x128(%ebp,%eax,4)
   1435d:	00 00 00 00 
   14361:	eb 04                	jmp    14367 <_stk_setup+0xd2>
   14363:	83 6d ec 01          	subl   $0x1,-0x14(%ebp)
   14367:	8b 45 ec             	mov    -0x14(%ebp),%eax
   1436a:	83 e0 03             	and    $0x3,%eax
   1436d:	85 c0                	test   %eax,%eax
   1436f:	75 f2                	jne    14363 <_stk_setup+0xce>
   14371:	8b 45 ec             	mov    -0x14(%ebp),%eax
   14374:	89 45 f4             	mov    %eax,-0xc(%ebp)
   14377:	8b 45 14             	mov    0x14(%ebp),%eax
   1437a:	89 45 e4             	mov    %eax,-0x1c(%ebp)
   1437d:	eb 19                	jmp    14398 <_stk_setup+0x103>
   1437f:	83 6d f4 04          	subl   $0x4,-0xc(%ebp)
   14383:	8b 45 e4             	mov    -0x1c(%ebp),%eax
   14386:	8b 84 85 d8 fe ff ff 	mov    -0x128(%ebp,%eax,4),%eax
   1438d:	89 c2                	mov    %eax,%edx
   1438f:	8b 45 f4             	mov    -0xc(%ebp),%eax
   14392:	89 10                	mov    %edx,(%eax)
   14394:	83 6d e4 01          	subl   $0x1,-0x1c(%ebp)
   14398:	83 7d e4 00          	cmpl   $0x0,-0x1c(%ebp)
   1439c:	79 e1                	jns    1437f <_stk_setup+0xea>
   1439e:	8b 45 f4             	mov    -0xc(%ebp),%eax
   143a1:	89 45 e0             	mov    %eax,-0x20(%ebp)
   143a4:	83 6d f4 04          	subl   $0x4,-0xc(%ebp)
   143a8:	8b 55 e0             	mov    -0x20(%ebp),%edx
   143ab:	8b 45 f4             	mov    -0xc(%ebp),%eax
   143ae:	89 10                	mov    %edx,(%eax)
   143b0:	83 6d f4 04          	subl   $0x4,-0xc(%ebp)
   143b4:	8b 55 14             	mov    0x14(%ebp),%edx
   143b7:	8b 45 f4             	mov    -0xc(%ebp),%eax
   143ba:	89 10                	mov    %edx,(%eax)
   143bc:	83 6d f4 04          	subl   $0x4,-0xc(%ebp)
   143c0:	ba fe 79 01 00       	mov    $0x179fe,%edx
   143c5:	8b 45 f4             	mov    -0xc(%ebp),%eax
   143c8:	89 10                	mov    %edx,(%eax)
   143ca:	8b 45 f4             	mov    -0xc(%ebp),%eax
   143cd:	83 e8 48             	sub    $0x48,%eax
   143d0:	89 45 dc             	mov    %eax,-0x24(%ebp)
   143d3:	8b 45 dc             	mov    -0x24(%ebp),%eax
   143d6:	c7 40 44 02 02 00 00 	movl   $0x202,0x44(%eax)
   143dd:	8b 45 dc             	mov    -0x24(%ebp),%eax
   143e0:	8b 55 0c             	mov    0xc(%ebp),%edx
   143e3:	89 50 3c             	mov    %edx,0x3c(%eax)
   143e6:	8b 45 dc             	mov    -0x24(%ebp),%eax
   143e9:	c7 40 1c 00 00 00 00 	movl   $0x0,0x1c(%eax)
   143f0:	8b 45 dc             	mov    -0x24(%ebp),%eax
   143f3:	c7 40 40 10 00 00 00 	movl   $0x10,0x40(%eax)
   143fa:	8b 45 dc             	mov    -0x24(%ebp),%eax
   143fd:	c7 00 20 00 00 00    	movl   $0x20,(%eax)
   14403:	8b 45 dc             	mov    -0x24(%ebp),%eax
   14406:	c7 40 10 18 00 00 00 	movl   $0x18,0x10(%eax)
   1440d:	8b 45 dc             	mov    -0x24(%ebp),%eax
   14410:	c7 40 0c 18 00 00 00 	movl   $0x18,0xc(%eax)
   14417:	8b 45 dc             	mov    -0x24(%ebp),%eax
   1441a:	c7 40 08 18 00 00 00 	movl   $0x18,0x8(%eax)
   14421:	8b 45 dc             	mov    -0x24(%ebp),%eax
   14424:	c7 40 04 18 00 00 00 	movl   $0x18,0x4(%eax)
   1442b:	8b 45 dc             	mov    -0x24(%ebp),%eax
   1442e:	c9                   	leave  
   1442f:	c3                   	ret    

00014430 <_sys_isr>:
   14430:	55                   	push   %ebp
   14431:	89 e5                	mov    %esp,%ebp
   14433:	83 ec 18             	sub    $0x18,%esp
   14436:	a1 64 cc 01 00       	mov    0x1cc64,%eax
   1443b:	8b 00                	mov    (%eax),%eax
   1443d:	8b 40 30             	mov    0x30(%eax),%eax
   14440:	89 45 f4             	mov    %eax,-0xc(%ebp)
   14443:	83 7d f4 0d          	cmpl   $0xd,-0xc(%ebp)
   14447:	76 17                	jbe    14460 <_sys_isr+0x30>
   14449:	c7 45 f4 00 00 00 00 	movl   $0x0,-0xc(%ebp)
   14450:	a1 64 cc 01 00       	mov    0x1cc64,%eax
   14455:	8b 00                	mov    (%eax),%eax
   14457:	83 c0 4c             	add    $0x4c,%eax
   1445a:	c7 00 03 00 00 00    	movl   $0x3,(%eax)
   14460:	8b 45 f4             	mov    -0xc(%ebp),%eax
   14463:	8b 04 85 00 c7 01 00 	mov    0x1c700(,%eax,4),%eax
   1446a:	ff d0                	call   *%eax
   1446c:	83 ec 08             	sub    $0x8,%esp
   1446f:	6a 20                	push   $0x20
   14471:	6a 20                	push   $0x20
   14473:	e8 ed bb ff ff       	call   10065 <__outb>
   14478:	83 c4 10             	add    $0x10,%esp
   1447b:	90                   	nop
   1447c:	c9                   	leave  
   1447d:	c3                   	ret    

0001447e <_sys_time>:
   1447e:	55                   	push   %ebp
   1447f:	89 e5                	mov    %esp,%ebp
   14481:	a1 64 cc 01 00       	mov    0x1cc64,%eax
   14486:	8b 00                	mov    (%eax),%eax
   14488:	8b 15 a0 cb 01 00    	mov    0x1cba0,%edx
   1448e:	89 50 30             	mov    %edx,0x30(%eax)
   14491:	90                   	nop
   14492:	5d                   	pop    %ebp
   14493:	c3                   	ret    

00014494 <_sys_pid>:
   14494:	55                   	push   %ebp
   14495:	89 e5                	mov    %esp,%ebp
   14497:	a1 64 cc 01 00       	mov    0x1cc64,%eax
   1449c:	8b 00                	mov    (%eax),%eax
   1449e:	8b 15 64 cc 01 00    	mov    0x1cc64,%edx
   144a4:	0f b7 52 10          	movzwl 0x10(%edx),%edx
   144a8:	0f b7 d2             	movzwl %dx,%edx
   144ab:	89 50 30             	mov    %edx,0x30(%eax)
   144ae:	90                   	nop
   144af:	5d                   	pop    %ebp
   144b0:	c3                   	ret    

000144b1 <_sys_ppid>:
   144b1:	55                   	push   %ebp
   144b2:	89 e5                	mov    %esp,%ebp
   144b4:	a1 64 cc 01 00       	mov    0x1cc64,%eax
   144b9:	8b 00                	mov    (%eax),%eax
   144bb:	8b 15 64 cc 01 00    	mov    0x1cc64,%edx
   144c1:	0f b7 52 12          	movzwl 0x12(%edx),%edx
   144c5:	0f b7 d2             	movzwl %dx,%edx
   144c8:	89 50 30             	mov    %edx,0x30(%eax)
   144cb:	90                   	nop
   144cc:	5d                   	pop    %ebp
   144cd:	c3                   	ret    

000144ce <_sys_get_prio>:
   144ce:	55                   	push   %ebp
   144cf:	89 e5                	mov    %esp,%ebp
   144d1:	83 ec 18             	sub    $0x18,%esp
   144d4:	a1 64 cc 01 00       	mov    0x1cc64,%eax
   144d9:	8b 00                	mov    (%eax),%eax
   144db:	83 c0 4c             	add    $0x4c,%eax
   144de:	8b 00                	mov    (%eax),%eax
   144e0:	66 89 45 f6          	mov    %ax,-0xa(%ebp)
   144e4:	66 83 7d f6 00       	cmpw   $0x0,-0xa(%ebp)
   144e9:	75 0d                	jne    144f8 <_sys_get_prio+0x2a>
   144eb:	a1 64 cc 01 00       	mov    0x1cc64,%eax
   144f0:	0f b7 40 10          	movzwl 0x10(%eax),%eax
   144f4:	66 89 45 f6          	mov    %ax,-0xa(%ebp)
   144f8:	0f b7 45 f6          	movzwl -0xa(%ebp),%eax
   144fc:	83 ec 0c             	sub    $0xc,%esp
   144ff:	50                   	push   %eax
   14500:	e8 42 e4 ff ff       	call   12947 <_pcb_find>
   14505:	83 c4 10             	add    $0x10,%esp
   14508:	89 45 f0             	mov    %eax,-0x10(%ebp)
   1450b:	a1 64 cc 01 00       	mov    0x1cc64,%eax
   14510:	8b 10                	mov    (%eax),%edx
   14512:	83 7d f0 00          	cmpl   $0x0,-0x10(%ebp)
   14516:	74 0c                	je     14524 <_sys_get_prio+0x56>
   14518:	8b 45 f0             	mov    -0x10(%ebp),%eax
   1451b:	0f b6 40 17          	movzbl 0x17(%eax),%eax
   1451f:	0f b6 c0             	movzbl %al,%eax
   14522:	eb 05                	jmp    14529 <_sys_get_prio+0x5b>
   14524:	b8 fe ff ff ff       	mov    $0xfffffffe,%eax
   14529:	89 42 30             	mov    %eax,0x30(%edx)
   1452c:	90                   	nop
   1452d:	c9                   	leave  
   1452e:	c3                   	ret    

0001452f <_sys_set_prio>:
   1452f:	55                   	push   %ebp
   14530:	89 e5                	mov    %esp,%ebp
   14532:	83 ec 18             	sub    $0x18,%esp
   14535:	a1 64 cc 01 00       	mov    0x1cc64,%eax
   1453a:	8b 00                	mov    (%eax),%eax
   1453c:	83 c0 4c             	add    $0x4c,%eax
   1453f:	8b 00                	mov    (%eax),%eax
   14541:	66 89 45 f6          	mov    %ax,-0xa(%ebp)
   14545:	a1 64 cc 01 00       	mov    0x1cc64,%eax
   1454a:	8b 00                	mov    (%eax),%eax
   1454c:	83 c0 50             	add    $0x50,%eax
   1454f:	8b 00                	mov    (%eax),%eax
   14551:	88 45 f5             	mov    %al,-0xb(%ebp)
   14554:	66 83 7d f6 00       	cmpw   $0x0,-0xa(%ebp)
   14559:	75 0d                	jne    14568 <_sys_set_prio+0x39>
   1455b:	a1 64 cc 01 00       	mov    0x1cc64,%eax
   14560:	0f b7 40 10          	movzwl 0x10(%eax),%eax
   14564:	66 89 45 f6          	mov    %ax,-0xa(%ebp)
   14568:	80 7d f5 04          	cmpb   $0x4,-0xb(%ebp)
   1456c:	76 10                	jbe    1457e <_sys_set_prio+0x4f>
   1456e:	a1 64 cc 01 00       	mov    0x1cc64,%eax
   14573:	8b 00                	mov    (%eax),%eax
   14575:	c7 40 30 fd ff ff ff 	movl   $0xfffffffd,0x30(%eax)
   1457c:	eb 4b                	jmp    145c9 <_sys_set_prio+0x9a>
   1457e:	0f b7 45 f6          	movzwl -0xa(%ebp),%eax
   14582:	83 ec 0c             	sub    $0xc,%esp
   14585:	50                   	push   %eax
   14586:	e8 bc e3 ff ff       	call   12947 <_pcb_find>
   1458b:	83 c4 10             	add    $0x10,%esp
   1458e:	89 45 f0             	mov    %eax,-0x10(%ebp)
   14591:	83 7d f0 00          	cmpl   $0x0,-0x10(%ebp)
   14595:	75 10                	jne    145a7 <_sys_set_prio+0x78>
   14597:	a1 64 cc 01 00       	mov    0x1cc64,%eax
   1459c:	8b 00                	mov    (%eax),%eax
   1459e:	c7 40 30 fe ff ff ff 	movl   $0xfffffffe,0x30(%eax)
   145a5:	eb 22                	jmp    145c9 <_sys_set_prio+0x9a>
   145a7:	8b 45 f0             	mov    -0x10(%ebp),%eax
   145aa:	0f b6 40 17          	movzbl 0x17(%eax),%eax
   145ae:	88 45 ef             	mov    %al,-0x11(%ebp)
   145b1:	8b 45 f0             	mov    -0x10(%ebp),%eax
   145b4:	0f b6 55 f5          	movzbl -0xb(%ebp),%edx
   145b8:	88 50 17             	mov    %dl,0x17(%eax)
   145bb:	a1 64 cc 01 00       	mov    0x1cc64,%eax
   145c0:	8b 00                	mov    (%eax),%eax
   145c2:	0f b6 55 ef          	movzbl -0x11(%ebp),%edx
   145c6:	89 50 30             	mov    %edx,0x30(%eax)
   145c9:	c9                   	leave  
   145ca:	c3                   	ret    

000145cb <_sys_sleep>:
   145cb:	55                   	push   %ebp
   145cc:	89 e5                	mov    %esp,%ebp
   145ce:	83 ec 18             	sub    $0x18,%esp
   145d1:	a1 64 cc 01 00       	mov    0x1cc64,%eax
   145d6:	8b 00                	mov    (%eax),%eax
   145d8:	8b 40 4c             	mov    0x4c(%eax),%eax
   145db:	89 45 f4             	mov    %eax,-0xc(%ebp)
   145de:	83 7d f4 00          	cmpl   $0x0,-0xc(%ebp)
   145e2:	75 13                	jne    145f7 <_sys_sleep+0x2c>
   145e4:	a1 64 cc 01 00       	mov    0x1cc64,%eax
   145e9:	83 ec 0c             	sub    $0xc,%esp
   145ec:	50                   	push   %eax
   145ed:	e8 d6 f0 ff ff       	call   136c8 <_schedule>
   145f2:	83 c4 10             	add    $0x10,%esp
   145f5:	eb 3a                	jmp    14631 <_sys_sleep+0x66>
   145f7:	8b 15 a0 cb 01 00    	mov    0x1cba0,%edx
   145fd:	8b 45 f4             	mov    -0xc(%ebp),%eax
   14600:	01 d0                	add    %edx,%eax
   14602:	89 45 f0             	mov    %eax,-0x10(%ebp)
   14605:	a1 64 cc 01 00       	mov    0x1cc64,%eax
   1460a:	c6 40 16 03          	movb   $0x3,0x16(%eax)
   1460e:	a1 64 cc 01 00       	mov    0x1cc64,%eax
   14613:	8b 55 f0             	mov    -0x10(%ebp),%edx
   14616:	89 50 08             	mov    %edx,0x8(%eax)
   14619:	8b 15 64 cc 01 00    	mov    0x1cc64,%edx
   1461f:	a1 48 cc 01 00       	mov    0x1cc48,%eax
   14624:	83 ec 08             	sub    $0x8,%esp
   14627:	52                   	push   %edx
   14628:	50                   	push   %eax
   14629:	e8 d7 e9 ff ff       	call   13005 <_q_insert>
   1462e:	83 c4 10             	add    $0x10,%esp
   14631:	e8 10 f1 ff ff       	call   13746 <_dispatch>
   14636:	90                   	nop
   14637:	c9                   	leave  
   14638:	c3                   	ret    

00014639 <_sys_fork>:
   14639:	55                   	push   %ebp
   1463a:	89 e5                	mov    %esp,%ebp
   1463c:	83 ec 28             	sub    $0x28,%esp
   1463f:	a1 c0 cb 01 00       	mov    0x1cbc0,%eax
   14644:	83 f8 18             	cmp    $0x18,%eax
   14647:	76 13                	jbe    1465c <_sys_fork+0x23>
   14649:	a1 64 cc 01 00       	mov    0x1cc64,%eax
   1464e:	8b 00                	mov    (%eax),%eax
   14650:	c7 40 30 f7 ff ff ff 	movl   $0xfffffff7,0x30(%eax)
   14657:	e9 20 02 00 00       	jmp    1487c <_sys_fork+0x243>
   1465c:	0f b7 05 c8 cb 01 00 	movzwl 0x1cbc8,%eax
   14663:	66 3d e7 fd          	cmp    $0xfde7,%ax
   14667:	76 3e                	jbe    146a7 <_sys_fork+0x6e>
   14669:	a1 64 cc 01 00       	mov    0x1cc64,%eax
   1466e:	8b 00                	mov    (%eax),%eax
   14670:	c7 40 30 f4 ff ff ff 	movl   $0xfffffff4,0x30(%eax)
   14677:	0f b7 05 c8 cb 01 00 	movzwl 0x1cbc8,%eax
   1467e:	0f b7 c0             	movzwl %ax,%eax
   14681:	83 ec 08             	sub    $0x8,%esp
   14684:	50                   	push   %eax
   14685:	68 20 82 01 00       	push   $0x18220
   1468a:	e8 c6 d1 ff ff       	call   11855 <c_printf>
   1468f:	83 c4 10             	add    $0x10,%esp
   14692:	83 ec 0c             	sub    $0xc,%esp
   14695:	68 34 82 01 00       	push   $0x18234
   1469a:	e8 74 c9 ff ff       	call   11013 <c_puts>
   1469f:	83 c4 10             	add    $0x10,%esp
   146a2:	e9 d5 01 00 00       	jmp    1487c <_sys_fork+0x243>
   146a7:	e8 c6 e1 ff ff       	call   12872 <_pcb_alloc>
   146ac:	89 45 ec             	mov    %eax,-0x14(%ebp)
   146af:	83 7d ec 00          	cmpl   $0x0,-0x14(%ebp)
   146b3:	75 13                	jne    146c8 <_sys_fork+0x8f>
   146b5:	a1 64 cc 01 00       	mov    0x1cc64,%eax
   146ba:	8b 00                	mov    (%eax),%eax
   146bc:	c7 40 30 f9 ff ff ff 	movl   $0xfffffff9,0x30(%eax)
   146c3:	e9 b4 01 00 00       	jmp    1487c <_sys_fork+0x243>
   146c8:	e8 39 f9 ff ff       	call   14006 <_stk_alloc>
   146cd:	89 45 e8             	mov    %eax,-0x18(%ebp)
   146d0:	83 7d e8 00          	cmpl   $0x0,-0x18(%ebp)
   146d4:	75 21                	jne    146f7 <_sys_fork+0xbe>
   146d6:	83 ec 0c             	sub    $0xc,%esp
   146d9:	ff 75 ec             	pushl  -0x14(%ebp)
   146dc:	e8 15 e2 ff ff       	call   128f6 <_pcb_free>
   146e1:	83 c4 10             	add    $0x10,%esp
   146e4:	a1 64 cc 01 00       	mov    0x1cc64,%eax
   146e9:	8b 00                	mov    (%eax),%eax
   146eb:	c7 40 30 f8 ff ff ff 	movl   $0xfffffff8,0x30(%eax)
   146f2:	e9 85 01 00 00       	jmp    1487c <_sys_fork+0x243>
   146f7:	a1 64 cc 01 00       	mov    0x1cc64,%eax
   146fc:	83 ec 04             	sub    $0x4,%esp
   146ff:	6a 1c                	push   $0x1c
   14701:	50                   	push   %eax
   14702:	ff 75 ec             	pushl  -0x14(%ebp)
   14705:	e8 80 da ff ff       	call   1218a <_kmemcpy>
   1470a:	83 c4 10             	add    $0x10,%esp
   1470d:	0f b7 05 c8 cb 01 00 	movzwl 0x1cbc8,%eax
   14714:	8d 50 01             	lea    0x1(%eax),%edx
   14717:	66 89 15 c8 cb 01 00 	mov    %dx,0x1cbc8
   1471e:	8b 55 ec             	mov    -0x14(%ebp),%edx
   14721:	66 89 42 10          	mov    %ax,0x10(%edx)
   14725:	a1 64 cc 01 00       	mov    0x1cc64,%eax
   1472a:	0f b7 50 10          	movzwl 0x10(%eax),%edx
   1472e:	8b 45 ec             	mov    -0x14(%ebp),%eax
   14731:	66 89 50 12          	mov    %dx,0x12(%eax)
   14735:	8b 45 ec             	mov    -0x14(%ebp),%eax
   14738:	8b 55 e8             	mov    -0x18(%ebp),%edx
   1473b:	89 50 04             	mov    %edx,0x4(%eax)
   1473e:	8b 45 ec             	mov    -0x14(%ebp),%eax
   14741:	66 c7 40 14 00 00    	movw   $0x0,0x14(%eax)
   14747:	a1 64 cc 01 00       	mov    0x1cc64,%eax
   1474c:	8b 40 04             	mov    0x4(%eax),%eax
   1474f:	83 ec 04             	sub    $0x4,%esp
   14752:	68 00 10 00 00       	push   $0x1000
   14757:	50                   	push   %eax
   14758:	ff 75 e8             	pushl  -0x18(%ebp)
   1475b:	e8 2a da ff ff       	call   1218a <_kmemcpy>
   14760:	83 c4 10             	add    $0x10,%esp
   14763:	8b 45 ec             	mov    -0x14(%ebp),%eax
   14766:	8b 40 04             	mov    0x4(%eax),%eax
   14769:	89 c2                	mov    %eax,%edx
   1476b:	a1 64 cc 01 00       	mov    0x1cc64,%eax
   14770:	8b 40 04             	mov    0x4(%eax),%eax
   14773:	29 c2                	sub    %eax,%edx
   14775:	89 d0                	mov    %edx,%eax
   14777:	89 45 e4             	mov    %eax,-0x1c(%ebp)
   1477a:	a1 64 cc 01 00       	mov    0x1cc64,%eax
   1477f:	8b 10                	mov    (%eax),%edx
   14781:	8b 45 e4             	mov    -0x1c(%ebp),%eax
   14784:	01 c2                	add    %eax,%edx
   14786:	8b 45 ec             	mov    -0x14(%ebp),%eax
   14789:	89 10                	mov    %edx,(%eax)
   1478b:	8b 45 ec             	mov    -0x14(%ebp),%eax
   1478e:	8b 00                	mov    (%eax),%eax
   14790:	8b 55 ec             	mov    -0x14(%ebp),%edx
   14793:	8b 12                	mov    (%edx),%edx
   14795:	8b 4a 1c             	mov    0x1c(%edx),%ecx
   14798:	8b 55 e4             	mov    -0x1c(%ebp),%edx
   1479b:	01 ca                	add    %ecx,%edx
   1479d:	89 50 1c             	mov    %edx,0x1c(%eax)
   147a0:	8b 45 ec             	mov    -0x14(%ebp),%eax
   147a3:	8b 00                	mov    (%eax),%eax
   147a5:	8b 55 ec             	mov    -0x14(%ebp),%edx
   147a8:	8b 12                	mov    (%edx),%edx
   147aa:	89 50 20             	mov    %edx,0x20(%eax)
   147ad:	8b 45 ec             	mov    -0x14(%ebp),%eax
   147b0:	8b 00                	mov    (%eax),%eax
   147b2:	8b 40 1c             	mov    0x1c(%eax),%eax
   147b5:	89 45 f4             	mov    %eax,-0xc(%ebp)
   147b8:	eb 17                	jmp    147d1 <_sys_fork+0x198>
   147ba:	8b 45 f4             	mov    -0xc(%ebp),%eax
   147bd:	8b 10                	mov    (%eax),%edx
   147bf:	8b 45 e4             	mov    -0x1c(%ebp),%eax
   147c2:	01 c2                	add    %eax,%edx
   147c4:	8b 45 f4             	mov    -0xc(%ebp),%eax
   147c7:	89 10                	mov    %edx,(%eax)
   147c9:	8b 45 f4             	mov    -0xc(%ebp),%eax
   147cc:	8b 00                	mov    (%eax),%eax
   147ce:	89 45 f4             	mov    %eax,-0xc(%ebp)
   147d1:	83 7d f4 00          	cmpl   $0x0,-0xc(%ebp)
   147d5:	74 09                	je     147e0 <_sys_fork+0x1a7>
   147d7:	8b 45 f4             	mov    -0xc(%ebp),%eax
   147da:	8b 00                	mov    (%eax),%eax
   147dc:	85 c0                	test   %eax,%eax
   147de:	75 da                	jne    147ba <_sys_fork+0x181>
   147e0:	c7 45 f0 00 00 00 00 	movl   $0x0,-0x10(%ebp)
   147e7:	eb 21                	jmp    1480a <_sys_fork+0x1d1>
   147e9:	8b 45 f0             	mov    -0x10(%ebp),%eax
   147ec:	8b 04 85 e0 cb 01 00 	mov    0x1cbe0(,%eax,4),%eax
   147f3:	85 c0                	test   %eax,%eax
   147f5:	75 0f                	jne    14806 <_sys_fork+0x1cd>
   147f7:	8b 45 f0             	mov    -0x10(%ebp),%eax
   147fa:	8b 55 ec             	mov    -0x14(%ebp),%edx
   147fd:	89 14 85 e0 cb 01 00 	mov    %edx,0x1cbe0(,%eax,4)
   14804:	eb 0a                	jmp    14810 <_sys_fork+0x1d7>
   14806:	83 45 f0 01          	addl   $0x1,-0x10(%ebp)
   1480a:	83 7d f0 18          	cmpl   $0x18,-0x10(%ebp)
   1480e:	7e d9                	jle    147e9 <_sys_fork+0x1b0>
   14810:	83 7d f0 18          	cmpl   $0x18,-0x10(%ebp)
   14814:	7e 15                	jle    1482b <_sys_fork+0x1f2>
   14816:	83 ec 08             	sub    $0x8,%esp
   14819:	68 5b 82 01 00       	push   $0x1825b
   1481e:	68 77 82 01 00       	push   $0x18277
   14823:	e8 17 da ff ff       	call   1223f <_kpanic>
   14828:	83 c4 10             	add    $0x10,%esp
   1482b:	a1 c0 cb 01 00       	mov    0x1cbc0,%eax
   14830:	83 c0 01             	add    $0x1,%eax
   14833:	a3 c0 cb 01 00       	mov    %eax,0x1cbc0
   14838:	8b 45 ec             	mov    -0x14(%ebp),%eax
   1483b:	8b 00                	mov    (%eax),%eax
   1483d:	c7 40 30 00 00 00 00 	movl   $0x0,0x30(%eax)
   14844:	a1 64 cc 01 00       	mov    0x1cc64,%eax
   14849:	8b 00                	mov    (%eax),%eax
   1484b:	8b 55 ec             	mov    -0x14(%ebp),%edx
   1484e:	0f b7 52 10          	movzwl 0x10(%edx),%edx
   14852:	0f b7 d2             	movzwl %dx,%edx
   14855:	89 50 30             	mov    %edx,0x30(%eax)
   14858:	a1 64 cc 01 00       	mov    0x1cc64,%eax
   1485d:	8b 15 64 cc 01 00    	mov    0x1cc64,%edx
   14863:	0f b7 52 14          	movzwl 0x14(%edx),%edx
   14867:	83 c2 01             	add    $0x1,%edx
   1486a:	66 89 50 14          	mov    %dx,0x14(%eax)
   1486e:	83 ec 0c             	sub    $0xc,%esp
   14871:	ff 75 ec             	pushl  -0x14(%ebp)
   14874:	e8 4f ee ff ff       	call   136c8 <_schedule>
   14879:	83 c4 10             	add    $0x10,%esp
   1487c:	c9                   	leave  
   1487d:	c3                   	ret    

0001487e <_sys_exec>:
   1487e:	55                   	push   %ebp
   1487f:	89 e5                	mov    %esp,%ebp
   14881:	56                   	push   %esi
   14882:	53                   	push   %ebx
   14883:	83 ec 30             	sub    $0x30,%esp
   14886:	a1 64 cc 01 00       	mov    0x1cc64,%eax
   1488b:	8b 00                	mov    (%eax),%eax
   1488d:	8b 40 4c             	mov    0x4c(%eax),%eax
   14890:	89 45 e4             	mov    %eax,-0x1c(%ebp)
   14893:	a1 64 cc 01 00       	mov    0x1cc64,%eax
   14898:	8b 00                	mov    (%eax),%eax
   1489a:	83 c0 50             	add    $0x50,%eax
   1489d:	8b 00                	mov    (%eax),%eax
   1489f:	89 45 e0             	mov    %eax,-0x20(%ebp)
   148a2:	c7 45 f4 00 00 00 00 	movl   $0x0,-0xc(%ebp)
   148a9:	c7 45 f0 00 00 00 00 	movl   $0x0,-0x10(%ebp)
   148b0:	eb 2c                	jmp    148de <_sys_exec+0x60>
   148b2:	8b 45 f4             	mov    -0xc(%ebp),%eax
   148b5:	8d 14 85 00 00 00 00 	lea    0x0(,%eax,4),%edx
   148bc:	8b 45 e0             	mov    -0x20(%ebp),%eax
   148bf:	01 d0                	add    %edx,%eax
   148c1:	8b 00                	mov    (%eax),%eax
   148c3:	83 ec 0c             	sub    $0xc,%esp
   148c6:	50                   	push   %eax
   148c7:	e8 1b d9 ff ff       	call   121e7 <_kstrlen>
   148cc:	83 c4 10             	add    $0x10,%esp
   148cf:	8d 50 01             	lea    0x1(%eax),%edx
   148d2:	8b 45 f0             	mov    -0x10(%ebp),%eax
   148d5:	01 d0                	add    %edx,%eax
   148d7:	89 45 f0             	mov    %eax,-0x10(%ebp)
   148da:	83 45 f4 01          	addl   $0x1,-0xc(%ebp)
   148de:	8b 45 f4             	mov    -0xc(%ebp),%eax
   148e1:	8d 14 85 00 00 00 00 	lea    0x0(,%eax,4),%edx
   148e8:	8b 45 e0             	mov    -0x20(%ebp),%eax
   148eb:	01 d0                	add    %edx,%eax
   148ed:	8b 00                	mov    (%eax),%eax
   148ef:	85 c0                	test   %eax,%eax
   148f1:	75 bf                	jne    148b2 <_sys_exec+0x34>
   148f3:	8b 45 f0             	mov    -0x10(%ebp),%eax
   148f6:	89 e2                	mov    %esp,%edx
   148f8:	89 d6                	mov    %edx,%esi
   148fa:	8d 50 ff             	lea    -0x1(%eax),%edx
   148fd:	89 55 dc             	mov    %edx,-0x24(%ebp)
   14900:	89 c2                	mov    %eax,%edx
   14902:	b8 10 00 00 00       	mov    $0x10,%eax
   14907:	83 e8 01             	sub    $0x1,%eax
   1490a:	01 d0                	add    %edx,%eax
   1490c:	b9 10 00 00 00       	mov    $0x10,%ecx
   14911:	ba 00 00 00 00       	mov    $0x0,%edx
   14916:	f7 f1                	div    %ecx
   14918:	6b c0 10             	imul   $0x10,%eax,%eax
   1491b:	29 c4                	sub    %eax,%esp
   1491d:	89 e0                	mov    %esp,%eax
   1491f:	83 c0 00             	add    $0x0,%eax
   14922:	89 45 d8             	mov    %eax,-0x28(%ebp)
   14925:	8b 45 f4             	mov    -0xc(%ebp),%eax
   14928:	83 c0 01             	add    $0x1,%eax
   1492b:	8d 50 ff             	lea    -0x1(%eax),%edx
   1492e:	89 55 d4             	mov    %edx,-0x2c(%ebp)
   14931:	c1 e0 02             	shl    $0x2,%eax
   14934:	8d 50 03             	lea    0x3(%eax),%edx
   14937:	b8 10 00 00 00       	mov    $0x10,%eax
   1493c:	83 e8 01             	sub    $0x1,%eax
   1493f:	01 d0                	add    %edx,%eax
   14941:	bb 10 00 00 00       	mov    $0x10,%ebx
   14946:	ba 00 00 00 00       	mov    $0x0,%edx
   1494b:	f7 f3                	div    %ebx
   1494d:	6b c0 10             	imul   $0x10,%eax,%eax
   14950:	29 c4                	sub    %eax,%esp
   14952:	89 e0                	mov    %esp,%eax
   14954:	83 c0 03             	add    $0x3,%eax
   14957:	c1 e8 02             	shr    $0x2,%eax
   1495a:	c1 e0 02             	shl    $0x2,%eax
   1495d:	89 45 d0             	mov    %eax,-0x30(%ebp)
   14960:	8b 45 d8             	mov    -0x28(%ebp),%eax
   14963:	89 45 ec             	mov    %eax,-0x14(%ebp)
   14966:	c7 45 e8 00 00 00 00 	movl   $0x0,-0x18(%ebp)
   1496d:	eb 53                	jmp    149c2 <_sys_exec+0x144>
   1496f:	8b 45 e8             	mov    -0x18(%ebp),%eax
   14972:	8d 14 85 00 00 00 00 	lea    0x0(,%eax,4),%edx
   14979:	8b 45 e0             	mov    -0x20(%ebp),%eax
   1497c:	01 d0                	add    %edx,%eax
   1497e:	8b 00                	mov    (%eax),%eax
   14980:	83 ec 08             	sub    $0x8,%esp
   14983:	50                   	push   %eax
   14984:	ff 75 ec             	pushl  -0x14(%ebp)
   14987:	e8 2b d8 ff ff       	call   121b7 <_kstrcpy>
   1498c:	83 c4 10             	add    $0x10,%esp
   1498f:	8b 45 d0             	mov    -0x30(%ebp),%eax
   14992:	8b 55 e8             	mov    -0x18(%ebp),%edx
   14995:	8b 4d ec             	mov    -0x14(%ebp),%ecx
   14998:	89 0c 90             	mov    %ecx,(%eax,%edx,4)
   1499b:	8b 45 e8             	mov    -0x18(%ebp),%eax
   1499e:	8d 14 85 00 00 00 00 	lea    0x0(,%eax,4),%edx
   149a5:	8b 45 e0             	mov    -0x20(%ebp),%eax
   149a8:	01 d0                	add    %edx,%eax
   149aa:	8b 00                	mov    (%eax),%eax
   149ac:	83 ec 0c             	sub    $0xc,%esp
   149af:	50                   	push   %eax
   149b0:	e8 32 d8 ff ff       	call   121e7 <_kstrlen>
   149b5:	83 c4 10             	add    $0x10,%esp
   149b8:	83 c0 01             	add    $0x1,%eax
   149bb:	01 45 ec             	add    %eax,-0x14(%ebp)
   149be:	83 45 e8 01          	addl   $0x1,-0x18(%ebp)
   149c2:	8b 45 e8             	mov    -0x18(%ebp),%eax
   149c5:	3b 45 f4             	cmp    -0xc(%ebp),%eax
   149c8:	7c a5                	jl     1496f <_sys_exec+0xf1>
   149ca:	8b 45 d0             	mov    -0x30(%ebp),%eax
   149cd:	8b 55 f4             	mov    -0xc(%ebp),%edx
   149d0:	c7 04 90 00 00 00 00 	movl   $0x0,(%eax,%edx,4)
   149d7:	8b 1d 64 cc 01 00    	mov    0x1cc64,%ebx
   149dd:	8b 55 d0             	mov    -0x30(%ebp),%edx
   149e0:	a1 64 cc 01 00       	mov    0x1cc64,%eax
   149e5:	8b 40 04             	mov    0x4(%eax),%eax
   149e8:	83 ec 0c             	sub    $0xc,%esp
   149eb:	ff 75 f0             	pushl  -0x10(%ebp)
   149ee:	ff 75 f4             	pushl  -0xc(%ebp)
   149f1:	52                   	push   %edx
   149f2:	ff 75 e4             	pushl  -0x1c(%ebp)
   149f5:	50                   	push   %eax
   149f6:	e8 9a f8 ff ff       	call   14295 <_stk_setup>
   149fb:	83 c4 20             	add    $0x20,%esp
   149fe:	89 03                	mov    %eax,(%ebx)
   14a00:	a1 64 cc 01 00       	mov    0x1cc64,%eax
   14a05:	8b 00                	mov    (%eax),%eax
   14a07:	85 c0                	test   %eax,%eax
   14a09:	75 3d                	jne    14a48 <_sys_exec+0x1ca>
   14a0b:	a1 64 cc 01 00       	mov    0x1cc64,%eax
   14a10:	8b 40 04             	mov    0x4(%eax),%eax
   14a13:	89 c2                	mov    %eax,%edx
   14a15:	a1 64 cc 01 00       	mov    0x1cc64,%eax
   14a1a:	0f b7 40 10          	movzwl 0x10(%eax),%eax
   14a1e:	0f b7 c0             	movzwl %ax,%eax
   14a21:	83 ec 04             	sub    $0x4,%esp
   14a24:	52                   	push   %edx
   14a25:	50                   	push   %eax
   14a26:	68 84 82 01 00       	push   $0x18284
   14a2b:	e8 25 ce ff ff       	call   11855 <c_printf>
   14a30:	83 c4 10             	add    $0x10,%esp
   14a33:	83 ec 08             	sub    $0x8,%esp
   14a36:	68 b0 82 01 00       	push   $0x182b0
   14a3b:	68 cd 82 01 00       	push   $0x182cd
   14a40:	e8 fa d7 ff ff       	call   1223f <_kpanic>
   14a45:	83 c4 10             	add    $0x10,%esp
   14a48:	89 f4                	mov    %esi,%esp
   14a4a:	90                   	nop
   14a4b:	8d 65 f8             	lea    -0x8(%ebp),%esp
   14a4e:	5b                   	pop    %ebx
   14a4f:	5e                   	pop    %esi
   14a50:	5d                   	pop    %ebp
   14a51:	c3                   	ret    

00014a52 <_sys_kill>:
   14a52:	55                   	push   %ebp
   14a53:	89 e5                	mov    %esp,%ebp
   14a55:	83 ec 18             	sub    $0x18,%esp
   14a58:	a1 64 cc 01 00       	mov    0x1cc64,%eax
   14a5d:	8b 00                	mov    (%eax),%eax
   14a5f:	83 c0 4c             	add    $0x4c,%eax
   14a62:	8b 00                	mov    (%eax),%eax
   14a64:	66 89 45 f6          	mov    %ax,-0xa(%ebp)
   14a68:	c7 45 f0 00 00 00 00 	movl   $0x0,-0x10(%ebp)
   14a6f:	66 83 7d f6 00       	cmpw   $0x0,-0xa(%ebp)
   14a74:	75 0d                	jne    14a83 <_sys_kill+0x31>
   14a76:	a1 64 cc 01 00       	mov    0x1cc64,%eax
   14a7b:	0f b7 40 10          	movzwl 0x10(%eax),%eax
   14a7f:	66 89 45 f6          	mov    %ax,-0xa(%ebp)
   14a83:	a1 64 cc 01 00       	mov    0x1cc64,%eax
   14a88:	0f b7 40 10          	movzwl 0x10(%eax),%eax
   14a8c:	66 3b 45 f6          	cmp    -0xa(%ebp),%ax
   14a90:	75 0a                	jne    14a9c <_sys_kill+0x4a>
   14a92:	a1 64 cc 01 00       	mov    0x1cc64,%eax
   14a97:	89 45 f0             	mov    %eax,-0x10(%ebp)
   14a9a:	eb 2c                	jmp    14ac8 <_sys_kill+0x76>
   14a9c:	0f b7 45 f6          	movzwl -0xa(%ebp),%eax
   14aa0:	83 ec 0c             	sub    $0xc,%esp
   14aa3:	50                   	push   %eax
   14aa4:	e8 9e de ff ff       	call   12947 <_pcb_find>
   14aa9:	83 c4 10             	add    $0x10,%esp
   14aac:	89 45 f0             	mov    %eax,-0x10(%ebp)
   14aaf:	83 7d f0 00          	cmpl   $0x0,-0x10(%ebp)
   14ab3:	75 13                	jne    14ac8 <_sys_kill+0x76>
   14ab5:	a1 64 cc 01 00       	mov    0x1cc64,%eax
   14aba:	8b 00                	mov    (%eax),%eax
   14abc:	c7 40 30 fe ff ff ff 	movl   $0xfffffffe,0x30(%eax)
   14ac3:	e9 6d 01 00 00       	jmp    14c35 <_sys_kill+0x1e3>
   14ac8:	83 7d f0 00          	cmpl   $0x0,-0x10(%ebp)
   14acc:	75 15                	jne    14ae3 <_sys_kill+0x91>
   14ace:	83 ec 08             	sub    $0x8,%esp
   14ad1:	68 d7 82 01 00       	push   $0x182d7
   14ad6:	68 f5 82 01 00       	push   $0x182f5
   14adb:	e8 5f d7 ff ff       	call   1223f <_kpanic>
   14ae0:	83 c4 10             	add    $0x10,%esp
   14ae3:	8b 45 f0             	mov    -0x10(%ebp),%eax
   14ae6:	0f b6 40 16          	movzbl 0x16(%eax),%eax
   14aea:	84 c0                	test   %al,%al
   14aec:	74 0b                	je     14af9 <_sys_kill+0xa7>
   14aee:	8b 45 f0             	mov    -0x10(%ebp),%eax
   14af1:	0f b6 40 16          	movzbl 0x16(%eax),%eax
   14af5:	3c 08                	cmp    $0x8,%al
   14af7:	76 3b                	jbe    14b34 <_sys_kill+0xe2>
   14af9:	8b 45 f0             	mov    -0x10(%ebp),%eax
   14afc:	0f b6 40 16          	movzbl 0x16(%eax),%eax
   14b00:	0f b6 d0             	movzbl %al,%edx
   14b03:	8b 45 f0             	mov    -0x10(%ebp),%eax
   14b06:	0f b7 40 10          	movzwl 0x10(%eax),%eax
   14b0a:	0f b7 c0             	movzwl %ax,%eax
   14b0d:	83 ec 04             	sub    $0x4,%esp
   14b10:	52                   	push   %edx
   14b11:	50                   	push   %eax
   14b12:	68 00 83 01 00       	push   $0x18300
   14b17:	e8 39 cd ff ff       	call   11855 <c_printf>
   14b1c:	83 c4 10             	add    $0x10,%esp
   14b1f:	83 ec 08             	sub    $0x8,%esp
   14b22:	68 20 83 01 00       	push   $0x18320
   14b27:	68 f5 82 01 00       	push   $0x182f5
   14b2c:	e8 0e d7 ff ff       	call   1223f <_kpanic>
   14b31:	83 c4 10             	add    $0x10,%esp
   14b34:	8b 45 f0             	mov    -0x10(%ebp),%eax
   14b37:	0f b6 40 16          	movzbl 0x16(%eax),%eax
   14b3b:	3c 06                	cmp    $0x6,%al
   14b3d:	74 0b                	je     14b4a <_sys_kill+0xf8>
   14b3f:	8b 45 f0             	mov    -0x10(%ebp),%eax
   14b42:	0f b6 40 16          	movzbl 0x16(%eax),%eax
   14b46:	3c 07                	cmp    $0x7,%al
   14b48:	75 13                	jne    14b5d <_sys_kill+0x10b>
   14b4a:	a1 64 cc 01 00       	mov    0x1cc64,%eax
   14b4f:	8b 00                	mov    (%eax),%eax
   14b51:	c7 40 30 f6 ff ff ff 	movl   $0xfffffff6,0x30(%eax)
   14b58:	e9 d8 00 00 00       	jmp    14c35 <_sys_kill+0x1e3>
   14b5d:	8b 45 f0             	mov    -0x10(%ebp),%eax
   14b60:	0f b6 40 16          	movzbl 0x16(%eax),%eax
   14b64:	3c 08                	cmp    $0x8,%al
   14b66:	75 19                	jne    14b81 <_sys_kill+0x12f>
   14b68:	8b 45 f0             	mov    -0x10(%ebp),%eax
   14b6b:	0f b6 40 17          	movzbl 0x17(%eax),%eax
   14b6f:	0f b6 c0             	movzbl %al,%eax
   14b72:	83 c0 08             	add    $0x8,%eax
   14b75:	8b 04 85 40 c7 01 00 	mov    0x1c740(,%eax,4),%eax
   14b7c:	89 45 ec             	mov    %eax,-0x14(%ebp)
   14b7f:	eb 14                	jmp    14b95 <_sys_kill+0x143>
   14b81:	8b 45 f0             	mov    -0x10(%ebp),%eax
   14b84:	0f b6 40 16          	movzbl 0x16(%eax),%eax
   14b88:	0f b6 c0             	movzbl %al,%eax
   14b8b:	8b 04 85 40 c7 01 00 	mov    0x1c740(,%eax,4),%eax
   14b92:	89 45 ec             	mov    %eax,-0x14(%ebp)
   14b95:	83 7d ec 00          	cmpl   $0x0,-0x14(%ebp)
   14b99:	74 5e                	je     14bf9 <_sys_kill+0x1a7>
   14b9b:	8b 45 f0             	mov    -0x10(%ebp),%eax
   14b9e:	0f b7 40 10          	movzwl 0x10(%eax),%eax
   14ba2:	0f b7 c0             	movzwl %ax,%eax
   14ba5:	83 ec 04             	sub    $0x4,%esp
   14ba8:	68 f5 35 01 00       	push   $0x135f5
   14bad:	50                   	push   %eax
   14bae:	ff 75 ec             	pushl  -0x14(%ebp)
   14bb1:	e8 63 e6 ff ff       	call   13219 <_q_remove_by>
   14bb6:	83 c4 10             	add    $0x10,%esp
   14bb9:	89 45 e8             	mov    %eax,-0x18(%ebp)
   14bbc:	8b 45 e8             	mov    -0x18(%ebp),%eax
   14bbf:	3b 45 f0             	cmp    -0x10(%ebp),%eax
   14bc2:	74 35                	je     14bf9 <_sys_kill+0x1a7>
   14bc4:	8b 4d e8             	mov    -0x18(%ebp),%ecx
   14bc7:	8b 55 f0             	mov    -0x10(%ebp),%edx
   14bca:	8b 45 f0             	mov    -0x10(%ebp),%eax
   14bcd:	0f b7 40 10          	movzwl 0x10(%eax),%eax
   14bd1:	0f b7 c0             	movzwl %ax,%eax
   14bd4:	51                   	push   %ecx
   14bd5:	52                   	push   %edx
   14bd6:	50                   	push   %eax
   14bd7:	68 34 83 01 00       	push   $0x18334
   14bdc:	e8 74 cc ff ff       	call   11855 <c_printf>
   14be1:	83 c4 10             	add    $0x10,%esp
   14be4:	83 ec 08             	sub    $0x8,%esp
   14be7:	68 61 83 01 00       	push   $0x18361
   14bec:	68 f5 82 01 00       	push   $0x182f5
   14bf1:	e8 49 d6 ff ff       	call   1223f <_kpanic>
   14bf6:	83 c4 10             	add    $0x10,%esp
   14bf9:	8b 45 f0             	mov    -0x10(%ebp),%eax
   14bfc:	c6 40 16 06          	movb   $0x6,0x16(%eax)
   14c00:	8b 45 f0             	mov    -0x10(%ebp),%eax
   14c03:	c7 40 0c 02 00 00 00 	movl   $0x2,0xc(%eax)
   14c0a:	a1 64 cc 01 00       	mov    0x1cc64,%eax
   14c0f:	8b 00                	mov    (%eax),%eax
   14c11:	c7 40 30 00 00 00 00 	movl   $0x0,0x30(%eax)
   14c18:	83 ec 0c             	sub    $0xc,%esp
   14c1b:	ff 75 f0             	pushl  -0x10(%ebp)
   14c1e:	e8 6f 04 00 00       	call   15092 <_bite>
   14c23:	83 c4 10             	add    $0x10,%esp
   14c26:	a1 64 cc 01 00       	mov    0x1cc64,%eax
   14c2b:	39 45 f0             	cmp    %eax,-0x10(%ebp)
   14c2e:	75 05                	jne    14c35 <_sys_kill+0x1e3>
   14c30:	e8 11 eb ff ff       	call   13746 <_dispatch>
   14c35:	c9                   	leave  
   14c36:	c3                   	ret    

00014c37 <_sys_exit>:
   14c37:	55                   	push   %ebp
   14c38:	89 e5                	mov    %esp,%ebp
   14c3a:	83 ec 18             	sub    $0x18,%esp
   14c3d:	a1 64 cc 01 00       	mov    0x1cc64,%eax
   14c42:	8b 00                	mov    (%eax),%eax
   14c44:	83 c0 4c             	add    $0x4c,%eax
   14c47:	8b 00                	mov    (%eax),%eax
   14c49:	89 45 f4             	mov    %eax,-0xc(%ebp)
   14c4c:	a1 64 cc 01 00       	mov    0x1cc64,%eax
   14c51:	89 45 f0             	mov    %eax,-0x10(%ebp)
   14c54:	8b 45 f0             	mov    -0x10(%ebp),%eax
   14c57:	8b 55 f4             	mov    -0xc(%ebp),%edx
   14c5a:	89 50 0c             	mov    %edx,0xc(%eax)
   14c5d:	83 ec 0c             	sub    $0xc,%esp
   14c60:	ff 75 f0             	pushl  -0x10(%ebp)
   14c63:	e8 2a 04 00 00       	call   15092 <_bite>
   14c68:	83 c4 10             	add    $0x10,%esp
   14c6b:	e8 d6 ea ff ff       	call   13746 <_dispatch>
   14c70:	90                   	nop
   14c71:	c9                   	leave  
   14c72:	c3                   	ret    

00014c73 <_sys_read>:
   14c73:	55                   	push   %ebp
   14c74:	89 e5                	mov    %esp,%ebp
   14c76:	83 ec 18             	sub    $0x18,%esp
   14c79:	c7 45 f4 00 00 00 00 	movl   $0x0,-0xc(%ebp)
   14c80:	a1 64 cc 01 00       	mov    0x1cc64,%eax
   14c85:	8b 00                	mov    (%eax),%eax
   14c87:	83 c0 4c             	add    $0x4c,%eax
   14c8a:	8b 00                	mov    (%eax),%eax
   14c8c:	89 45 f0             	mov    %eax,-0x10(%ebp)
   14c8f:	a1 64 cc 01 00       	mov    0x1cc64,%eax
   14c94:	8b 00                	mov    (%eax),%eax
   14c96:	83 c0 50             	add    $0x50,%eax
   14c99:	8b 00                	mov    (%eax),%eax
   14c9b:	89 45 ec             	mov    %eax,-0x14(%ebp)
   14c9e:	a1 64 cc 01 00       	mov    0x1cc64,%eax
   14ca3:	8b 00                	mov    (%eax),%eax
   14ca5:	83 c0 54             	add    $0x54,%eax
   14ca8:	8b 00                	mov    (%eax),%eax
   14caa:	89 45 e8             	mov    %eax,-0x18(%ebp)
   14cad:	8b 45 f0             	mov    -0x10(%ebp),%eax
   14cb0:	85 c0                	test   %eax,%eax
   14cb2:	74 07                	je     14cbb <_sys_read+0x48>
   14cb4:	83 f8 01             	cmp    $0x1,%eax
   14cb7:	74 32                	je     14ceb <_sys_read+0x78>
   14cb9:	eb 46                	jmp    14d01 <_sys_read+0x8e>
   14cbb:	e8 c3 cd ff ff       	call   11a83 <c_input_queue>
   14cc0:	85 c0                	test   %eax,%eax
   14cc2:	7f 10                	jg     14cd4 <_sys_read+0x61>
   14cc4:	a1 64 cc 01 00       	mov    0x1cc64,%eax
   14cc9:	8b 00                	mov    (%eax),%eax
   14ccb:	c7 40 30 f5 ff ff ff 	movl   $0xfffffff5,0x30(%eax)
   14cd2:	eb 78                	jmp    14d4c <_sys_read+0xd9>
   14cd4:	8b 45 e8             	mov    -0x18(%ebp),%eax
   14cd7:	83 ec 08             	sub    $0x8,%esp
   14cda:	50                   	push   %eax
   14cdb:	ff 75 ec             	pushl  -0x14(%ebp)
   14cde:	e8 4f cd ff ff       	call   11a32 <c_gets>
   14ce3:	83 c4 10             	add    $0x10,%esp
   14ce6:	89 45 f4             	mov    %eax,-0xc(%ebp)
   14ce9:	eb 26                	jmp    14d11 <_sys_read+0x9e>
   14ceb:	83 ec 08             	sub    $0x8,%esp
   14cee:	ff 75 e8             	pushl  -0x18(%ebp)
   14cf1:	ff 75 ec             	pushl  -0x14(%ebp)
   14cf4:	e8 0a f0 ff ff       	call   13d03 <_sio_reads>
   14cf9:	83 c4 10             	add    $0x10,%esp
   14cfc:	89 45 f4             	mov    %eax,-0xc(%ebp)
   14cff:	eb 10                	jmp    14d11 <_sys_read+0x9e>
   14d01:	a1 64 cc 01 00       	mov    0x1cc64,%eax
   14d06:	8b 00                	mov    (%eax),%eax
   14d08:	c7 40 30 ff ff ff ff 	movl   $0xffffffff,0x30(%eax)
   14d0f:	eb 3b                	jmp    14d4c <_sys_read+0xd9>
   14d11:	83 7d f4 00          	cmpl   $0x0,-0xc(%ebp)
   14d15:	7e 0f                	jle    14d26 <_sys_read+0xb3>
   14d17:	a1 64 cc 01 00       	mov    0x1cc64,%eax
   14d1c:	8b 00                	mov    (%eax),%eax
   14d1e:	8b 55 f4             	mov    -0xc(%ebp),%edx
   14d21:	89 50 30             	mov    %edx,0x30(%eax)
   14d24:	eb 26                	jmp    14d4c <_sys_read+0xd9>
   14d26:	8b 15 64 cc 01 00    	mov    0x1cc64,%edx
   14d2c:	a1 68 cc 01 00       	mov    0x1cc68,%eax
   14d31:	83 ec 08             	sub    $0x8,%esp
   14d34:	52                   	push   %edx
   14d35:	50                   	push   %eax
   14d36:	e8 ca e2 ff ff       	call   13005 <_q_insert>
   14d3b:	83 c4 10             	add    $0x10,%esp
   14d3e:	a1 64 cc 01 00       	mov    0x1cc64,%eax
   14d43:	c6 40 16 05          	movb   $0x5,0x16(%eax)
   14d47:	e8 fa e9 ff ff       	call   13746 <_dispatch>
   14d4c:	c9                   	leave  
   14d4d:	c3                   	ret    

00014d4e <_sys_write>:
   14d4e:	55                   	push   %ebp
   14d4f:	89 e5                	mov    %esp,%ebp
   14d51:	83 ec 18             	sub    $0x18,%esp
   14d54:	a1 64 cc 01 00       	mov    0x1cc64,%eax
   14d59:	8b 00                	mov    (%eax),%eax
   14d5b:	83 c0 4c             	add    $0x4c,%eax
   14d5e:	8b 00                	mov    (%eax),%eax
   14d60:	89 45 f0             	mov    %eax,-0x10(%ebp)
   14d63:	a1 64 cc 01 00       	mov    0x1cc64,%eax
   14d68:	8b 00                	mov    (%eax),%eax
   14d6a:	83 c0 50             	add    $0x50,%eax
   14d6d:	8b 00                	mov    (%eax),%eax
   14d6f:	89 45 ec             	mov    %eax,-0x14(%ebp)
   14d72:	a1 64 cc 01 00       	mov    0x1cc64,%eax
   14d77:	8b 00                	mov    (%eax),%eax
   14d79:	83 c0 54             	add    $0x54,%eax
   14d7c:	8b 00                	mov    (%eax),%eax
   14d7e:	89 45 e8             	mov    %eax,-0x18(%ebp)
   14d81:	8b 45 f0             	mov    -0x10(%ebp),%eax
   14d84:	85 c0                	test   %eax,%eax
   14d86:	74 07                	je     14d8f <_sys_write+0x41>
   14d88:	83 f8 01             	cmp    $0x1,%eax
   14d8b:	74 40                	je     14dcd <_sys_write+0x7f>
   14d8d:	eb 5e                	jmp    14ded <_sys_write+0x9f>
   14d8f:	c7 45 f4 00 00 00 00 	movl   $0x0,-0xc(%ebp)
   14d96:	eb 1e                	jmp    14db6 <_sys_write+0x68>
   14d98:	8b 55 f4             	mov    -0xc(%ebp),%edx
   14d9b:	8b 45 ec             	mov    -0x14(%ebp),%eax
   14d9e:	01 d0                	add    %edx,%eax
   14da0:	0f b6 00             	movzbl (%eax),%eax
   14da3:	0f be c0             	movsbl %al,%eax
   14da6:	83 ec 0c             	sub    $0xc,%esp
   14da9:	50                   	push   %eax
   14daa:	e8 24 c1 ff ff       	call   10ed3 <c_putchar>
   14daf:	83 c4 10             	add    $0x10,%esp
   14db2:	83 45 f4 01          	addl   $0x1,-0xc(%ebp)
   14db6:	8b 45 f4             	mov    -0xc(%ebp),%eax
   14db9:	3b 45 e8             	cmp    -0x18(%ebp),%eax
   14dbc:	7c da                	jl     14d98 <_sys_write+0x4a>
   14dbe:	a1 64 cc 01 00       	mov    0x1cc64,%eax
   14dc3:	8b 00                	mov    (%eax),%eax
   14dc5:	8b 55 e8             	mov    -0x18(%ebp),%edx
   14dc8:	89 50 30             	mov    %edx,0x30(%eax)
   14dcb:	eb 2f                	jmp    14dfc <_sys_write+0xae>
   14dcd:	83 ec 08             	sub    $0x8,%esp
   14dd0:	ff 75 e8             	pushl  -0x18(%ebp)
   14dd3:	ff 75 ec             	pushl  -0x14(%ebp)
   14dd6:	e8 34 f0 ff ff       	call   13e0f <_sio_writes>
   14ddb:	83 c4 10             	add    $0x10,%esp
   14dde:	a1 64 cc 01 00       	mov    0x1cc64,%eax
   14de3:	8b 00                	mov    (%eax),%eax
   14de5:	8b 55 e8             	mov    -0x18(%ebp),%edx
   14de8:	89 50 30             	mov    %edx,0x30(%eax)
   14deb:	eb 0f                	jmp    14dfc <_sys_write+0xae>
   14ded:	a1 64 cc 01 00       	mov    0x1cc64,%eax
   14df2:	8b 00                	mov    (%eax),%eax
   14df4:	c7 40 30 ff ff ff ff 	movl   $0xffffffff,0x30(%eax)
   14dfb:	90                   	nop
   14dfc:	90                   	nop
   14dfd:	c9                   	leave  
   14dfe:	c3                   	ret    

00014dff <_sys_wait>:
   14dff:	55                   	push   %ebp
   14e00:	89 e5                	mov    %esp,%ebp
   14e02:	83 ec 18             	sub    $0x18,%esp
   14e05:	a1 64 cc 01 00       	mov    0x1cc64,%eax
   14e0a:	0f b7 40 14          	movzwl 0x14(%eax),%eax
   14e0e:	66 85 c0             	test   %ax,%ax
   14e11:	75 13                	jne    14e26 <_sys_wait+0x27>
   14e13:	a1 64 cc 01 00       	mov    0x1cc64,%eax
   14e18:	8b 00                	mov    (%eax),%eax
   14e1a:	c7 40 30 fa ff ff ff 	movl   $0xfffffffa,0x30(%eax)
   14e21:	e9 a8 00 00 00       	jmp    14ece <_sys_wait+0xcf>
   14e26:	a1 64 cc 01 00       	mov    0x1cc64,%eax
   14e2b:	0f b7 40 10          	movzwl 0x10(%eax),%eax
   14e2f:	0f b7 c0             	movzwl %ax,%eax
   14e32:	89 c2                	mov    %eax,%edx
   14e34:	a1 44 cc 01 00       	mov    0x1cc44,%eax
   14e39:	83 ec 04             	sub    $0x4,%esp
   14e3c:	68 21 36 01 00       	push   $0x13621
   14e41:	52                   	push   %edx
   14e42:	50                   	push   %eax
   14e43:	e8 d1 e3 ff ff       	call   13219 <_q_remove_by>
   14e48:	83 c4 10             	add    $0x10,%esp
   14e4b:	89 45 f4             	mov    %eax,-0xc(%ebp)
   14e4e:	83 7d f4 00          	cmpl   $0x0,-0xc(%ebp)
   14e52:	75 28                	jne    14e7c <_sys_wait+0x7d>
   14e54:	a1 64 cc 01 00       	mov    0x1cc64,%eax
   14e59:	c6 40 16 04          	movb   $0x4,0x16(%eax)
   14e5d:	8b 15 64 cc 01 00    	mov    0x1cc64,%edx
   14e63:	a1 4c cc 01 00       	mov    0x1cc4c,%eax
   14e68:	83 ec 08             	sub    $0x8,%esp
   14e6b:	52                   	push   %edx
   14e6c:	50                   	push   %eax
   14e6d:	e8 93 e1 ff ff       	call   13005 <_q_insert>
   14e72:	83 c4 10             	add    $0x10,%esp
   14e75:	e8 cc e8 ff ff       	call   13746 <_dispatch>
   14e7a:	eb 52                	jmp    14ece <_sys_wait+0xcf>
   14e7c:	a1 64 cc 01 00       	mov    0x1cc64,%eax
   14e81:	8b 00                	mov    (%eax),%eax
   14e83:	8b 55 f4             	mov    -0xc(%ebp),%edx
   14e86:	0f b7 52 10          	movzwl 0x10(%edx),%edx
   14e8a:	0f b7 d2             	movzwl %dx,%edx
   14e8d:	89 50 30             	mov    %edx,0x30(%eax)
   14e90:	a1 64 cc 01 00       	mov    0x1cc64,%eax
   14e95:	8b 00                	mov    (%eax),%eax
   14e97:	83 c0 4c             	add    $0x4c,%eax
   14e9a:	8b 00                	mov    (%eax),%eax
   14e9c:	89 45 f0             	mov    %eax,-0x10(%ebp)
   14e9f:	8b 45 f4             	mov    -0xc(%ebp),%eax
   14ea2:	8b 50 0c             	mov    0xc(%eax),%edx
   14ea5:	8b 45 f0             	mov    -0x10(%ebp),%eax
   14ea8:	89 10                	mov    %edx,(%eax)
   14eaa:	a1 64 cc 01 00       	mov    0x1cc64,%eax
   14eaf:	8b 15 64 cc 01 00    	mov    0x1cc64,%edx
   14eb5:	0f b7 52 14          	movzwl 0x14(%edx),%edx
   14eb9:	83 ea 01             	sub    $0x1,%edx
   14ebc:	66 89 50 14          	mov    %dx,0x14(%eax)
   14ec0:	83 ec 0c             	sub    $0xc,%esp
   14ec3:	ff 75 f4             	pushl  -0xc(%ebp)
   14ec6:	e8 26 db ff ff       	call   129f1 <_pcb_cleanup>
   14ecb:	83 c4 10             	add    $0x10,%esp
   14ece:	c9                   	leave  
   14ecf:	c3                   	ret    

00014ed0 <_sys_dumpme>:
   14ed0:	55                   	push   %ebp
   14ed1:	89 e5                	mov    %esp,%ebp
   14ed3:	83 ec 18             	sub    $0x18,%esp
   14ed6:	a1 64 cc 01 00       	mov    0x1cc64,%eax
   14edb:	8b 00                	mov    (%eax),%eax
   14edd:	83 c0 4c             	add    $0x4c,%eax
   14ee0:	8b 00                	mov    (%eax),%eax
   14ee2:	89 45 f4             	mov    %eax,-0xc(%ebp)
   14ee5:	a1 64 cc 01 00       	mov    0x1cc64,%eax
   14eea:	83 ec 08             	sub    $0x8,%esp
   14eed:	50                   	push   %eax
   14eee:	68 77 83 01 00       	push   $0x18377
   14ef3:	e8 61 db ff ff       	call   12a59 <_pcb_dump>
   14ef8:	83 c4 10             	add    $0x10,%esp
   14efb:	a1 64 cc 01 00       	mov    0x1cc64,%eax
   14f00:	8b 00                	mov    (%eax),%eax
   14f02:	83 ec 08             	sub    $0x8,%esp
   14f05:	50                   	push   %eax
   14f06:	68 92 83 01 00       	push   $0x18392
   14f0b:	e8 5a dc ff ff       	call   12b6a <_context_dump>
   14f10:	83 c4 10             	add    $0x10,%esp
   14f13:	a1 64 cc 01 00       	mov    0x1cc64,%eax
   14f18:	8b 40 04             	mov    0x4(%eax),%eax
   14f1b:	83 ec 04             	sub    $0x4,%esp
   14f1e:	6a 00                	push   $0x0
   14f20:	50                   	push   %eax
   14f21:	68 9e 83 01 00       	push   $0x1839e
   14f26:	e8 2c f1 ff ff       	call   14057 <_stk_dump>
   14f2b:	83 c4 10             	add    $0x10,%esp
   14f2e:	83 7d f4 00          	cmpl   $0x0,-0xc(%ebp)
   14f32:	74 12                	je     14f46 <_sys_dumpme+0x76>
   14f34:	83 ec 0c             	sub    $0xc,%esp
   14f37:	68 a8 83 01 00       	push   $0x183a8
   14f3c:	e8 d2 c0 ff ff       	call   11013 <c_puts>
   14f41:	83 c4 10             	add    $0x10,%esp
   14f44:	eb fe                	jmp    14f44 <_sys_dumpme+0x74>
   14f46:	83 ec 0c             	sub    $0xc,%esp
   14f49:	68 c8 00 00 00       	push   $0xc8
   14f4e:	e8 b5 ce ff ff       	call   11e08 <__delay>
   14f53:	83 c4 10             	add    $0x10,%esp
   14f56:	90                   	nop
   14f57:	c9                   	leave  
   14f58:	c3                   	ret    

00014f59 <_sys_init>:
   14f59:	55                   	push   %ebp
   14f5a:	89 e5                	mov    %esp,%ebp
   14f5c:	83 ec 08             	sub    $0x8,%esp
   14f5f:	83 ec 0c             	sub    $0xc,%esp
   14f62:	68 c2 83 01 00       	push   $0x183c2
   14f67:	e8 a7 c0 ff ff       	call   11013 <c_puts>
   14f6c:	83 c4 10             	add    $0x10,%esp
   14f6f:	c7 05 00 c7 01 00 37 	movl   $0x14c37,0x1c700
   14f76:	4c 01 00 
   14f79:	c7 05 04 c7 01 00 73 	movl   $0x14c73,0x1c704
   14f80:	4c 01 00 
   14f83:	c7 05 08 c7 01 00 4e 	movl   $0x14d4e,0x1c708
   14f8a:	4d 01 00 
   14f8d:	c7 05 0c c7 01 00 39 	movl   $0x14639,0x1c70c
   14f94:	46 01 00 
   14f97:	c7 05 10 c7 01 00 7e 	movl   $0x1487e,0x1c710
   14f9e:	48 01 00 
   14fa1:	c7 05 14 c7 01 00 52 	movl   $0x14a52,0x1c714
   14fa8:	4a 01 00 
   14fab:	c7 05 18 c7 01 00 ff 	movl   $0x14dff,0x1c718
   14fb2:	4d 01 00 
   14fb5:	c7 05 1c c7 01 00 cb 	movl   $0x145cb,0x1c71c
   14fbc:	45 01 00 
   14fbf:	c7 05 20 c7 01 00 7e 	movl   $0x1447e,0x1c720
   14fc6:	44 01 00 
   14fc9:	c7 05 24 c7 01 00 94 	movl   $0x14494,0x1c724
   14fd0:	44 01 00 
   14fd3:	c7 05 28 c7 01 00 b1 	movl   $0x144b1,0x1c728
   14fda:	44 01 00 
   14fdd:	c7 05 2c c7 01 00 ce 	movl   $0x144ce,0x1c72c
   14fe4:	44 01 00 
   14fe7:	c7 05 30 c7 01 00 2f 	movl   $0x1452f,0x1c730
   14fee:	45 01 00 
   14ff1:	c7 05 34 c7 01 00 d0 	movl   $0x14ed0,0x1c734
   14ff8:	4e 01 00 
   14ffb:	c7 05 40 c7 01 00 00 	movl   $0x0,0x1c740
   15002:	00 00 00 
   15005:	c7 05 44 c7 01 00 00 	movl   $0x0,0x1c744
   1500c:	00 00 00 
   1500f:	c7 05 48 c7 01 00 00 	movl   $0x0,0x1c748
   15016:	00 00 00 
   15019:	a1 48 cc 01 00       	mov    0x1cc48,%eax
   1501e:	a3 4c c7 01 00       	mov    %eax,0x1c74c
   15023:	a1 4c cc 01 00       	mov    0x1cc4c,%eax
   15028:	a3 50 c7 01 00       	mov    %eax,0x1c750
   1502d:	a1 68 cc 01 00       	mov    0x1cc68,%eax
   15032:	a3 54 c7 01 00       	mov    %eax,0x1c754
   15037:	a1 44 cc 01 00       	mov    0x1cc44,%eax
   1503c:	a3 58 c7 01 00       	mov    %eax,0x1c758
   15041:	a1 44 cc 01 00       	mov    0x1cc44,%eax
   15046:	a3 5c c7 01 00       	mov    %eax,0x1c75c
   1504b:	a1 50 cc 01 00       	mov    0x1cc50,%eax
   15050:	a3 60 c7 01 00       	mov    %eax,0x1c760
   15055:	a1 54 cc 01 00       	mov    0x1cc54,%eax
   1505a:	a3 64 c7 01 00       	mov    %eax,0x1c764
   1505f:	a1 58 cc 01 00       	mov    0x1cc58,%eax
   15064:	a3 68 c7 01 00       	mov    %eax,0x1c768
   15069:	a1 5c cc 01 00       	mov    0x1cc5c,%eax
   1506e:	a3 6c c7 01 00       	mov    %eax,0x1c76c
   15073:	a1 60 cc 01 00       	mov    0x1cc60,%eax
   15078:	a3 70 c7 01 00       	mov    %eax,0x1c770
   1507d:	83 ec 08             	sub    $0x8,%esp
   15080:	68 30 44 01 00       	push   $0x14430
   15085:	6a 42                	push   $0x42
   15087:	e8 57 cd ff ff       	call   11de3 <__install_isr>
   1508c:	83 c4 10             	add    $0x10,%esp
   1508f:	90                   	nop
   15090:	c9                   	leave  
   15091:	c3                   	ret    

00015092 <_bite>:
   15092:	55                   	push   %ebp
   15093:	89 e5                	mov    %esp,%ebp
   15095:	56                   	push   %esi
   15096:	53                   	push   %ebx
   15097:	83 ec 10             	sub    $0x10,%esp
   1509a:	83 7d 08 00          	cmpl   $0x0,0x8(%ebp)
   1509e:	75 15                	jne    150b5 <_bite+0x23>
   150a0:	83 ec 08             	sub    $0x8,%esp
   150a3:	68 cc 83 01 00       	push   $0x183cc
   150a8:	68 df 83 01 00       	push   $0x183df
   150ad:	e8 8d d1 ff ff       	call   1223f <_kpanic>
   150b2:	83 c4 10             	add    $0x10,%esp
   150b5:	8b 45 08             	mov    0x8(%ebp),%eax
   150b8:	0f b7 40 14          	movzwl 0x14(%eax),%eax
   150bc:	66 85 c0             	test   %ax,%ax
   150bf:	0f 84 cf 00 00 00    	je     15194 <_bite+0x102>
   150c5:	a1 c4 cb 01 00       	mov    0x1cbc4,%eax
   150ca:	85 c0                	test   %eax,%eax
   150cc:	75 15                	jne    150e3 <_bite+0x51>
   150ce:	83 ec 08             	sub    $0x8,%esp
   150d1:	68 e5 83 01 00       	push   $0x183e5
   150d6:	68 df 83 01 00       	push   $0x183df
   150db:	e8 5f d1 ff ff       	call   1223f <_kpanic>
   150e0:	83 c4 10             	add    $0x10,%esp
   150e3:	8b 45 08             	mov    0x8(%ebp),%eax
   150e6:	0f b7 40 10          	movzwl 0x10(%eax),%eax
   150ea:	0f b7 c0             	movzwl %ax,%eax
   150ed:	83 ec 0c             	sub    $0xc,%esp
   150f0:	50                   	push   %eax
   150f1:	e8 a6 d8 ff ff       	call   1299c <_pcb_find_parent>
   150f6:	83 c4 10             	add    $0x10,%esp
   150f9:	89 45 f4             	mov    %eax,-0xc(%ebp)
   150fc:	eb 49                	jmp    15147 <_bite+0xb5>
   150fe:	8b 45 f4             	mov    -0xc(%ebp),%eax
   15101:	66 c7 40 12 01 00    	movw   $0x1,0x12(%eax)
   15107:	8b 45 08             	mov    0x8(%ebp),%eax
   1510a:	0f b7 40 14          	movzwl 0x14(%eax),%eax
   1510e:	8d 50 ff             	lea    -0x1(%eax),%edx
   15111:	8b 45 08             	mov    0x8(%ebp),%eax
   15114:	66 89 50 14          	mov    %dx,0x14(%eax)
   15118:	a1 c4 cb 01 00       	mov    0x1cbc4,%eax
   1511d:	8b 15 c4 cb 01 00    	mov    0x1cbc4,%edx
   15123:	0f b7 52 14          	movzwl 0x14(%edx),%edx
   15127:	83 c2 01             	add    $0x1,%edx
   1512a:	66 89 50 14          	mov    %dx,0x14(%eax)
   1512e:	8b 45 08             	mov    0x8(%ebp),%eax
   15131:	0f b7 40 10          	movzwl 0x10(%eax),%eax
   15135:	0f b7 c0             	movzwl %ax,%eax
   15138:	83 ec 0c             	sub    $0xc,%esp
   1513b:	50                   	push   %eax
   1513c:	e8 5b d8 ff ff       	call   1299c <_pcb_find_parent>
   15141:	83 c4 10             	add    $0x10,%esp
   15144:	89 45 f4             	mov    %eax,-0xc(%ebp)
   15147:	83 7d f4 00          	cmpl   $0x0,-0xc(%ebp)
   1514b:	75 b1                	jne    150fe <_bite+0x6c>
   1514d:	8b 45 08             	mov    0x8(%ebp),%eax
   15150:	0f b7 40 14          	movzwl 0x14(%eax),%eax
   15154:	66 85 c0             	test   %ax,%ax
   15157:	74 3b                	je     15194 <_bite+0x102>
   15159:	8b 45 08             	mov    0x8(%ebp),%eax
   1515c:	0f b7 40 14          	movzwl 0x14(%eax),%eax
   15160:	0f b7 d0             	movzwl %ax,%edx
   15163:	8b 45 08             	mov    0x8(%ebp),%eax
   15166:	0f b7 40 10          	movzwl 0x10(%eax),%eax
   1516a:	0f b7 c0             	movzwl %ax,%eax
   1516d:	83 ec 04             	sub    $0x4,%esp
   15170:	52                   	push   %edx
   15171:	50                   	push   %eax
   15172:	68 f8 83 01 00       	push   $0x183f8
   15177:	e8 d9 c6 ff ff       	call   11855 <c_printf>
   1517c:	83 c4 10             	add    $0x10,%esp
   1517f:	83 ec 08             	sub    $0x8,%esp
   15182:	68 1e 84 01 00       	push   $0x1841e
   15187:	68 df 83 01 00       	push   $0x183df
   1518c:	e8 ae d0 ff ff       	call   1223f <_kpanic>
   15191:	83 c4 10             	add    $0x10,%esp
   15194:	8b 45 08             	mov    0x8(%ebp),%eax
   15197:	0f b7 40 12          	movzwl 0x12(%eax),%eax
   1519b:	0f b7 c0             	movzwl %ax,%eax
   1519e:	83 ec 0c             	sub    $0xc,%esp
   151a1:	50                   	push   %eax
   151a2:	e8 a0 d7 ff ff       	call   12947 <_pcb_find>
   151a7:	83 c4 10             	add    $0x10,%esp
   151aa:	89 45 f0             	mov    %eax,-0x10(%ebp)
   151ad:	83 7d f0 00          	cmpl   $0x0,-0x10(%ebp)
   151b1:	75 3b                	jne    151ee <_bite+0x15c>
   151b3:	8b 45 08             	mov    0x8(%ebp),%eax
   151b6:	0f b7 40 12          	movzwl 0x12(%eax),%eax
   151ba:	0f b7 d0             	movzwl %ax,%edx
   151bd:	8b 45 08             	mov    0x8(%ebp),%eax
   151c0:	0f b7 40 10          	movzwl 0x10(%eax),%eax
   151c4:	0f b7 c0             	movzwl %ax,%eax
   151c7:	83 ec 04             	sub    $0x4,%esp
   151ca:	52                   	push   %edx
   151cb:	50                   	push   %eax
   151cc:	68 34 84 01 00       	push   $0x18434
   151d1:	e8 7f c6 ff ff       	call   11855 <c_printf>
   151d6:	83 c4 10             	add    $0x10,%esp
   151d9:	83 ec 08             	sub    $0x8,%esp
   151dc:	68 58 84 01 00       	push   $0x18458
   151e1:	68 df 83 01 00       	push   $0x183df
   151e6:	e8 54 d0 ff ff       	call   1223f <_kpanic>
   151eb:	83 c4 10             	add    $0x10,%esp
   151ee:	8b 45 f0             	mov    -0x10(%ebp),%eax
   151f1:	0f b6 40 16          	movzbl 0x16(%eax),%eax
   151f5:	3c 04                	cmp    $0x4,%al
   151f7:	0f 85 07 01 00 00    	jne    15304 <_bite+0x272>
   151fd:	8b 45 f0             	mov    -0x10(%ebp),%eax
   15200:	0f b7 40 10          	movzwl 0x10(%eax),%eax
   15204:	0f b7 c0             	movzwl %ax,%eax
   15207:	89 c2                	mov    %eax,%edx
   15209:	a1 4c cc 01 00       	mov    0x1cc4c,%eax
   1520e:	83 ec 04             	sub    $0x4,%esp
   15211:	68 f5 35 01 00       	push   $0x135f5
   15216:	52                   	push   %edx
   15217:	50                   	push   %eax
   15218:	e8 fc df ff ff       	call   13219 <_q_remove_by>
   1521d:	83 c4 10             	add    $0x10,%esp
   15220:	89 45 ec             	mov    %eax,-0x14(%ebp)
   15223:	83 7d ec 00          	cmpl   $0x0,-0x14(%ebp)
   15227:	75 3d                	jne    15266 <_bite+0x1d4>
   15229:	8b 45 f0             	mov    -0x10(%ebp),%eax
   1522c:	0f b7 40 10          	movzwl 0x10(%eax),%eax
   15230:	0f b7 d0             	movzwl %ax,%edx
   15233:	8b 45 08             	mov    0x8(%ebp),%eax
   15236:	0f b7 40 10          	movzwl 0x10(%eax),%eax
   1523a:	0f b7 c0             	movzwl %ax,%eax
   1523d:	83 ec 04             	sub    $0x4,%esp
   15240:	52                   	push   %edx
   15241:	50                   	push   %eax
   15242:	68 70 84 01 00       	push   $0x18470
   15247:	e8 09 c6 ff ff       	call   11855 <c_printf>
   1524c:	83 c4 10             	add    $0x10,%esp
   1524f:	83 ec 08             	sub    $0x8,%esp
   15252:	68 9e 84 01 00       	push   $0x1849e
   15257:	68 df 83 01 00       	push   $0x183df
   1525c:	e8 de cf ff ff       	call   1223f <_kpanic>
   15261:	83 c4 10             	add    $0x10,%esp
   15264:	eb 56                	jmp    152bc <_bite+0x22a>
   15266:	8b 45 ec             	mov    -0x14(%ebp),%eax
   15269:	3b 45 f0             	cmp    -0x10(%ebp),%eax
   1526c:	74 4e                	je     152bc <_bite+0x22a>
   1526e:	8b 75 ec             	mov    -0x14(%ebp),%esi
   15271:	8b 45 ec             	mov    -0x14(%ebp),%eax
   15274:	0f b7 40 10          	movzwl 0x10(%eax),%eax
   15278:	0f b7 d8             	movzwl %ax,%ebx
   1527b:	8b 4d f0             	mov    -0x10(%ebp),%ecx
   1527e:	8b 45 f0             	mov    -0x10(%ebp),%eax
   15281:	0f b7 40 10          	movzwl 0x10(%eax),%eax
   15285:	0f b7 d0             	movzwl %ax,%edx
   15288:	8b 45 08             	mov    0x8(%ebp),%eax
   1528b:	0f b7 40 10          	movzwl 0x10(%eax),%eax
   1528f:	0f b7 c0             	movzwl %ax,%eax
   15292:	83 ec 08             	sub    $0x8,%esp
   15295:	56                   	push   %esi
   15296:	53                   	push   %ebx
   15297:	51                   	push   %ecx
   15298:	52                   	push   %edx
   15299:	50                   	push   %eax
   1529a:	68 bc 84 01 00       	push   $0x184bc
   1529f:	e8 b1 c5 ff ff       	call   11855 <c_printf>
   152a4:	83 c4 20             	add    $0x20,%esp
   152a7:	83 ec 08             	sub    $0x8,%esp
   152aa:	68 e8 84 01 00       	push   $0x184e8
   152af:	68 df 83 01 00       	push   $0x183df
   152b4:	e8 86 cf ff ff       	call   1223f <_kpanic>
   152b9:	83 c4 10             	add    $0x10,%esp
   152bc:	8b 45 f0             	mov    -0x10(%ebp),%eax
   152bf:	8b 00                	mov    (%eax),%eax
   152c1:	8b 55 08             	mov    0x8(%ebp),%edx
   152c4:	0f b7 52 10          	movzwl 0x10(%edx),%edx
   152c8:	0f b7 d2             	movzwl %dx,%edx
   152cb:	89 50 30             	mov    %edx,0x30(%eax)
   152ce:	8b 45 f0             	mov    -0x10(%ebp),%eax
   152d1:	8b 00                	mov    (%eax),%eax
   152d3:	83 c0 4c             	add    $0x4c,%eax
   152d6:	8b 00                	mov    (%eax),%eax
   152d8:	89 45 e8             	mov    %eax,-0x18(%ebp)
   152db:	8b 45 08             	mov    0x8(%ebp),%eax
   152de:	8b 50 0c             	mov    0xc(%eax),%edx
   152e1:	8b 45 e8             	mov    -0x18(%ebp),%eax
   152e4:	89 10                	mov    %edx,(%eax)
   152e6:	83 ec 0c             	sub    $0xc,%esp
   152e9:	ff 75 08             	pushl  0x8(%ebp)
   152ec:	e8 00 d7 ff ff       	call   129f1 <_pcb_cleanup>
   152f1:	83 c4 10             	add    $0x10,%esp
   152f4:	83 ec 0c             	sub    $0xc,%esp
   152f7:	ff 75 f0             	pushl  -0x10(%ebp)
   152fa:	e8 c9 e3 ff ff       	call   136c8 <_schedule>
   152ff:	83 c4 10             	add    $0x10,%esp
   15302:	eb 14                	jmp    15318 <_bite+0x286>
   15304:	a1 44 cc 01 00       	mov    0x1cc44,%eax
   15309:	83 ec 08             	sub    $0x8,%esp
   1530c:	ff 75 08             	pushl  0x8(%ebp)
   1530f:	50                   	push   %eax
   15310:	e8 f0 dc ff ff       	call   13005 <_q_insert>
   15315:	83 c4 10             	add    $0x10,%esp
   15318:	90                   	nop
   15319:	8d 65 f8             	lea    -0x8(%ebp),%esp
   1531c:	5b                   	pop    %ebx
   1531d:	5e                   	pop    %esi
   1531e:	5d                   	pop    %ebp
   1531f:	c3                   	ret    

00015320 <_prune>:
   15320:	55                   	push   %ebp
   15321:	89 e5                	mov    %esp,%ebp
   15323:	53                   	push   %ebx
   15324:	83 ec 04             	sub    $0x4,%esp
   15327:	e8 69 e0 ff ff       	call   13395 <_q_prune>
   1532c:	89 c3                	mov    %eax,%ebx
   1532e:	e8 e2 d4 ff ff       	call   12815 <_pcb_prune>
   15333:	01 d8                	add    %ebx,%eax
   15335:	83 c4 04             	add    $0x4,%esp
   15338:	5b                   	pop    %ebx
   15339:	5d                   	pop    %ebp
   1533a:	c3                   	ret    

0001533b <_init>:
   1533b:	55                   	push   %ebp
   1533c:	89 e5                	mov    %esp,%ebp
   1533e:	83 ec 18             	sub    $0x18,%esp
   15341:	e8 8a ca ff ff       	call   11dd0 <__init_interrupts>
   15346:	e8 63 c7 ff ff       	call   11aae <c_io_init>
   1534b:	6a 63                	push   $0x63
   1534d:	6a 63                	push   $0x63
   1534f:	6a 07                	push   $0x7
   15351:	6a 00                	push   $0x0
   15353:	e8 13 ba ff ff       	call   10d6b <c_setscroll>
   15358:	83 c4 10             	add    $0x10,%esp
   1535b:	83 ec 04             	sub    $0x4,%esp
   1535e:	68 04 85 01 00       	push   $0x18504
   15363:	6a 06                	push   $0x6
   15365:	6a 00                	push   $0x0
   15367:	e8 65 bc ff ff       	call   10fd1 <c_puts_at>
   1536c:	83 c4 10             	add    $0x10,%esp
   1536f:	83 ec 0c             	sub    $0xc,%esp
   15372:	68 58 85 01 00       	push   $0x18558
   15377:	e8 97 bc ff ff       	call   11013 <c_puts>
   1537c:	83 c4 10             	add    $0x10,%esp
   1537f:	83 ec 0c             	sub    $0xc,%esp
   15382:	68 78 85 01 00       	push   $0x18578
   15387:	e8 87 bc ff ff       	call   11013 <c_puts>
   1538c:	83 c4 10             	add    $0x10,%esp
   1538f:	83 ec 0c             	sub    $0xc,%esp
   15392:	68 98 85 01 00       	push   $0x18598
   15397:	e8 77 bc ff ff       	call   11013 <c_puts>
   1539c:	83 c4 10             	add    $0x10,%esp
   1539f:	e8 b1 d2 ff ff       	call   12655 <_km_init>
   153a4:	e8 39 df ff ff       	call   132e2 <_q_init>
   153a9:	e8 d5 cc ff ff       	call   12083 <_clk_init>
   153ae:	e8 e5 d3 ff ff       	call   12798 <_pcb_init>
   153b3:	e8 95 e2 ff ff       	call   1364d <_sched_init>
   153b8:	e8 4e e6 ff ff       	call   13a0b <_sio_init>
   153bd:	e8 60 01 00 00       	call   15522 <_pci_init>
   153c2:	e8 1c ec ff ff       	call   13fe3 <_stk_init>
   153c7:	e8 8d fb ff ff       	call   14f59 <_sys_init>
   153cc:	83 ec 0c             	sub    $0xc,%esp
   153cf:	68 a4 85 01 00       	push   $0x185a4
   153d4:	e8 3a bc ff ff       	call   11013 <c_puts>
   153d9:	83 c4 10             	add    $0x10,%esp
   153dc:	83 ec 0c             	sub    $0xc,%esp
   153df:	68 78 85 01 00       	push   $0x18578
   153e4:	e8 2a bc ff ff       	call   11013 <c_puts>
   153e9:	83 c4 10             	add    $0x10,%esp
   153ec:	83 ec 0c             	sub    $0xc,%esp
   153ef:	68 c8 00 00 00       	push   $0xc8
   153f4:	e8 0f ca ff ff       	call   11e08 <__delay>
   153f9:	83 c4 10             	add    $0x10,%esp
   153fc:	e8 71 d4 ff ff       	call   12872 <_pcb_alloc>
   15401:	89 45 f4             	mov    %eax,-0xc(%ebp)
   15404:	83 7d f4 00          	cmpl   $0x0,-0xc(%ebp)
   15408:	75 15                	jne    1541f <_init+0xe4>
   1540a:	83 ec 08             	sub    $0x8,%esp
   1540d:	68 c5 85 01 00       	push   $0x185c5
   15412:	68 dd 85 01 00       	push   $0x185dd
   15417:	e8 23 ce ff ff       	call   1223f <_kpanic>
   1541c:	83 c4 10             	add    $0x10,%esp
   1541f:	e8 e2 eb ff ff       	call   14006 <_stk_alloc>
   15424:	89 c2                	mov    %eax,%edx
   15426:	8b 45 f4             	mov    -0xc(%ebp),%eax
   15429:	89 50 04             	mov    %edx,0x4(%eax)
   1542c:	8b 45 f4             	mov    -0xc(%ebp),%eax
   1542f:	8b 40 04             	mov    0x4(%eax),%eax
   15432:	85 c0                	test   %eax,%eax
   15434:	75 15                	jne    1544b <_init+0x110>
   15436:	83 ec 08             	sub    $0x8,%esp
   15439:	68 e3 85 01 00       	push   $0x185e3
   1543e:	68 dd 85 01 00       	push   $0x185dd
   15443:	e8 f7 cd ff ff       	call   1223f <_kpanic>
   15448:	83 c4 10             	add    $0x10,%esp
   1544b:	c7 45 ec fd 85 01 00 	movl   $0x185fd,-0x14(%ebp)
   15452:	c7 45 f0 00 00 00 00 	movl   $0x0,-0x10(%ebp)
   15459:	b9 12 77 01 00       	mov    $0x17712,%ecx
   1545e:	8b 45 f4             	mov    -0xc(%ebp),%eax
   15461:	8b 40 04             	mov    0x4(%eax),%eax
   15464:	83 ec 0c             	sub    $0xc,%esp
   15467:	6a 05                	push   $0x5
   15469:	6a 01                	push   $0x1
   1546b:	8d 55 ec             	lea    -0x14(%ebp),%edx
   1546e:	52                   	push   %edx
   1546f:	51                   	push   %ecx
   15470:	50                   	push   %eax
   15471:	e8 1f ee ff ff       	call   14295 <_stk_setup>
   15476:	83 c4 20             	add    $0x20,%esp
   15479:	89 c2                	mov    %eax,%edx
   1547b:	8b 45 f4             	mov    -0xc(%ebp),%eax
   1547e:	89 10                	mov    %edx,(%eax)
   15480:	8b 45 f4             	mov    -0xc(%ebp),%eax
   15483:	8b 00                	mov    (%eax),%eax
   15485:	85 c0                	test   %eax,%eax
   15487:	75 15                	jne    1549e <_init+0x163>
   15489:	83 ec 08             	sub    $0x8,%esp
   1548c:	68 02 86 01 00       	push   $0x18602
   15491:	68 dd 85 01 00       	push   $0x185dd
   15496:	e8 a4 cd ff ff       	call   1223f <_kpanic>
   1549b:	83 c4 10             	add    $0x10,%esp
   1549e:	8b 45 f4             	mov    -0xc(%ebp),%eax
   154a1:	66 c7 40 12 01 00    	movw   $0x1,0x12(%eax)
   154a7:	8b 45 f4             	mov    -0xc(%ebp),%eax
   154aa:	0f b7 50 12          	movzwl 0x12(%eax),%edx
   154ae:	8b 45 f4             	mov    -0xc(%ebp),%eax
   154b1:	66 89 50 10          	mov    %dx,0x10(%eax)
   154b5:	8b 45 f4             	mov    -0xc(%ebp),%eax
   154b8:	c6 40 17 00          	movb   $0x0,0x17(%eax)
   154bc:	8b 45 f4             	mov    -0xc(%ebp),%eax
   154bf:	66 c7 40 14 00 00    	movw   $0x0,0x14(%eax)
   154c5:	8b 45 f4             	mov    -0xc(%ebp),%eax
   154c8:	a3 c4 cb 01 00       	mov    %eax,0x1cbc4
   154cd:	83 ec 0c             	sub    $0xc,%esp
   154d0:	ff 75 f4             	pushl  -0xc(%ebp)
   154d3:	e8 f0 e1 ff ff       	call   136c8 <_schedule>
   154d8:	83 c4 10             	add    $0x10,%esp
   154db:	8b 45 f4             	mov    -0xc(%ebp),%eax
   154de:	a3 e0 cb 01 00       	mov    %eax,0x1cbe0
   154e3:	c7 05 c0 cb 01 00 01 	movl   $0x1,0x1cbc0
   154ea:	00 00 00 
   154ed:	83 ec 0c             	sub    $0xc,%esp
   154f0:	6a 02                	push   $0x2
   154f2:	e8 b3 e6 ff ff       	call   13baa <_sio_enable>
   154f7:	83 c4 10             	add    $0x10,%esp
   154fa:	e8 47 e2 ff ff       	call   13746 <_dispatch>
   154ff:	83 ec 0c             	sub    $0xc,%esp
   15502:	68 1c 86 01 00       	push   $0x1861c
   15507:	e8 07 bb ff ff       	call   11013 <c_puts>
   1550c:	83 c4 10             	add    $0x10,%esp
   1550f:	83 ec 0c             	sub    $0xc,%esp
   15512:	68 40 86 01 00       	push   $0x18640
   15517:	e8 f7 ba ff ff       	call   11013 <c_puts>
   1551c:	83 c4 10             	add    $0x10,%esp
   1551f:	90                   	nop
   15520:	c9                   	leave  
   15521:	c3                   	ret    

00015522 <_pci_init>:
   15522:	55                   	push   %ebp
   15523:	89 e5                	mov    %esp,%ebp
   15525:	83 ec 28             	sub    $0x28,%esp
   15528:	83 ec 0c             	sub    $0xc,%esp
   1552b:	68 61 86 01 00       	push   $0x18661
   15530:	e8 de ba ff ff       	call   11013 <c_puts>
   15535:	83 c4 10             	add    $0x10,%esp
   15538:	c7 45 f4 00 00 00 00 	movl   $0x0,-0xc(%ebp)
   1553f:	eb 63                	jmp    155a4 <_pci_init+0x82>
   15541:	c7 45 f0 00 00 00 00 	movl   $0x0,-0x10(%ebp)
   15548:	eb 50                	jmp    1559a <_pci_init+0x78>
   1554a:	8b 45 f4             	mov    -0xc(%ebp),%eax
   1554d:	c1 e0 10             	shl    $0x10,%eax
   15550:	89 c2                	mov    %eax,%edx
   15552:	8b 45 f0             	mov    -0x10(%ebp),%eax
   15555:	c1 e0 0b             	shl    $0xb,%eax
   15558:	09 d0                	or     %edx,%eax
   1555a:	89 45 ec             	mov    %eax,-0x14(%ebp)
   1555d:	8b 45 ec             	mov    -0x14(%ebp),%eax
   15560:	0d 00 00 00 80       	or     $0x80000000,%eax
   15565:	89 45 e8             	mov    %eax,-0x18(%ebp)
   15568:	8b 45 e8             	mov    -0x18(%ebp),%eax
   1556b:	ba f8 0c 00 00       	mov    $0xcf8,%edx
   15570:	ef                   	out    %eax,(%dx)
   15571:	b8 fc 0c 00 00       	mov    $0xcfc,%eax
   15576:	89 c2                	mov    %eax,%edx
   15578:	66 ed                	in     (%dx),%ax
   1557a:	66 89 45 e6          	mov    %ax,-0x1a(%ebp)
   1557e:	0f b7 45 e6          	movzwl -0x1a(%ebp),%eax
   15582:	50                   	push   %eax
   15583:	ff 75 f0             	pushl  -0x10(%ebp)
   15586:	ff 75 f4             	pushl  -0xc(%ebp)
   15589:	68 66 86 01 00       	push   $0x18666
   1558e:	e8 c2 c2 ff ff       	call   11855 <c_printf>
   15593:	83 c4 10             	add    $0x10,%esp
   15596:	83 45 f0 01          	addl   $0x1,-0x10(%ebp)
   1559a:	83 7d f0 09          	cmpl   $0x9,-0x10(%ebp)
   1559e:	7e aa                	jle    1554a <_pci_init+0x28>
   155a0:	83 45 f4 01          	addl   $0x1,-0xc(%ebp)
   155a4:	83 7d f4 00          	cmpl   $0x0,-0xc(%ebp)
   155a8:	7e 97                	jle    15541 <_pci_init+0x1f>
   155aa:	90                   	nop
   155ab:	c9                   	leave  
   155ac:	c3                   	ret    

000155ad <_get_ebp>:
   155ad:	89 e8                	mov    %ebp,%eax
   155af:	c3                   	ret    

000155b0 <cvt_dec0>:
   155b0:	55                   	push   %ebp
   155b1:	89 e5                	mov    %esp,%ebp
   155b3:	53                   	push   %ebx
   155b4:	83 ec 14             	sub    $0x14,%esp
   155b7:	8b 4d 0c             	mov    0xc(%ebp),%ecx
   155ba:	ba 67 66 66 66       	mov    $0x66666667,%edx
   155bf:	89 c8                	mov    %ecx,%eax
   155c1:	f7 ea                	imul   %edx
   155c3:	c1 fa 02             	sar    $0x2,%edx
   155c6:	89 c8                	mov    %ecx,%eax
   155c8:	c1 f8 1f             	sar    $0x1f,%eax
   155cb:	29 c2                	sub    %eax,%edx
   155cd:	89 d0                	mov    %edx,%eax
   155cf:	89 45 f4             	mov    %eax,-0xc(%ebp)
   155d2:	83 7d f4 00          	cmpl   $0x0,-0xc(%ebp)
   155d6:	79 0e                	jns    155e6 <cvt_dec0+0x36>
   155d8:	c7 45 f4 cc cc cc 0c 	movl   $0xccccccc,-0xc(%ebp)
   155df:	c7 45 0c 08 00 00 00 	movl   $0x8,0xc(%ebp)
   155e6:	83 7d f4 00          	cmpl   $0x0,-0xc(%ebp)
   155ea:	74 14                	je     15600 <cvt_dec0+0x50>
   155ec:	83 ec 08             	sub    $0x8,%esp
   155ef:	ff 75 f4             	pushl  -0xc(%ebp)
   155f2:	ff 75 08             	pushl  0x8(%ebp)
   155f5:	e8 b6 ff ff ff       	call   155b0 <cvt_dec0>
   155fa:	83 c4 10             	add    $0x10,%esp
   155fd:	89 45 08             	mov    %eax,0x8(%ebp)
   15600:	8b 5d 08             	mov    0x8(%ebp),%ebx
   15603:	8d 43 01             	lea    0x1(%ebx),%eax
   15606:	89 45 08             	mov    %eax,0x8(%ebp)
   15609:	8b 4d 0c             	mov    0xc(%ebp),%ecx
   1560c:	ba 67 66 66 66       	mov    $0x66666667,%edx
   15611:	89 c8                	mov    %ecx,%eax
   15613:	f7 ea                	imul   %edx
   15615:	c1 fa 02             	sar    $0x2,%edx
   15618:	89 c8                	mov    %ecx,%eax
   1561a:	c1 f8 1f             	sar    $0x1f,%eax
   1561d:	29 c2                	sub    %eax,%edx
   1561f:	89 d0                	mov    %edx,%eax
   15621:	c1 e0 02             	shl    $0x2,%eax
   15624:	01 d0                	add    %edx,%eax
   15626:	01 c0                	add    %eax,%eax
   15628:	29 c1                	sub    %eax,%ecx
   1562a:	89 ca                	mov    %ecx,%edx
   1562c:	89 d0                	mov    %edx,%eax
   1562e:	83 c0 30             	add    $0x30,%eax
   15631:	88 03                	mov    %al,(%ebx)
   15633:	8b 45 08             	mov    0x8(%ebp),%eax
   15636:	8b 5d fc             	mov    -0x4(%ebp),%ebx
   15639:	c9                   	leave  
   1563a:	c3                   	ret    

0001563b <cvt_dec>:
   1563b:	55                   	push   %ebp
   1563c:	89 e5                	mov    %esp,%ebp
   1563e:	83 ec 18             	sub    $0x18,%esp
   15641:	8b 45 08             	mov    0x8(%ebp),%eax
   15644:	89 45 f4             	mov    %eax,-0xc(%ebp)
   15647:	83 7d 0c 00          	cmpl   $0x0,0xc(%ebp)
   1564b:	79 0f                	jns    1565c <cvt_dec+0x21>
   1564d:	8b 45 f4             	mov    -0xc(%ebp),%eax
   15650:	8d 50 01             	lea    0x1(%eax),%edx
   15653:	89 55 f4             	mov    %edx,-0xc(%ebp)
   15656:	c6 00 2d             	movb   $0x2d,(%eax)
   15659:	f7 5d 0c             	negl   0xc(%ebp)
   1565c:	83 ec 08             	sub    $0x8,%esp
   1565f:	ff 75 0c             	pushl  0xc(%ebp)
   15662:	ff 75 f4             	pushl  -0xc(%ebp)
   15665:	e8 46 ff ff ff       	call   155b0 <cvt_dec0>
   1566a:	83 c4 10             	add    $0x10,%esp
   1566d:	89 45 f4             	mov    %eax,-0xc(%ebp)
   15670:	8b 45 f4             	mov    -0xc(%ebp),%eax
   15673:	c6 00 00             	movb   $0x0,(%eax)
   15676:	8b 55 f4             	mov    -0xc(%ebp),%edx
   15679:	8b 45 08             	mov    0x8(%ebp),%eax
   1567c:	29 c2                	sub    %eax,%edx
   1567e:	89 d0                	mov    %edx,%eax
   15680:	c9                   	leave  
   15681:	c3                   	ret    

00015682 <cvt_hex>:
   15682:	55                   	push   %ebp
   15683:	89 e5                	mov    %esp,%ebp
   15685:	83 ec 20             	sub    $0x20,%esp
   15688:	c7 45 e3 30 31 32 33 	movl   $0x33323130,-0x1d(%ebp)
   1568f:	c7 45 e7 34 35 36 37 	movl   $0x37363534,-0x19(%ebp)
   15696:	c7 45 eb 38 39 41 42 	movl   $0x42413938,-0x15(%ebp)
   1569d:	c7 45 ef 43 44 45 46 	movl   $0x46454443,-0x11(%ebp)
   156a4:	c6 45 f3 00          	movb   $0x0,-0xd(%ebp)
   156a8:	c7 45 fc 00 00 00 00 	movl   $0x0,-0x4(%ebp)
   156af:	c7 45 f8 00 00 00 00 	movl   $0x0,-0x8(%ebp)
   156b6:	eb 48                	jmp    15700 <cvt_hex+0x7e>
   156b8:	8b 45 0c             	mov    0xc(%ebp),%eax
   156bb:	25 00 00 00 f0       	and    $0xf0000000,%eax
   156c0:	89 45 f4             	mov    %eax,-0xc(%ebp)
   156c3:	83 7d fc 00          	cmpl   $0x0,-0x4(%ebp)
   156c7:	75 0c                	jne    156d5 <cvt_hex+0x53>
   156c9:	83 7d f4 00          	cmpl   $0x0,-0xc(%ebp)
   156cd:	75 06                	jne    156d5 <cvt_hex+0x53>
   156cf:	83 7d f8 07          	cmpl   $0x7,-0x8(%ebp)
   156d3:	75 23                	jne    156f8 <cvt_hex+0x76>
   156d5:	83 45 fc 01          	addl   $0x1,-0x4(%ebp)
   156d9:	8b 45 f4             	mov    -0xc(%ebp),%eax
   156dc:	c1 e8 1c             	shr    $0x1c,%eax
   156df:	89 45 f4             	mov    %eax,-0xc(%ebp)
   156e2:	8b 45 08             	mov    0x8(%ebp),%eax
   156e5:	8d 50 01             	lea    0x1(%eax),%edx
   156e8:	89 55 08             	mov    %edx,0x8(%ebp)
   156eb:	8d 4d e3             	lea    -0x1d(%ebp),%ecx
   156ee:	8b 55 f4             	mov    -0xc(%ebp),%edx
   156f1:	01 ca                	add    %ecx,%edx
   156f3:	0f b6 12             	movzbl (%edx),%edx
   156f6:	88 10                	mov    %dl,(%eax)
   156f8:	c1 65 0c 04          	shll   $0x4,0xc(%ebp)
   156fc:	83 45 f8 01          	addl   $0x1,-0x8(%ebp)
   15700:	83 7d f8 07          	cmpl   $0x7,-0x8(%ebp)
   15704:	7e b2                	jle    156b8 <cvt_hex+0x36>
   15706:	8b 45 08             	mov    0x8(%ebp),%eax
   15709:	c6 00 00             	movb   $0x0,(%eax)
   1570c:	8b 45 fc             	mov    -0x4(%ebp),%eax
   1570f:	c9                   	leave  
   15710:	c3                   	ret    

00015711 <report>:
   15711:	55                   	push   %ebp
   15712:	89 e5                	mov    %esp,%ebp
   15714:	83 ec 38             	sub    $0x38,%esp
   15717:	8b 55 08             	mov    0x8(%ebp),%edx
   1571a:	8b 45 0c             	mov    0xc(%ebp),%eax
   1571d:	88 55 d4             	mov    %dl,-0x2c(%ebp)
   15720:	66 89 45 d0          	mov    %ax,-0x30(%ebp)
   15724:	c6 45 e0 20          	movb   $0x20,-0x20(%ebp)
   15728:	0f b6 45 d4          	movzbl -0x2c(%ebp),%eax
   1572c:	88 45 e1             	mov    %al,-0x1f(%ebp)
   1572f:	c6 45 e2 28          	movb   $0x28,-0x1e(%ebp)
   15733:	0f b7 55 d0          	movzwl -0x30(%ebp),%edx
   15737:	8d 45 e0             	lea    -0x20(%ebp),%eax
   1573a:	83 c0 03             	add    $0x3,%eax
   1573d:	83 ec 08             	sub    $0x8,%esp
   15740:	52                   	push   %edx
   15741:	50                   	push   %eax
   15742:	e8 f4 fe ff ff       	call   1563b <cvt_dec>
   15747:	83 c4 10             	add    $0x10,%esp
   1574a:	89 45 f4             	mov    %eax,-0xc(%ebp)
   1574d:	8b 45 f4             	mov    -0xc(%ebp),%eax
   15750:	83 c0 03             	add    $0x3,%eax
   15753:	c6 44 05 e0 29       	movb   $0x29,-0x20(%ebp,%eax,1)
   15758:	8b 45 f4             	mov    -0xc(%ebp),%eax
   1575b:	83 c0 04             	add    $0x4,%eax
   1575e:	c6 44 05 e0 00       	movb   $0x0,-0x20(%ebp,%eax,1)
   15763:	83 ec 0c             	sub    $0xc,%esp
   15766:	8d 45 e0             	lea    -0x20(%ebp),%eax
   15769:	50                   	push   %eax
   1576a:	e8 64 04 00 00       	call   15bd3 <cwrites>
   1576f:	83 c4 10             	add    $0x10,%esp
   15772:	90                   	nop
   15773:	c9                   	leave  
   15774:	c3                   	ret    

00015775 <argdump>:
   15775:	55                   	push   %ebp
   15776:	89 e5                	mov    %esp,%ebp
   15778:	81 ec 38 01 00 00    	sub    $0x138,%esp
   1577e:	83 7d 08 00          	cmpl   $0x0,0x8(%ebp)
   15782:	74 17                	je     1579b <argdump+0x26>
   15784:	83 ec 08             	sub    $0x8,%esp
   15787:	ff 75 08             	pushl  0x8(%ebp)
   1578a:	8d 85 ec fe ff ff    	lea    -0x114(%ebp),%eax
   15790:	50                   	push   %eax
   15791:	e8 1a 03 00 00       	call   15ab0 <strcpy>
   15796:	83 c4 10             	add    $0x10,%esp
   15799:	eb 07                	jmp    157a2 <argdump+0x2d>
   1579b:	c6 85 ec fe ff ff 00 	movb   $0x0,-0x114(%ebp)
   157a2:	c7 45 f4 00 00 00 00 	movl   $0x0,-0xc(%ebp)
   157a9:	eb 04                	jmp    157af <argdump+0x3a>
   157ab:	83 45 f4 01          	addl   $0x1,-0xc(%ebp)
   157af:	8b 45 f4             	mov    -0xc(%ebp),%eax
   157b2:	8d 14 85 00 00 00 00 	lea    0x0(,%eax,4),%edx
   157b9:	8b 45 0c             	mov    0xc(%ebp),%eax
   157bc:	01 d0                	add    %edx,%eax
   157be:	8b 00                	mov    (%eax),%eax
   157c0:	85 c0                	test   %eax,%eax
   157c2:	75 e7                	jne    157ab <argdump+0x36>
   157c4:	83 ec 08             	sub    $0x8,%esp
   157c7:	ff 75 f4             	pushl  -0xc(%ebp)
   157ca:	8d 85 cc fe ff ff    	lea    -0x134(%ebp),%eax
   157d0:	50                   	push   %eax
   157d1:	e8 65 fe ff ff       	call   1563b <cvt_dec>
   157d6:	83 c4 10             	add    $0x10,%esp
   157d9:	83 ec 08             	sub    $0x8,%esp
   157dc:	8d 85 cc fe ff ff    	lea    -0x134(%ebp),%eax
   157e2:	50                   	push   %eax
   157e3:	8d 85 ec fe ff ff    	lea    -0x114(%ebp),%eax
   157e9:	50                   	push   %eax
   157ea:	e8 eb 02 00 00       	call   15ada <strcat>
   157ef:	83 c4 10             	add    $0x10,%esp
   157f2:	83 ec 08             	sub    $0x8,%esp
   157f5:	68 81 86 01 00       	push   $0x18681
   157fa:	8d 85 ec fe ff ff    	lea    -0x114(%ebp),%eax
   15800:	50                   	push   %eax
   15801:	e8 d4 02 00 00       	call   15ada <strcat>
   15806:	83 c4 10             	add    $0x10,%esp
   15809:	8b 45 0c             	mov    0xc(%ebp),%eax
   1580c:	83 ec 08             	sub    $0x8,%esp
   1580f:	50                   	push   %eax
   15810:	8d 85 cc fe ff ff    	lea    -0x134(%ebp),%eax
   15816:	50                   	push   %eax
   15817:	e8 66 fe ff ff       	call   15682 <cvt_hex>
   1581c:	83 c4 10             	add    $0x10,%esp
   1581f:	83 ec 08             	sub    $0x8,%esp
   15822:	8d 85 cc fe ff ff    	lea    -0x134(%ebp),%eax
   15828:	50                   	push   %eax
   15829:	8d 85 ec fe ff ff    	lea    -0x114(%ebp),%eax
   1582f:	50                   	push   %eax
   15830:	e8 a5 02 00 00       	call   15ada <strcat>
   15835:	83 c4 10             	add    $0x10,%esp
   15838:	83 7d f4 00          	cmpl   $0x0,-0xc(%ebp)
   1583c:	0f 8e 20 02 00 00    	jle    15a62 <argdump+0x2ed>
   15842:	83 7d 10 00          	cmpl   $0x0,0x10(%ebp)
   15846:	0f 84 35 01 00 00    	je     15981 <argdump+0x20c>
   1584c:	83 ec 08             	sub    $0x8,%esp
   1584f:	68 8a 86 01 00       	push   $0x1868a
   15854:	8d 85 ec fe ff ff    	lea    -0x114(%ebp),%eax
   1585a:	50                   	push   %eax
   1585b:	e8 7a 02 00 00       	call   15ada <strcat>
   15860:	83 c4 10             	add    $0x10,%esp
   15863:	83 ec 0c             	sub    $0xc,%esp
   15866:	8d 85 ec fe ff ff    	lea    -0x114(%ebp),%eax
   1586c:	50                   	push   %eax
   1586d:	e8 61 03 00 00       	call   15bd3 <cwrites>
   15872:	83 c4 10             	add    $0x10,%esp
   15875:	c7 45 f0 00 00 00 00 	movl   $0x0,-0x10(%ebp)
   1587c:	e9 e2 00 00 00       	jmp    15963 <argdump+0x1ee>
   15881:	83 ec 08             	sub    $0x8,%esp
   15884:	68 8c 86 01 00       	push   $0x1868c
   15889:	8d 85 ec fe ff ff    	lea    -0x114(%ebp),%eax
   1588f:	50                   	push   %eax
   15890:	e8 1b 02 00 00       	call   15ab0 <strcpy>
   15895:	83 c4 10             	add    $0x10,%esp
   15898:	8b 45 f0             	mov    -0x10(%ebp),%eax
   1589b:	8d 14 85 00 00 00 00 	lea    0x0(,%eax,4),%edx
   158a2:	8b 45 0c             	mov    0xc(%ebp),%eax
   158a5:	01 d0                	add    %edx,%eax
   158a7:	8b 00                	mov    (%eax),%eax
   158a9:	83 ec 08             	sub    $0x8,%esp
   158ac:	50                   	push   %eax
   158ad:	8d 85 cc fe ff ff    	lea    -0x134(%ebp),%eax
   158b3:	50                   	push   %eax
   158b4:	e8 c9 fd ff ff       	call   15682 <cvt_hex>
   158b9:	83 c4 10             	add    $0x10,%esp
   158bc:	89 45 ec             	mov    %eax,-0x14(%ebp)
   158bf:	eb 1b                	jmp    158dc <argdump+0x167>
   158c1:	83 ec 08             	sub    $0x8,%esp
   158c4:	68 8f 86 01 00       	push   $0x1868f
   158c9:	8d 85 ec fe ff ff    	lea    -0x114(%ebp),%eax
   158cf:	50                   	push   %eax
   158d0:	e8 05 02 00 00       	call   15ada <strcat>
   158d5:	83 c4 10             	add    $0x10,%esp
   158d8:	83 45 ec 01          	addl   $0x1,-0x14(%ebp)
   158dc:	83 7d ec 07          	cmpl   $0x7,-0x14(%ebp)
   158e0:	7e df                	jle    158c1 <argdump+0x14c>
   158e2:	83 ec 08             	sub    $0x8,%esp
   158e5:	8d 85 cc fe ff ff    	lea    -0x134(%ebp),%eax
   158eb:	50                   	push   %eax
   158ec:	8d 85 ec fe ff ff    	lea    -0x114(%ebp),%eax
   158f2:	50                   	push   %eax
   158f3:	e8 e2 01 00 00       	call   15ada <strcat>
   158f8:	83 c4 10             	add    $0x10,%esp
   158fb:	83 ec 08             	sub    $0x8,%esp
   158fe:	68 91 86 01 00       	push   $0x18691
   15903:	8d 85 ec fe ff ff    	lea    -0x114(%ebp),%eax
   15909:	50                   	push   %eax
   1590a:	e8 cb 01 00 00       	call   15ada <strcat>
   1590f:	83 c4 10             	add    $0x10,%esp
   15912:	8b 45 f0             	mov    -0x10(%ebp),%eax
   15915:	8d 14 85 00 00 00 00 	lea    0x0(,%eax,4),%edx
   1591c:	8b 45 0c             	mov    0xc(%ebp),%eax
   1591f:	01 d0                	add    %edx,%eax
   15921:	8b 00                	mov    (%eax),%eax
   15923:	83 ec 08             	sub    $0x8,%esp
   15926:	50                   	push   %eax
   15927:	8d 85 ec fe ff ff    	lea    -0x114(%ebp),%eax
   1592d:	50                   	push   %eax
   1592e:	e8 a7 01 00 00       	call   15ada <strcat>
   15933:	83 c4 10             	add    $0x10,%esp
   15936:	83 ec 08             	sub    $0x8,%esp
   15939:	68 94 86 01 00       	push   $0x18694
   1593e:	8d 85 ec fe ff ff    	lea    -0x114(%ebp),%eax
   15944:	50                   	push   %eax
   15945:	e8 90 01 00 00       	call   15ada <strcat>
   1594a:	83 c4 10             	add    $0x10,%esp
   1594d:	83 ec 0c             	sub    $0xc,%esp
   15950:	8d 85 ec fe ff ff    	lea    -0x114(%ebp),%eax
   15956:	50                   	push   %eax
   15957:	e8 77 02 00 00       	call   15bd3 <cwrites>
   1595c:	83 c4 10             	add    $0x10,%esp
   1595f:	83 45 f0 01          	addl   $0x1,-0x10(%ebp)
   15963:	8b 45 f0             	mov    -0x10(%ebp),%eax
   15966:	3b 45 f4             	cmp    -0xc(%ebp),%eax
   15969:	0f 8c 12 ff ff ff    	jl     15881 <argdump+0x10c>
   1596f:	83 ec 0c             	sub    $0xc,%esp
   15972:	6a 0a                	push   $0xa
   15974:	e8 39 02 00 00       	call   15bb2 <cwritech>
   15979:	83 c4 10             	add    $0x10,%esp
   1597c:	e9 0a 01 00 00       	jmp    15a8b <argdump+0x316>
   15981:	83 ec 08             	sub    $0x8,%esp
   15984:	68 96 86 01 00       	push   $0x18696
   15989:	8d 85 ec fe ff ff    	lea    -0x114(%ebp),%eax
   1598f:	50                   	push   %eax
   15990:	e8 45 01 00 00       	call   15ada <strcat>
   15995:	83 c4 10             	add    $0x10,%esp
   15998:	8b 45 0c             	mov    0xc(%ebp),%eax
   1599b:	8b 00                	mov    (%eax),%eax
   1599d:	83 ec 08             	sub    $0x8,%esp
   159a0:	50                   	push   %eax
   159a1:	8d 85 cc fe ff ff    	lea    -0x134(%ebp),%eax
   159a7:	50                   	push   %eax
   159a8:	e8 d5 fc ff ff       	call   15682 <cvt_hex>
   159ad:	83 c4 10             	add    $0x10,%esp
   159b0:	83 ec 08             	sub    $0x8,%esp
   159b3:	8d 85 cc fe ff ff    	lea    -0x134(%ebp),%eax
   159b9:	50                   	push   %eax
   159ba:	8d 85 ec fe ff ff    	lea    -0x114(%ebp),%eax
   159c0:	50                   	push   %eax
   159c1:	e8 14 01 00 00       	call   15ada <strcat>
   159c6:	83 c4 10             	add    $0x10,%esp
   159c9:	83 7d f4 01          	cmpl   $0x1,-0xc(%ebp)
   159cd:	7e 68                	jle    15a37 <argdump+0x2c2>
   159cf:	83 ec 08             	sub    $0x8,%esp
   159d2:	68 99 86 01 00       	push   $0x18699
   159d7:	8d 85 ec fe ff ff    	lea    -0x114(%ebp),%eax
   159dd:	50                   	push   %eax
   159de:	e8 f7 00 00 00       	call   15ada <strcat>
   159e3:	83 c4 10             	add    $0x10,%esp
   159e6:	8b 45 0c             	mov    0xc(%ebp),%eax
   159e9:	83 c0 04             	add    $0x4,%eax
   159ec:	8b 00                	mov    (%eax),%eax
   159ee:	83 ec 08             	sub    $0x8,%esp
   159f1:	50                   	push   %eax
   159f2:	8d 85 cc fe ff ff    	lea    -0x134(%ebp),%eax
   159f8:	50                   	push   %eax
   159f9:	e8 84 fc ff ff       	call   15682 <cvt_hex>
   159fe:	83 c4 10             	add    $0x10,%esp
   15a01:	83 ec 08             	sub    $0x8,%esp
   15a04:	8d 85 cc fe ff ff    	lea    -0x134(%ebp),%eax
   15a0a:	50                   	push   %eax
   15a0b:	8d 85 ec fe ff ff    	lea    -0x114(%ebp),%eax
   15a11:	50                   	push   %eax
   15a12:	e8 c3 00 00 00       	call   15ada <strcat>
   15a17:	83 c4 10             	add    $0x10,%esp
   15a1a:	83 7d f4 02          	cmpl   $0x2,-0xc(%ebp)
   15a1e:	7e 17                	jle    15a37 <argdump+0x2c2>
   15a20:	83 ec 08             	sub    $0x8,%esp
   15a23:	68 9c 86 01 00       	push   $0x1869c
   15a28:	8d 85 ec fe ff ff    	lea    -0x114(%ebp),%eax
   15a2e:	50                   	push   %eax
   15a2f:	e8 a6 00 00 00       	call   15ada <strcat>
   15a34:	83 c4 10             	add    $0x10,%esp
   15a37:	83 ec 08             	sub    $0x8,%esp
   15a3a:	68 8a 86 01 00       	push   $0x1868a
   15a3f:	8d 85 ec fe ff ff    	lea    -0x114(%ebp),%eax
   15a45:	50                   	push   %eax
   15a46:	e8 8f 00 00 00       	call   15ada <strcat>
   15a4b:	83 c4 10             	add    $0x10,%esp
   15a4e:	83 ec 0c             	sub    $0xc,%esp
   15a51:	8d 85 ec fe ff ff    	lea    -0x114(%ebp),%eax
   15a57:	50                   	push   %eax
   15a58:	e8 76 01 00 00       	call   15bd3 <cwrites>
   15a5d:	83 c4 10             	add    $0x10,%esp
   15a60:	eb 29                	jmp    15a8b <argdump+0x316>
   15a62:	83 ec 08             	sub    $0x8,%esp
   15a65:	68 a2 86 01 00       	push   $0x186a2
   15a6a:	8d 85 ec fe ff ff    	lea    -0x114(%ebp),%eax
   15a70:	50                   	push   %eax
   15a71:	e8 64 00 00 00       	call   15ada <strcat>
   15a76:	83 c4 10             	add    $0x10,%esp
   15a79:	83 ec 0c             	sub    $0xc,%esp
   15a7c:	8d 85 ec fe ff ff    	lea    -0x114(%ebp),%eax
   15a82:	50                   	push   %eax
   15a83:	e8 4b 01 00 00       	call   15bd3 <cwrites>
   15a88:	83 c4 10             	add    $0x10,%esp
   15a8b:	90                   	nop
   15a8c:	c9                   	leave  
   15a8d:	c3                   	ret    

00015a8e <strlen>:
   15a8e:	55                   	push   %ebp
   15a8f:	89 e5                	mov    %esp,%ebp
   15a91:	53                   	push   %ebx
   15a92:	8b 55 08             	mov    0x8(%ebp),%edx
   15a95:	bb 00 00 00 00       	mov    $0x0,%ebx
   15a9a:	eb 03                	jmp    15a9f <strlen+0x11>
   15a9c:	83 c3 01             	add    $0x1,%ebx
   15a9f:	89 d0                	mov    %edx,%eax
   15aa1:	8d 50 01             	lea    0x1(%eax),%edx
   15aa4:	0f b6 00             	movzbl (%eax),%eax
   15aa7:	84 c0                	test   %al,%al
   15aa9:	75 f1                	jne    15a9c <strlen+0xe>
   15aab:	89 d8                	mov    %ebx,%eax
   15aad:	5b                   	pop    %ebx
   15aae:	5d                   	pop    %ebp
   15aaf:	c3                   	ret    

00015ab0 <strcpy>:
   15ab0:	55                   	push   %ebp
   15ab1:	89 e5                	mov    %esp,%ebp
   15ab3:	56                   	push   %esi
   15ab4:	53                   	push   %ebx
   15ab5:	8b 4d 08             	mov    0x8(%ebp),%ecx
   15ab8:	8b 75 0c             	mov    0xc(%ebp),%esi
   15abb:	89 cb                	mov    %ecx,%ebx
   15abd:	90                   	nop
   15abe:	89 c8                	mov    %ecx,%eax
   15ac0:	8d 48 01             	lea    0x1(%eax),%ecx
   15ac3:	89 f2                	mov    %esi,%edx
   15ac5:	8d 72 01             	lea    0x1(%edx),%esi
   15ac8:	0f b6 12             	movzbl (%edx),%edx
   15acb:	88 10                	mov    %dl,(%eax)
   15acd:	0f b6 00             	movzbl (%eax),%eax
   15ad0:	84 c0                	test   %al,%al
   15ad2:	75 ea                	jne    15abe <strcpy+0xe>
   15ad4:	89 d8                	mov    %ebx,%eax
   15ad6:	5b                   	pop    %ebx
   15ad7:	5e                   	pop    %esi
   15ad8:	5d                   	pop    %ebp
   15ad9:	c3                   	ret    

00015ada <strcat>:
   15ada:	55                   	push   %ebp
   15adb:	89 e5                	mov    %esp,%ebp
   15add:	56                   	push   %esi
   15ade:	53                   	push   %ebx
   15adf:	8b 45 08             	mov    0x8(%ebp),%eax
   15ae2:	8b 75 0c             	mov    0xc(%ebp),%esi
   15ae5:	89 c3                	mov    %eax,%ebx
   15ae7:	eb 03                	jmp    15aec <strcat+0x12>
   15ae9:	83 c0 01             	add    $0x1,%eax
   15aec:	0f b6 10             	movzbl (%eax),%edx
   15aef:	84 d2                	test   %dl,%dl
   15af1:	75 f6                	jne    15ae9 <strcat+0xf>
   15af3:	90                   	nop
   15af4:	89 c2                	mov    %eax,%edx
   15af6:	8d 42 01             	lea    0x1(%edx),%eax
   15af9:	89 f1                	mov    %esi,%ecx
   15afb:	8d 71 01             	lea    0x1(%ecx),%esi
   15afe:	0f b6 09             	movzbl (%ecx),%ecx
   15b01:	88 0a                	mov    %cl,(%edx)
   15b03:	0f b6 12             	movzbl (%edx),%edx
   15b06:	84 d2                	test   %dl,%dl
   15b08:	75 ea                	jne    15af4 <strcat+0x1a>
   15b0a:	89 d8                	mov    %ebx,%eax
   15b0c:	5b                   	pop    %ebx
   15b0d:	5e                   	pop    %esi
   15b0e:	5d                   	pop    %ebp
   15b0f:	c3                   	ret    

00015b10 <strcmp>:
   15b10:	55                   	push   %ebp
   15b11:	89 e5                	mov    %esp,%ebp
   15b13:	53                   	push   %ebx
   15b14:	8b 45 08             	mov    0x8(%ebp),%eax
   15b17:	8b 55 0c             	mov    0xc(%ebp),%edx
   15b1a:	eb 06                	jmp    15b22 <strcmp+0x12>
   15b1c:	83 c0 01             	add    $0x1,%eax
   15b1f:	83 c2 01             	add    $0x1,%edx
   15b22:	0f b6 08             	movzbl (%eax),%ecx
   15b25:	84 c9                	test   %cl,%cl
   15b27:	74 0a                	je     15b33 <strcmp+0x23>
   15b29:	0f b6 18             	movzbl (%eax),%ebx
   15b2c:	0f b6 0a             	movzbl (%edx),%ecx
   15b2f:	38 cb                	cmp    %cl,%bl
   15b31:	74 e9                	je     15b1c <strcmp+0xc>
   15b33:	0f b6 00             	movzbl (%eax),%eax
   15b36:	0f b6 c8             	movzbl %al,%ecx
   15b39:	0f b6 02             	movzbl (%edx),%eax
   15b3c:	0f b6 c0             	movzbl %al,%eax
   15b3f:	29 c1                	sub    %eax,%ecx
   15b41:	89 c8                	mov    %ecx,%eax
   15b43:	5b                   	pop    %ebx
   15b44:	5d                   	pop    %ebp
   15b45:	c3                   	ret    

00015b46 <creadch>:
   15b46:	55                   	push   %ebp
   15b47:	89 e5                	mov    %esp,%ebp
   15b49:	83 ec 18             	sub    $0x18,%esp
   15b4c:	83 ec 04             	sub    $0x4,%esp
   15b4f:	6a 01                	push   $0x1
   15b51:	8d 45 f7             	lea    -0x9(%ebp),%eax
   15b54:	50                   	push   %eax
   15b55:	6a 00                	push   $0x0
   15b57:	e8 32 1e 00 00       	call   1798e <read>
   15b5c:	83 c4 10             	add    $0x10,%esp
   15b5f:	c9                   	leave  
   15b60:	c3                   	ret    

00015b61 <cread>:
   15b61:	55                   	push   %ebp
   15b62:	89 e5                	mov    %esp,%ebp
   15b64:	83 ec 08             	sub    $0x8,%esp
   15b67:	83 ec 04             	sub    $0x4,%esp
   15b6a:	ff 75 0c             	pushl  0xc(%ebp)
   15b6d:	ff 75 08             	pushl  0x8(%ebp)
   15b70:	6a 00                	push   $0x0
   15b72:	e8 17 1e 00 00       	call   1798e <read>
   15b77:	83 c4 10             	add    $0x10,%esp
   15b7a:	c9                   	leave  
   15b7b:	c3                   	ret    

00015b7c <sreadch>:
   15b7c:	55                   	push   %ebp
   15b7d:	89 e5                	mov    %esp,%ebp
   15b7f:	83 ec 18             	sub    $0x18,%esp
   15b82:	83 ec 04             	sub    $0x4,%esp
   15b85:	6a 01                	push   $0x1
   15b87:	8d 45 f7             	lea    -0x9(%ebp),%eax
   15b8a:	50                   	push   %eax
   15b8b:	6a 01                	push   $0x1
   15b8d:	e8 fc 1d 00 00       	call   1798e <read>
   15b92:	83 c4 10             	add    $0x10,%esp
   15b95:	c9                   	leave  
   15b96:	c3                   	ret    

00015b97 <sread>:
   15b97:	55                   	push   %ebp
   15b98:	89 e5                	mov    %esp,%ebp
   15b9a:	83 ec 08             	sub    $0x8,%esp
   15b9d:	83 ec 04             	sub    $0x4,%esp
   15ba0:	ff 75 0c             	pushl  0xc(%ebp)
   15ba3:	ff 75 08             	pushl  0x8(%ebp)
   15ba6:	6a 01                	push   $0x1
   15ba8:	e8 e1 1d 00 00       	call   1798e <read>
   15bad:	83 c4 10             	add    $0x10,%esp
   15bb0:	c9                   	leave  
   15bb1:	c3                   	ret    

00015bb2 <cwritech>:
   15bb2:	55                   	push   %ebp
   15bb3:	89 e5                	mov    %esp,%ebp
   15bb5:	83 ec 18             	sub    $0x18,%esp
   15bb8:	8b 45 08             	mov    0x8(%ebp),%eax
   15bbb:	88 45 f4             	mov    %al,-0xc(%ebp)
   15bbe:	83 ec 04             	sub    $0x4,%esp
   15bc1:	6a 01                	push   $0x1
   15bc3:	8d 45 f4             	lea    -0xc(%ebp),%eax
   15bc6:	50                   	push   %eax
   15bc7:	6a 00                	push   $0x0
   15bc9:	e8 c8 1d 00 00       	call   17996 <write>
   15bce:	83 c4 10             	add    $0x10,%esp
   15bd1:	c9                   	leave  
   15bd2:	c3                   	ret    

00015bd3 <cwrites>:
   15bd3:	55                   	push   %ebp
   15bd4:	89 e5                	mov    %esp,%ebp
   15bd6:	83 ec 18             	sub    $0x18,%esp
   15bd9:	ff 75 08             	pushl  0x8(%ebp)
   15bdc:	e8 ad fe ff ff       	call   15a8e <strlen>
   15be1:	83 c4 04             	add    $0x4,%esp
   15be4:	89 45 f4             	mov    %eax,-0xc(%ebp)
   15be7:	8b 45 f4             	mov    -0xc(%ebp),%eax
   15bea:	83 ec 04             	sub    $0x4,%esp
   15bed:	50                   	push   %eax
   15bee:	ff 75 08             	pushl  0x8(%ebp)
   15bf1:	6a 00                	push   $0x0
   15bf3:	e8 9e 1d 00 00       	call   17996 <write>
   15bf8:	83 c4 10             	add    $0x10,%esp
   15bfb:	c9                   	leave  
   15bfc:	c3                   	ret    

00015bfd <cwrite>:
   15bfd:	55                   	push   %ebp
   15bfe:	89 e5                	mov    %esp,%ebp
   15c00:	83 ec 08             	sub    $0x8,%esp
   15c03:	83 ec 04             	sub    $0x4,%esp
   15c06:	ff 75 0c             	pushl  0xc(%ebp)
   15c09:	ff 75 08             	pushl  0x8(%ebp)
   15c0c:	6a 00                	push   $0x0
   15c0e:	e8 83 1d 00 00       	call   17996 <write>
   15c13:	83 c4 10             	add    $0x10,%esp
   15c16:	c9                   	leave  
   15c17:	c3                   	ret    

00015c18 <swritech>:
   15c18:	55                   	push   %ebp
   15c19:	89 e5                	mov    %esp,%ebp
   15c1b:	83 ec 18             	sub    $0x18,%esp
   15c1e:	8b 45 08             	mov    0x8(%ebp),%eax
   15c21:	88 45 f4             	mov    %al,-0xc(%ebp)
   15c24:	83 ec 04             	sub    $0x4,%esp
   15c27:	6a 01                	push   $0x1
   15c29:	8d 45 f4             	lea    -0xc(%ebp),%eax
   15c2c:	50                   	push   %eax
   15c2d:	6a 01                	push   $0x1
   15c2f:	e8 62 1d 00 00       	call   17996 <write>
   15c34:	83 c4 10             	add    $0x10,%esp
   15c37:	c9                   	leave  
   15c38:	c3                   	ret    

00015c39 <swrites>:
   15c39:	55                   	push   %ebp
   15c3a:	89 e5                	mov    %esp,%ebp
   15c3c:	83 ec 18             	sub    $0x18,%esp
   15c3f:	ff 75 08             	pushl  0x8(%ebp)
   15c42:	e8 47 fe ff ff       	call   15a8e <strlen>
   15c47:	83 c4 04             	add    $0x4,%esp
   15c4a:	89 45 f4             	mov    %eax,-0xc(%ebp)
   15c4d:	8b 45 f4             	mov    -0xc(%ebp),%eax
   15c50:	83 ec 04             	sub    $0x4,%esp
   15c53:	50                   	push   %eax
   15c54:	ff 75 08             	pushl  0x8(%ebp)
   15c57:	6a 01                	push   $0x1
   15c59:	e8 38 1d 00 00       	call   17996 <write>
   15c5e:	83 c4 10             	add    $0x10,%esp
   15c61:	c9                   	leave  
   15c62:	c3                   	ret    

00015c63 <swrite>:
   15c63:	55                   	push   %ebp
   15c64:	89 e5                	mov    %esp,%ebp
   15c66:	83 ec 08             	sub    $0x8,%esp
   15c69:	83 ec 04             	sub    $0x4,%esp
   15c6c:	ff 75 0c             	pushl  0xc(%ebp)
   15c6f:	ff 75 08             	pushl  0x8(%ebp)
   15c72:	6a 01                	push   $0x1
   15c74:	e8 1d 1d 00 00       	call   17996 <write>
   15c79:	83 c4 10             	add    $0x10,%esp
   15c7c:	c9                   	leave  
   15c7d:	c3                   	ret    

00015c7e <spawn>:
   15c7e:	55                   	push   %ebp
   15c7f:	89 e5                	mov    %esp,%ebp
   15c81:	81 ec 68 03 00 00    	sub    $0x368,%esp
   15c87:	8b 45 10             	mov    0x10(%ebp),%eax
   15c8a:	88 85 a4 fc ff ff    	mov    %al,-0x35c(%ebp)
   15c90:	c7 45 f0 00 00 00 00 	movl   $0x0,-0x10(%ebp)
   15c97:	c7 45 f4 00 00 00 00 	movl   $0x0,-0xc(%ebp)
   15c9e:	eb 24                	jmp    15cc4 <spawn+0x46>
   15ca0:	8b 45 f4             	mov    -0xc(%ebp),%eax
   15ca3:	8d 14 85 00 00 00 00 	lea    0x0(,%eax,4),%edx
   15caa:	8b 45 0c             	mov    0xc(%ebp),%eax
   15cad:	01 d0                	add    %edx,%eax
   15caf:	8b 00                	mov    (%eax),%eax
   15cb1:	50                   	push   %eax
   15cb2:	e8 d7 fd ff ff       	call   15a8e <strlen>
   15cb7:	83 c4 04             	add    $0x4,%esp
   15cba:	83 c0 01             	add    $0x1,%eax
   15cbd:	89 45 f0             	mov    %eax,-0x10(%ebp)
   15cc0:	83 45 f4 01          	addl   $0x1,-0xc(%ebp)
   15cc4:	8b 45 f4             	mov    -0xc(%ebp),%eax
   15cc7:	8d 14 85 00 00 00 00 	lea    0x0(,%eax,4),%edx
   15cce:	8b 45 0c             	mov    0xc(%ebp),%eax
   15cd1:	01 d0                	add    %edx,%eax
   15cd3:	8b 00                	mov    (%eax),%eax
   15cd5:	85 c0                	test   %eax,%eax
   15cd7:	75 c7                	jne    15ca0 <spawn+0x22>
   15cd9:	81 7d f0 00 02 00 00 	cmpl   $0x200,-0x10(%ebp)
   15ce0:	7e 0a                	jle    15cec <spawn+0x6e>
   15ce2:	b8 f1 ff ff ff       	mov    $0xfffffff1,%eax
   15ce7:	e9 b7 01 00 00       	jmp    15ea3 <spawn+0x225>
   15cec:	83 7d f4 40          	cmpl   $0x40,-0xc(%ebp)
   15cf0:	7e 0a                	jle    15cfc <spawn+0x7e>
   15cf2:	b8 f2 ff ff ff       	mov    $0xfffffff2,%eax
   15cf7:	e9 a7 01 00 00       	jmp    15ea3 <spawn+0x225>
   15cfc:	8d 85 b8 fd ff ff    	lea    -0x248(%ebp),%eax
   15d02:	89 45 ec             	mov    %eax,-0x14(%ebp)
   15d05:	c7 45 e8 00 00 00 00 	movl   $0x0,-0x18(%ebp)
   15d0c:	eb 41                	jmp    15d4f <spawn+0xd1>
   15d0e:	8b 45 e8             	mov    -0x18(%ebp),%eax
   15d11:	8d 14 85 00 00 00 00 	lea    0x0(,%eax,4),%edx
   15d18:	8b 45 0c             	mov    0xc(%ebp),%eax
   15d1b:	01 d0                	add    %edx,%eax
   15d1d:	8b 00                	mov    (%eax),%eax
   15d1f:	50                   	push   %eax
   15d20:	ff 75 ec             	pushl  -0x14(%ebp)
   15d23:	e8 88 fd ff ff       	call   15ab0 <strcpy>
   15d28:	83 c4 08             	add    $0x8,%esp
   15d2b:	8b 45 e8             	mov    -0x18(%ebp),%eax
   15d2e:	8d 14 85 00 00 00 00 	lea    0x0(,%eax,4),%edx
   15d35:	8b 45 0c             	mov    0xc(%ebp),%eax
   15d38:	01 d0                	add    %edx,%eax
   15d3a:	8b 00                	mov    (%eax),%eax
   15d3c:	50                   	push   %eax
   15d3d:	e8 4c fd ff ff       	call   15a8e <strlen>
   15d42:	83 c4 04             	add    $0x4,%esp
   15d45:	83 c0 01             	add    $0x1,%eax
   15d48:	01 45 ec             	add    %eax,-0x14(%ebp)
   15d4b:	83 45 e8 01          	addl   $0x1,-0x18(%ebp)
   15d4f:	8b 45 e8             	mov    -0x18(%ebp),%eax
   15d52:	3b 45 f4             	cmp    -0xc(%ebp),%eax
   15d55:	7c b7                	jl     15d0e <spawn+0x90>
   15d57:	e8 42 1c 00 00       	call   1799e <fork>
   15d5c:	89 45 e0             	mov    %eax,-0x20(%ebp)
   15d5f:	83 7d e0 00          	cmpl   $0x0,-0x20(%ebp)
   15d63:	74 08                	je     15d6d <spawn+0xef>
   15d65:	8b 45 e0             	mov    -0x20(%ebp),%eax
   15d68:	e9 36 01 00 00       	jmp    15ea3 <spawn+0x225>
   15d6d:	e8 5c 1c 00 00       	call   179ce <pid>
   15d72:	0f b7 c0             	movzwl %ax,%eax
   15d75:	89 45 dc             	mov    %eax,-0x24(%ebp)
   15d78:	0f b6 95 a4 fc ff ff 	movzbl -0x35c(%ebp),%edx
   15d7f:	8b 45 dc             	mov    -0x24(%ebp),%eax
   15d82:	0f b7 c0             	movzwl %ax,%eax
   15d85:	83 ec 08             	sub    $0x8,%esp
   15d88:	52                   	push   %edx
   15d89:	50                   	push   %eax
   15d8a:	e8 57 1c 00 00       	call   179e6 <set_prio>
   15d8f:	83 c4 10             	add    $0x10,%esp
   15d92:	8d 85 b8 fd ff ff    	lea    -0x248(%ebp),%eax
   15d98:	89 45 ec             	mov    %eax,-0x14(%ebp)
   15d9b:	c7 45 e4 00 00 00 00 	movl   $0x0,-0x1c(%ebp)
   15da2:	eb 25                	jmp    15dc9 <spawn+0x14b>
   15da4:	8b 45 e4             	mov    -0x1c(%ebp),%eax
   15da7:	8b 55 ec             	mov    -0x14(%ebp),%edx
   15daa:	89 94 85 b4 fc ff ff 	mov    %edx,-0x34c(%ebp,%eax,4)
   15db1:	83 ec 0c             	sub    $0xc,%esp
   15db4:	ff 75 ec             	pushl  -0x14(%ebp)
   15db7:	e8 d2 fc ff ff       	call   15a8e <strlen>
   15dbc:	83 c4 10             	add    $0x10,%esp
   15dbf:	83 c0 01             	add    $0x1,%eax
   15dc2:	01 45 ec             	add    %eax,-0x14(%ebp)
   15dc5:	83 45 e4 01          	addl   $0x1,-0x1c(%ebp)
   15dc9:	8b 45 e4             	mov    -0x1c(%ebp),%eax
   15dcc:	3b 45 f4             	cmp    -0xc(%ebp),%eax
   15dcf:	7c d3                	jl     15da4 <spawn+0x126>
   15dd1:	8b 45 f4             	mov    -0xc(%ebp),%eax
   15dd4:	c7 84 85 b4 fc ff ff 	movl   $0x0,-0x34c(%ebp,%eax,4)
   15ddb:	00 00 00 00 
   15ddf:	83 ec 08             	sub    $0x8,%esp
   15de2:	8d 85 b4 fc ff ff    	lea    -0x34c(%ebp),%eax
   15de8:	50                   	push   %eax
   15de9:	ff 75 08             	pushl  0x8(%ebp)
   15dec:	e8 b5 1b 00 00       	call   179a6 <exec>
   15df1:	83 c4 10             	add    $0x10,%esp
   15df4:	89 45 d8             	mov    %eax,-0x28(%ebp)
   15df7:	e8 d2 1b 00 00       	call   179ce <pid>
   15dfc:	0f b7 c0             	movzwl %ax,%eax
   15dff:	89 45 e0             	mov    %eax,-0x20(%ebp)
   15e02:	83 ec 08             	sub    $0x8,%esp
   15e05:	ff 75 e0             	pushl  -0x20(%ebp)
   15e08:	8d 45 b8             	lea    -0x48(%ebp),%eax
   15e0b:	50                   	push   %eax
   15e0c:	e8 2a f8 ff ff       	call   1563b <cvt_dec>
   15e11:	83 c4 10             	add    $0x10,%esp
   15e14:	83 ec 0c             	sub    $0xc,%esp
   15e17:	68 b5 86 01 00       	push   $0x186b5
   15e1c:	e8 b2 fd ff ff       	call   15bd3 <cwrites>
   15e21:	83 c4 10             	add    $0x10,%esp
   15e24:	83 ec 0c             	sub    $0xc,%esp
   15e27:	8d 45 b8             	lea    -0x48(%ebp),%eax
   15e2a:	50                   	push   %eax
   15e2b:	e8 5e fc ff ff       	call   15a8e <strlen>
   15e30:	83 c4 10             	add    $0x10,%esp
   15e33:	83 ec 08             	sub    $0x8,%esp
   15e36:	50                   	push   %eax
   15e37:	8d 45 b8             	lea    -0x48(%ebp),%eax
   15e3a:	50                   	push   %eax
   15e3b:	e8 bd fd ff ff       	call   15bfd <cwrite>
   15e40:	83 c4 10             	add    $0x10,%esp
   15e43:	83 ec 0c             	sub    $0xc,%esp
   15e46:	68 ba 86 01 00       	push   $0x186ba
   15e4b:	e8 83 fd ff ff       	call   15bd3 <cwrites>
   15e50:	83 c4 10             	add    $0x10,%esp
   15e53:	83 ec 08             	sub    $0x8,%esp
   15e56:	ff 75 d8             	pushl  -0x28(%ebp)
   15e59:	8d 45 b8             	lea    -0x48(%ebp),%eax
   15e5c:	50                   	push   %eax
   15e5d:	e8 d9 f7 ff ff       	call   1563b <cvt_dec>
   15e62:	83 c4 10             	add    $0x10,%esp
   15e65:	83 ec 0c             	sub    $0xc,%esp
   15e68:	8d 45 b8             	lea    -0x48(%ebp),%eax
   15e6b:	50                   	push   %eax
   15e6c:	e8 1d fc ff ff       	call   15a8e <strlen>
   15e71:	83 c4 10             	add    $0x10,%esp
   15e74:	83 ec 08             	sub    $0x8,%esp
   15e77:	50                   	push   %eax
   15e78:	8d 45 b8             	lea    -0x48(%ebp),%eax
   15e7b:	50                   	push   %eax
   15e7c:	e8 7c fd ff ff       	call   15bfd <cwrite>
   15e81:	83 c4 10             	add    $0x10,%esp
   15e84:	83 ec 0c             	sub    $0xc,%esp
   15e87:	6a 0a                	push   $0xa
   15e89:	e8 24 fd ff ff       	call   15bb2 <cwritech>
   15e8e:	83 c4 10             	add    $0x10,%esp
   15e91:	83 ec 0c             	sub    $0xc,%esp
   15e94:	6a 01                	push   $0x1
   15e96:	e8 eb 1a 00 00       	call   17986 <exit>
   15e9b:	83 c4 10             	add    $0x10,%esp
   15e9e:	b8 01 00 00 00       	mov    $0x1,%eax
   15ea3:	c9                   	leave  
   15ea4:	c3                   	ret    

00015ea5 <user_a>:
   15ea5:	55                   	push   %ebp
   15ea6:	89 e5                	mov    %esp,%ebp
   15ea8:	83 ec 28             	sub    $0x28,%esp
   15eab:	83 7d 08 01          	cmpl   $0x1,0x8(%ebp)
   15eaf:	7e 0d                	jle    15ebe <user_a+0x19>
   15eb1:	8b 45 0c             	mov    0xc(%ebp),%eax
   15eb4:	83 c0 04             	add    $0x4,%eax
   15eb7:	8b 00                	mov    (%eax),%eax
   15eb9:	0f b6 00             	movzbl (%eax),%eax
   15ebc:	eb 05                	jmp    15ec3 <user_a+0x1e>
   15ebe:	b8 41 00 00 00       	mov    $0x41,%eax
   15ec3:	88 45 ef             	mov    %al,-0x11(%ebp)
   15ec6:	0f be 45 ef          	movsbl -0x11(%ebp),%eax
   15eca:	83 ec 0c             	sub    $0xc,%esp
   15ecd:	50                   	push   %eax
   15ece:	e8 45 fd ff ff       	call   15c18 <swritech>
   15ed3:	83 c4 10             	add    $0x10,%esp
   15ed6:	89 45 e8             	mov    %eax,-0x18(%ebp)
   15ed9:	83 7d e8 01          	cmpl   $0x1,-0x18(%ebp)
   15edd:	74 45                	je     15f24 <user_a+0x7f>
   15edf:	83 ec 0c             	sub    $0xc,%esp
   15ee2:	68 d4 86 01 00       	push   $0x186d4
   15ee7:	e8 e7 fc ff ff       	call   15bd3 <cwrites>
   15eec:	83 c4 10             	add    $0x10,%esp
   15eef:	83 ec 08             	sub    $0x8,%esp
   15ef2:	ff 75 e8             	pushl  -0x18(%ebp)
   15ef5:	8d 45 dc             	lea    -0x24(%ebp),%eax
   15ef8:	50                   	push   %eax
   15ef9:	e8 3d f7 ff ff       	call   1563b <cvt_dec>
   15efe:	83 c4 10             	add    $0x10,%esp
   15f01:	89 45 f4             	mov    %eax,-0xc(%ebp)
   15f04:	8b 45 f4             	mov    -0xc(%ebp),%eax
   15f07:	83 ec 08             	sub    $0x8,%esp
   15f0a:	50                   	push   %eax
   15f0b:	8d 45 dc             	lea    -0x24(%ebp),%eax
   15f0e:	50                   	push   %eax
   15f0f:	e8 e9 fc ff ff       	call   15bfd <cwrite>
   15f14:	83 c4 10             	add    $0x10,%esp
   15f17:	83 ec 0c             	sub    $0xc,%esp
   15f1a:	6a 0a                	push   $0xa
   15f1c:	e8 91 fc ff ff       	call   15bb2 <cwritech>
   15f21:	83 c4 10             	add    $0x10,%esp
   15f24:	c7 45 f4 00 00 00 00 	movl   $0x0,-0xc(%ebp)
   15f2b:	eb 78                	jmp    15fa5 <user_a+0x100>
   15f2d:	c7 45 f0 00 00 00 00 	movl   $0x0,-0x10(%ebp)
   15f34:	eb 04                	jmp    15f3a <user_a+0x95>
   15f36:	83 45 f0 01          	addl   $0x1,-0x10(%ebp)
   15f3a:	81 7d f0 9f 25 26 00 	cmpl   $0x26259f,-0x10(%ebp)
   15f41:	7e f3                	jle    15f36 <user_a+0x91>
   15f43:	0f be 45 ef          	movsbl -0x11(%ebp),%eax
   15f47:	83 ec 0c             	sub    $0xc,%esp
   15f4a:	50                   	push   %eax
   15f4b:	e8 c8 fc ff ff       	call   15c18 <swritech>
   15f50:	83 c4 10             	add    $0x10,%esp
   15f53:	89 45 e8             	mov    %eax,-0x18(%ebp)
   15f56:	83 7d e8 01          	cmpl   $0x1,-0x18(%ebp)
   15f5a:	74 45                	je     15fa1 <user_a+0xfc>
   15f5c:	83 ec 0c             	sub    $0xc,%esp
   15f5f:	68 ee 86 01 00       	push   $0x186ee
   15f64:	e8 6a fc ff ff       	call   15bd3 <cwrites>
   15f69:	83 c4 10             	add    $0x10,%esp
   15f6c:	83 ec 08             	sub    $0x8,%esp
   15f6f:	ff 75 e8             	pushl  -0x18(%ebp)
   15f72:	8d 45 dc             	lea    -0x24(%ebp),%eax
   15f75:	50                   	push   %eax
   15f76:	e8 c0 f6 ff ff       	call   1563b <cvt_dec>
   15f7b:	83 c4 10             	add    $0x10,%esp
   15f7e:	89 45 f4             	mov    %eax,-0xc(%ebp)
   15f81:	8b 45 f4             	mov    -0xc(%ebp),%eax
   15f84:	83 ec 08             	sub    $0x8,%esp
   15f87:	50                   	push   %eax
   15f88:	8d 45 dc             	lea    -0x24(%ebp),%eax
   15f8b:	50                   	push   %eax
   15f8c:	e8 6c fc ff ff       	call   15bfd <cwrite>
   15f91:	83 c4 10             	add    $0x10,%esp
   15f94:	83 ec 0c             	sub    $0xc,%esp
   15f97:	6a 0a                	push   $0xa
   15f99:	e8 14 fc ff ff       	call   15bb2 <cwritech>
   15f9e:	83 c4 10             	add    $0x10,%esp
   15fa1:	83 45 f4 01          	addl   $0x1,-0xc(%ebp)
   15fa5:	83 7d f4 1d          	cmpl   $0x1d,-0xc(%ebp)
   15fa9:	7e 82                	jle    15f2d <user_a+0x88>
   15fab:	83 ec 0c             	sub    $0xc,%esp
   15fae:	6a 00                	push   $0x0
   15fb0:	e8 d1 19 00 00       	call   17986 <exit>
   15fb5:	83 c4 10             	add    $0x10,%esp
   15fb8:	83 ec 0c             	sub    $0xc,%esp
   15fbb:	68 08 87 01 00       	push   $0x18708
   15fc0:	e8 74 fc ff ff       	call   15c39 <swrites>
   15fc5:	83 c4 10             	add    $0x10,%esp
   15fc8:	89 45 e8             	mov    %eax,-0x18(%ebp)
   15fcb:	83 7d e8 03          	cmpl   $0x3,-0x18(%ebp)
   15fcf:	74 45                	je     16016 <user_a+0x171>
   15fd1:	83 ec 0c             	sub    $0xc,%esp
   15fd4:	68 0c 87 01 00       	push   $0x1870c
   15fd9:	e8 f5 fb ff ff       	call   15bd3 <cwrites>
   15fde:	83 c4 10             	add    $0x10,%esp
   15fe1:	83 ec 08             	sub    $0x8,%esp
   15fe4:	ff 75 e8             	pushl  -0x18(%ebp)
   15fe7:	8d 45 dc             	lea    -0x24(%ebp),%eax
   15fea:	50                   	push   %eax
   15feb:	e8 4b f6 ff ff       	call   1563b <cvt_dec>
   15ff0:	83 c4 10             	add    $0x10,%esp
   15ff3:	89 45 f4             	mov    %eax,-0xc(%ebp)
   15ff6:	8b 45 f4             	mov    -0xc(%ebp),%eax
   15ff9:	83 ec 08             	sub    $0x8,%esp
   15ffc:	50                   	push   %eax
   15ffd:	8d 45 dc             	lea    -0x24(%ebp),%eax
   16000:	50                   	push   %eax
   16001:	e8 f7 fb ff ff       	call   15bfd <cwrite>
   16006:	83 c4 10             	add    $0x10,%esp
   16009:	83 ec 0c             	sub    $0xc,%esp
   1600c:	6a 0a                	push   $0xa
   1600e:	e8 9f fb ff ff       	call   15bb2 <cwritech>
   16013:	83 c4 10             	add    $0x10,%esp
   16016:	b8 00 00 00 00       	mov    $0x0,%eax
   1601b:	c9                   	leave  
   1601c:	c3                   	ret    

0001601d <user_b>:
   1601d:	55                   	push   %ebp
   1601e:	89 e5                	mov    %esp,%ebp
   16020:	83 ec 28             	sub    $0x28,%esp
   16023:	83 7d 08 01          	cmpl   $0x1,0x8(%ebp)
   16027:	7e 0d                	jle    16036 <user_b+0x19>
   16029:	8b 45 0c             	mov    0xc(%ebp),%eax
   1602c:	83 c0 04             	add    $0x4,%eax
   1602f:	8b 00                	mov    (%eax),%eax
   16031:	0f b6 00             	movzbl (%eax),%eax
   16034:	eb 05                	jmp    1603b <user_b+0x1e>
   16036:	b8 42 00 00 00       	mov    $0x42,%eax
   1603b:	88 45 ef             	mov    %al,-0x11(%ebp)
   1603e:	0f be 45 ef          	movsbl -0x11(%ebp),%eax
   16042:	83 ec 0c             	sub    $0xc,%esp
   16045:	50                   	push   %eax
   16046:	e8 cd fb ff ff       	call   15c18 <swritech>
   1604b:	83 c4 10             	add    $0x10,%esp
   1604e:	89 45 e8             	mov    %eax,-0x18(%ebp)
   16051:	83 7d e8 01          	cmpl   $0x1,-0x18(%ebp)
   16055:	74 45                	je     1609c <user_b+0x7f>
   16057:	83 ec 0c             	sub    $0xc,%esp
   1605a:	68 26 87 01 00       	push   $0x18726
   1605f:	e8 6f fb ff ff       	call   15bd3 <cwrites>
   16064:	83 c4 10             	add    $0x10,%esp
   16067:	83 ec 08             	sub    $0x8,%esp
   1606a:	ff 75 e8             	pushl  -0x18(%ebp)
   1606d:	8d 45 dc             	lea    -0x24(%ebp),%eax
   16070:	50                   	push   %eax
   16071:	e8 c5 f5 ff ff       	call   1563b <cvt_dec>
   16076:	83 c4 10             	add    $0x10,%esp
   16079:	89 45 f4             	mov    %eax,-0xc(%ebp)
   1607c:	8b 45 f4             	mov    -0xc(%ebp),%eax
   1607f:	83 ec 08             	sub    $0x8,%esp
   16082:	50                   	push   %eax
   16083:	8d 45 dc             	lea    -0x24(%ebp),%eax
   16086:	50                   	push   %eax
   16087:	e8 71 fb ff ff       	call   15bfd <cwrite>
   1608c:	83 c4 10             	add    $0x10,%esp
   1608f:	83 ec 0c             	sub    $0xc,%esp
   16092:	6a 0a                	push   $0xa
   16094:	e8 19 fb ff ff       	call   15bb2 <cwritech>
   16099:	83 c4 10             	add    $0x10,%esp
   1609c:	c7 45 f4 00 00 00 00 	movl   $0x0,-0xc(%ebp)
   160a3:	eb 78                	jmp    1611d <user_b+0x100>
   160a5:	c7 45 f0 00 00 00 00 	movl   $0x0,-0x10(%ebp)
   160ac:	eb 04                	jmp    160b2 <user_b+0x95>
   160ae:	83 45 f0 01          	addl   $0x1,-0x10(%ebp)
   160b2:	81 7d f0 9f 25 26 00 	cmpl   $0x26259f,-0x10(%ebp)
   160b9:	7e f3                	jle    160ae <user_b+0x91>
   160bb:	0f be 45 ef          	movsbl -0x11(%ebp),%eax
   160bf:	83 ec 0c             	sub    $0xc,%esp
   160c2:	50                   	push   %eax
   160c3:	e8 50 fb ff ff       	call   15c18 <swritech>
   160c8:	83 c4 10             	add    $0x10,%esp
   160cb:	89 45 e8             	mov    %eax,-0x18(%ebp)
   160ce:	83 7d e8 01          	cmpl   $0x1,-0x18(%ebp)
   160d2:	74 45                	je     16119 <user_b+0xfc>
   160d4:	83 ec 0c             	sub    $0xc,%esp
   160d7:	68 40 87 01 00       	push   $0x18740
   160dc:	e8 f2 fa ff ff       	call   15bd3 <cwrites>
   160e1:	83 c4 10             	add    $0x10,%esp
   160e4:	83 ec 08             	sub    $0x8,%esp
   160e7:	ff 75 e8             	pushl  -0x18(%ebp)
   160ea:	8d 45 dc             	lea    -0x24(%ebp),%eax
   160ed:	50                   	push   %eax
   160ee:	e8 48 f5 ff ff       	call   1563b <cvt_dec>
   160f3:	83 c4 10             	add    $0x10,%esp
   160f6:	89 45 f4             	mov    %eax,-0xc(%ebp)
   160f9:	8b 45 f4             	mov    -0xc(%ebp),%eax
   160fc:	83 ec 08             	sub    $0x8,%esp
   160ff:	50                   	push   %eax
   16100:	8d 45 dc             	lea    -0x24(%ebp),%eax
   16103:	50                   	push   %eax
   16104:	e8 f4 fa ff ff       	call   15bfd <cwrite>
   16109:	83 c4 10             	add    $0x10,%esp
   1610c:	83 ec 0c             	sub    $0xc,%esp
   1610f:	6a 0a                	push   $0xa
   16111:	e8 9c fa ff ff       	call   15bb2 <cwritech>
   16116:	83 c4 10             	add    $0x10,%esp
   16119:	83 45 f4 01          	addl   $0x1,-0xc(%ebp)
   1611d:	83 7d f4 1d          	cmpl   $0x1d,-0xc(%ebp)
   16121:	7e 82                	jle    160a5 <user_b+0x88>
   16123:	83 ec 0c             	sub    $0xc,%esp
   16126:	6a 00                	push   $0x0
   16128:	e8 59 18 00 00       	call   17986 <exit>
   1612d:	83 c4 10             	add    $0x10,%esp
   16130:	83 ec 0c             	sub    $0xc,%esp
   16133:	6a 62                	push   $0x62
   16135:	e8 de fa ff ff       	call   15c18 <swritech>
   1613a:	83 c4 10             	add    $0x10,%esp
   1613d:	89 45 e8             	mov    %eax,-0x18(%ebp)
   16140:	83 7d e8 01          	cmpl   $0x1,-0x18(%ebp)
   16144:	74 45                	je     1618b <user_b+0x16e>
   16146:	83 ec 0c             	sub    $0xc,%esp
   16149:	68 5a 87 01 00       	push   $0x1875a
   1614e:	e8 80 fa ff ff       	call   15bd3 <cwrites>
   16153:	83 c4 10             	add    $0x10,%esp
   16156:	83 ec 08             	sub    $0x8,%esp
   16159:	ff 75 e8             	pushl  -0x18(%ebp)
   1615c:	8d 45 dc             	lea    -0x24(%ebp),%eax
   1615f:	50                   	push   %eax
   16160:	e8 d6 f4 ff ff       	call   1563b <cvt_dec>
   16165:	83 c4 10             	add    $0x10,%esp
   16168:	89 45 f4             	mov    %eax,-0xc(%ebp)
   1616b:	8b 45 f4             	mov    -0xc(%ebp),%eax
   1616e:	83 ec 08             	sub    $0x8,%esp
   16171:	50                   	push   %eax
   16172:	8d 45 dc             	lea    -0x24(%ebp),%eax
   16175:	50                   	push   %eax
   16176:	e8 82 fa ff ff       	call   15bfd <cwrite>
   1617b:	83 c4 10             	add    $0x10,%esp
   1617e:	83 ec 0c             	sub    $0xc,%esp
   16181:	6a 0a                	push   $0xa
   16183:	e8 2a fa ff ff       	call   15bb2 <cwritech>
   16188:	83 c4 10             	add    $0x10,%esp
   1618b:	b8 00 00 00 00       	mov    $0x0,%eax
   16190:	c9                   	leave  
   16191:	c3                   	ret    

00016192 <user_c>:
   16192:	55                   	push   %ebp
   16193:	89 e5                	mov    %esp,%ebp
   16195:	83 ec 28             	sub    $0x28,%esp
   16198:	83 7d 08 01          	cmpl   $0x1,0x8(%ebp)
   1619c:	7e 0d                	jle    161ab <user_c+0x19>
   1619e:	8b 45 0c             	mov    0xc(%ebp),%eax
   161a1:	83 c0 04             	add    $0x4,%eax
   161a4:	8b 00                	mov    (%eax),%eax
   161a6:	0f b6 00             	movzbl (%eax),%eax
   161a9:	eb 05                	jmp    161b0 <user_c+0x1e>
   161ab:	b8 43 00 00 00       	mov    $0x43,%eax
   161b0:	88 45 ef             	mov    %al,-0x11(%ebp)
   161b3:	0f be 45 ef          	movsbl -0x11(%ebp),%eax
   161b7:	83 ec 0c             	sub    $0xc,%esp
   161ba:	50                   	push   %eax
   161bb:	e8 58 fa ff ff       	call   15c18 <swritech>
   161c0:	83 c4 10             	add    $0x10,%esp
   161c3:	89 45 e8             	mov    %eax,-0x18(%ebp)
   161c6:	83 7d e8 01          	cmpl   $0x1,-0x18(%ebp)
   161ca:	74 45                	je     16211 <user_c+0x7f>
   161cc:	83 ec 0c             	sub    $0xc,%esp
   161cf:	68 74 87 01 00       	push   $0x18774
   161d4:	e8 fa f9 ff ff       	call   15bd3 <cwrites>
   161d9:	83 c4 10             	add    $0x10,%esp
   161dc:	83 ec 08             	sub    $0x8,%esp
   161df:	ff 75 e8             	pushl  -0x18(%ebp)
   161e2:	8d 45 dc             	lea    -0x24(%ebp),%eax
   161e5:	50                   	push   %eax
   161e6:	e8 50 f4 ff ff       	call   1563b <cvt_dec>
   161eb:	83 c4 10             	add    $0x10,%esp
   161ee:	89 45 f4             	mov    %eax,-0xc(%ebp)
   161f1:	8b 45 f4             	mov    -0xc(%ebp),%eax
   161f4:	83 ec 08             	sub    $0x8,%esp
   161f7:	50                   	push   %eax
   161f8:	8d 45 dc             	lea    -0x24(%ebp),%eax
   161fb:	50                   	push   %eax
   161fc:	e8 fc f9 ff ff       	call   15bfd <cwrite>
   16201:	83 c4 10             	add    $0x10,%esp
   16204:	83 ec 0c             	sub    $0xc,%esp
   16207:	6a 0a                	push   $0xa
   16209:	e8 a4 f9 ff ff       	call   15bb2 <cwritech>
   1620e:	83 c4 10             	add    $0x10,%esp
   16211:	c7 45 f4 00 00 00 00 	movl   $0x0,-0xc(%ebp)
   16218:	eb 78                	jmp    16292 <user_c+0x100>
   1621a:	c7 45 f0 00 00 00 00 	movl   $0x0,-0x10(%ebp)
   16221:	eb 04                	jmp    16227 <user_c+0x95>
   16223:	83 45 f0 01          	addl   $0x1,-0x10(%ebp)
   16227:	81 7d f0 9f 25 26 00 	cmpl   $0x26259f,-0x10(%ebp)
   1622e:	7e f3                	jle    16223 <user_c+0x91>
   16230:	0f be 45 ef          	movsbl -0x11(%ebp),%eax
   16234:	83 ec 0c             	sub    $0xc,%esp
   16237:	50                   	push   %eax
   16238:	e8 db f9 ff ff       	call   15c18 <swritech>
   1623d:	83 c4 10             	add    $0x10,%esp
   16240:	89 45 e8             	mov    %eax,-0x18(%ebp)
   16243:	83 7d e8 01          	cmpl   $0x1,-0x18(%ebp)
   16247:	74 45                	je     1628e <user_c+0xfc>
   16249:	83 ec 0c             	sub    $0xc,%esp
   1624c:	68 8e 87 01 00       	push   $0x1878e
   16251:	e8 7d f9 ff ff       	call   15bd3 <cwrites>
   16256:	83 c4 10             	add    $0x10,%esp
   16259:	83 ec 08             	sub    $0x8,%esp
   1625c:	ff 75 e8             	pushl  -0x18(%ebp)
   1625f:	8d 45 dc             	lea    -0x24(%ebp),%eax
   16262:	50                   	push   %eax
   16263:	e8 d3 f3 ff ff       	call   1563b <cvt_dec>
   16268:	83 c4 10             	add    $0x10,%esp
   1626b:	89 45 f4             	mov    %eax,-0xc(%ebp)
   1626e:	8b 45 f4             	mov    -0xc(%ebp),%eax
   16271:	83 ec 08             	sub    $0x8,%esp
   16274:	50                   	push   %eax
   16275:	8d 45 dc             	lea    -0x24(%ebp),%eax
   16278:	50                   	push   %eax
   16279:	e8 7f f9 ff ff       	call   15bfd <cwrite>
   1627e:	83 c4 10             	add    $0x10,%esp
   16281:	83 ec 0c             	sub    $0xc,%esp
   16284:	6a 0a                	push   $0xa
   16286:	e8 27 f9 ff ff       	call   15bb2 <cwritech>
   1628b:	83 c4 10             	add    $0x10,%esp
   1628e:	83 45 f4 01          	addl   $0x1,-0xc(%ebp)
   16292:	83 7d f4 1d          	cmpl   $0x1d,-0xc(%ebp)
   16296:	7e 82                	jle    1621a <user_c+0x88>
   16298:	83 ec 0c             	sub    $0xc,%esp
   1629b:	6a 00                	push   $0x0
   1629d:	e8 e4 16 00 00       	call   17986 <exit>
   162a2:	83 c4 10             	add    $0x10,%esp
   162a5:	83 ec 0c             	sub    $0xc,%esp
   162a8:	6a 63                	push   $0x63
   162aa:	e8 69 f9 ff ff       	call   15c18 <swritech>
   162af:	83 c4 10             	add    $0x10,%esp
   162b2:	89 45 e8             	mov    %eax,-0x18(%ebp)
   162b5:	83 7d e8 01          	cmpl   $0x1,-0x18(%ebp)
   162b9:	74 45                	je     16300 <user_c+0x16e>
   162bb:	83 ec 0c             	sub    $0xc,%esp
   162be:	68 a8 87 01 00       	push   $0x187a8
   162c3:	e8 0b f9 ff ff       	call   15bd3 <cwrites>
   162c8:	83 c4 10             	add    $0x10,%esp
   162cb:	83 ec 08             	sub    $0x8,%esp
   162ce:	ff 75 e8             	pushl  -0x18(%ebp)
   162d1:	8d 45 dc             	lea    -0x24(%ebp),%eax
   162d4:	50                   	push   %eax
   162d5:	e8 61 f3 ff ff       	call   1563b <cvt_dec>
   162da:	83 c4 10             	add    $0x10,%esp
   162dd:	89 45 f4             	mov    %eax,-0xc(%ebp)
   162e0:	8b 45 f4             	mov    -0xc(%ebp),%eax
   162e3:	83 ec 08             	sub    $0x8,%esp
   162e6:	50                   	push   %eax
   162e7:	8d 45 dc             	lea    -0x24(%ebp),%eax
   162ea:	50                   	push   %eax
   162eb:	e8 0d f9 ff ff       	call   15bfd <cwrite>
   162f0:	83 c4 10             	add    $0x10,%esp
   162f3:	83 ec 0c             	sub    $0xc,%esp
   162f6:	6a 0a                	push   $0xa
   162f8:	e8 b5 f8 ff ff       	call   15bb2 <cwritech>
   162fd:	83 c4 10             	add    $0x10,%esp
   16300:	b8 00 00 00 00       	mov    $0x0,%eax
   16305:	c9                   	leave  
   16306:	c3                   	ret    

00016307 <user_d>:
   16307:	55                   	push   %ebp
   16308:	89 e5                	mov    %esp,%ebp
   1630a:	83 ec 28             	sub    $0x28,%esp
   1630d:	c7 45 f4 00 00 00 00 	movl   $0x0,-0xc(%ebp)
   16314:	c7 45 e4 00 00 00 00 	movl   $0x0,-0x1c(%ebp)
   1631b:	c7 45 e8 00 00 00 00 	movl   $0x0,-0x18(%ebp)
   16322:	c7 45 ec 00 00 00 00 	movl   $0x0,-0x14(%ebp)
   16329:	83 7d 08 01          	cmpl   $0x1,0x8(%ebp)
   1632d:	7e 0d                	jle    1633c <user_d+0x35>
   1632f:	8b 45 0c             	mov    0xc(%ebp),%eax
   16332:	83 c0 04             	add    $0x4,%eax
   16335:	8b 00                	mov    (%eax),%eax
   16337:	0f b6 00             	movzbl (%eax),%eax
   1633a:	eb 05                	jmp    16341 <user_d+0x3a>
   1633c:	b8 44 00 00 00       	mov    $0x44,%eax
   16341:	88 45 f3             	mov    %al,-0xd(%ebp)
   16344:	0f be 45 f3          	movsbl -0xd(%ebp),%eax
   16348:	83 ec 0c             	sub    $0xc,%esp
   1634b:	50                   	push   %eax
   1634c:	e8 c7 f8 ff ff       	call   15c18 <swritech>
   16351:	83 c4 10             	add    $0x10,%esp
   16354:	c7 45 e4 c2 87 01 00 	movl   $0x187c2,-0x1c(%ebp)
   1635b:	c7 45 e8 c9 87 01 00 	movl   $0x187c9,-0x18(%ebp)
   16362:	83 ec 04             	sub    $0x4,%esp
   16365:	6a 02                	push   $0x2
   16367:	8d 45 e4             	lea    -0x1c(%ebp),%eax
   1636a:	50                   	push   %eax
   1636b:	68 69 74 01 00       	push   $0x17469
   16370:	e8 09 f9 ff ff       	call   15c7e <spawn>
   16375:	83 c4 10             	add    $0x10,%esp
   16378:	66 89 45 f0          	mov    %ax,-0x10(%ebp)
   1637c:	0f be 45 f3          	movsbl -0xd(%ebp),%eax
   16380:	83 ec 0c             	sub    $0xc,%esp
   16383:	50                   	push   %eax
   16384:	e8 8f f8 ff ff       	call   15c18 <swritech>
   16389:	83 c4 10             	add    $0x10,%esp
   1638c:	83 ec 0c             	sub    $0xc,%esp
   1638f:	ff 75 f4             	pushl  -0xc(%ebp)
   16392:	e8 ef 15 00 00       	call   17986 <exit>
   16397:	83 c4 10             	add    $0x10,%esp
   1639a:	b8 00 00 00 00       	mov    $0x0,%eax
   1639f:	c9                   	leave  
   163a0:	c3                   	ret    

000163a1 <user_e>:
   163a1:	55                   	push   %ebp
   163a2:	89 e5                	mov    %esp,%ebp
   163a4:	83 ec 18             	sub    $0x18,%esp
   163a7:	83 7d 08 01          	cmpl   $0x1,0x8(%ebp)
   163ab:	7e 0d                	jle    163ba <user_e+0x19>
   163ad:	8b 45 0c             	mov    0xc(%ebp),%eax
   163b0:	83 c0 04             	add    $0x4,%eax
   163b3:	8b 00                	mov    (%eax),%eax
   163b5:	0f b6 00             	movzbl (%eax),%eax
   163b8:	eb 05                	jmp    163bf <user_e+0x1e>
   163ba:	b8 45 00 00 00       	mov    $0x45,%eax
   163bf:	88 45 f3             	mov    %al,-0xd(%ebp)
   163c2:	e8 07 16 00 00       	call   179ce <pid>
   163c7:	0f b7 c0             	movzwl %ax,%eax
   163ca:	83 ec 08             	sub    $0x8,%esp
   163cd:	50                   	push   %eax
   163ce:	6a 45                	push   $0x45
   163d0:	e8 3c f3 ff ff       	call   15711 <report>
   163d5:	83 c4 10             	add    $0x10,%esp
   163d8:	0f be 45 f3          	movsbl -0xd(%ebp),%eax
   163dc:	83 ec 0c             	sub    $0xc,%esp
   163df:	50                   	push   %eax
   163e0:	e8 33 f8 ff ff       	call   15c18 <swritech>
   163e5:	83 c4 10             	add    $0x10,%esp
   163e8:	c7 45 f4 00 00 00 00 	movl   $0x0,-0xc(%ebp)
   163ef:	eb 24                	jmp    16415 <user_e+0x74>
   163f1:	83 ec 0c             	sub    $0xc,%esp
   163f4:	68 10 27 00 00       	push   $0x2710
   163f9:	e8 c0 15 00 00       	call   179be <sleep>
   163fe:	83 c4 10             	add    $0x10,%esp
   16401:	0f be 45 f3          	movsbl -0xd(%ebp),%eax
   16405:	83 ec 0c             	sub    $0xc,%esp
   16408:	50                   	push   %eax
   16409:	e8 0a f8 ff ff       	call   15c18 <swritech>
   1640e:	83 c4 10             	add    $0x10,%esp
   16411:	83 45 f4 01          	addl   $0x1,-0xc(%ebp)
   16415:	83 7d f4 04          	cmpl   $0x4,-0xc(%ebp)
   16419:	7e d6                	jle    163f1 <user_e+0x50>
   1641b:	83 ec 0c             	sub    $0xc,%esp
   1641e:	6a 00                	push   $0x0
   16420:	e8 61 15 00 00       	call   17986 <exit>
   16425:	83 c4 10             	add    $0x10,%esp
   16428:	b8 00 00 00 00       	mov    $0x0,%eax
   1642d:	c9                   	leave  
   1642e:	c3                   	ret    

0001642f <user_f>:
   1642f:	55                   	push   %ebp
   16430:	89 e5                	mov    %esp,%ebp
   16432:	83 ec 18             	sub    $0x18,%esp
   16435:	83 7d 08 01          	cmpl   $0x1,0x8(%ebp)
   16439:	7e 0d                	jle    16448 <user_f+0x19>
   1643b:	8b 45 0c             	mov    0xc(%ebp),%eax
   1643e:	83 c0 04             	add    $0x4,%eax
   16441:	8b 00                	mov    (%eax),%eax
   16443:	0f b6 00             	movzbl (%eax),%eax
   16446:	eb 05                	jmp    1644d <user_f+0x1e>
   16448:	b8 46 00 00 00       	mov    $0x46,%eax
   1644d:	88 45 f3             	mov    %al,-0xd(%ebp)
   16450:	e8 79 15 00 00       	call   179ce <pid>
   16455:	0f b7 c0             	movzwl %ax,%eax
   16458:	83 ec 08             	sub    $0x8,%esp
   1645b:	50                   	push   %eax
   1645c:	6a 46                	push   $0x46
   1645e:	e8 ae f2 ff ff       	call   15711 <report>
   16463:	83 c4 10             	add    $0x10,%esp
   16466:	0f be 45 f3          	movsbl -0xd(%ebp),%eax
   1646a:	83 ec 0c             	sub    $0xc,%esp
   1646d:	50                   	push   %eax
   1646e:	e8 a5 f7 ff ff       	call   15c18 <swritech>
   16473:	83 c4 10             	add    $0x10,%esp
   16476:	c7 45 f4 00 00 00 00 	movl   $0x0,-0xc(%ebp)
   1647d:	eb 24                	jmp    164a3 <user_f+0x74>
   1647f:	83 ec 0c             	sub    $0xc,%esp
   16482:	68 88 13 00 00       	push   $0x1388
   16487:	e8 32 15 00 00       	call   179be <sleep>
   1648c:	83 c4 10             	add    $0x10,%esp
   1648f:	0f be 45 f3          	movsbl -0xd(%ebp),%eax
   16493:	83 ec 0c             	sub    $0xc,%esp
   16496:	50                   	push   %eax
   16497:	e8 7c f7 ff ff       	call   15c18 <swritech>
   1649c:	83 c4 10             	add    $0x10,%esp
   1649f:	83 45 f4 01          	addl   $0x1,-0xc(%ebp)
   164a3:	83 7d f4 04          	cmpl   $0x4,-0xc(%ebp)
   164a7:	7e d6                	jle    1647f <user_f+0x50>
   164a9:	83 ec 0c             	sub    $0xc,%esp
   164ac:	6a 00                	push   $0x0
   164ae:	e8 d3 14 00 00       	call   17986 <exit>
   164b3:	83 c4 10             	add    $0x10,%esp
   164b6:	b8 00 00 00 00       	mov    $0x0,%eax
   164bb:	c9                   	leave  
   164bc:	c3                   	ret    

000164bd <user_g>:
   164bd:	55                   	push   %ebp
   164be:	89 e5                	mov    %esp,%ebp
   164c0:	83 ec 18             	sub    $0x18,%esp
   164c3:	83 7d 08 01          	cmpl   $0x1,0x8(%ebp)
   164c7:	7e 0d                	jle    164d6 <user_g+0x19>
   164c9:	8b 45 0c             	mov    0xc(%ebp),%eax
   164cc:	83 c0 04             	add    $0x4,%eax
   164cf:	8b 00                	mov    (%eax),%eax
   164d1:	0f b6 00             	movzbl (%eax),%eax
   164d4:	eb 05                	jmp    164db <user_g+0x1e>
   164d6:	b8 47 00 00 00       	mov    $0x47,%eax
   164db:	88 45 f3             	mov    %al,-0xd(%ebp)
   164de:	e8 eb 14 00 00       	call   179ce <pid>
   164e3:	0f b7 c0             	movzwl %ax,%eax
   164e6:	83 ec 08             	sub    $0x8,%esp
   164e9:	50                   	push   %eax
   164ea:	6a 47                	push   $0x47
   164ec:	e8 20 f2 ff ff       	call   15711 <report>
   164f1:	83 c4 10             	add    $0x10,%esp
   164f4:	0f be 45 f3          	movsbl -0xd(%ebp),%eax
   164f8:	83 ec 0c             	sub    $0xc,%esp
   164fb:	50                   	push   %eax
   164fc:	e8 17 f7 ff ff       	call   15c18 <swritech>
   16501:	83 c4 10             	add    $0x10,%esp
   16504:	c7 45 f4 00 00 00 00 	movl   $0x0,-0xc(%ebp)
   1650b:	eb 24                	jmp    16531 <user_g+0x74>
   1650d:	83 ec 0c             	sub    $0xc,%esp
   16510:	68 98 3a 00 00       	push   $0x3a98
   16515:	e8 a4 14 00 00       	call   179be <sleep>
   1651a:	83 c4 10             	add    $0x10,%esp
   1651d:	0f be 45 f3          	movsbl -0xd(%ebp),%eax
   16521:	83 ec 0c             	sub    $0xc,%esp
   16524:	50                   	push   %eax
   16525:	e8 ee f6 ff ff       	call   15c18 <swritech>
   1652a:	83 c4 10             	add    $0x10,%esp
   1652d:	83 45 f4 01          	addl   $0x1,-0xc(%ebp)
   16531:	83 7d f4 04          	cmpl   $0x4,-0xc(%ebp)
   16535:	7e d6                	jle    1650d <user_g+0x50>
   16537:	83 ec 0c             	sub    $0xc,%esp
   1653a:	6a 00                	push   $0x0
   1653c:	e8 45 14 00 00       	call   17986 <exit>
   16541:	83 c4 10             	add    $0x10,%esp
   16544:	b8 00 00 00 00       	mov    $0x0,%eax
   16549:	c9                   	leave  
   1654a:	c3                   	ret    

0001654b <user_h>:
   1654b:	55                   	push   %ebp
   1654c:	89 e5                	mov    %esp,%ebp
   1654e:	83 ec 18             	sub    $0x18,%esp
   16551:	83 7d 08 01          	cmpl   $0x1,0x8(%ebp)
   16555:	7e 0d                	jle    16564 <user_h+0x19>
   16557:	8b 45 0c             	mov    0xc(%ebp),%eax
   1655a:	83 c0 04             	add    $0x4,%eax
   1655d:	8b 00                	mov    (%eax),%eax
   1655f:	0f b6 00             	movzbl (%eax),%eax
   16562:	eb 05                	jmp    16569 <user_h+0x1e>
   16564:	b8 48 00 00 00       	mov    $0x48,%eax
   16569:	88 45 ef             	mov    %al,-0x11(%ebp)
   1656c:	0f be 45 ef          	movsbl -0x11(%ebp),%eax
   16570:	83 ec 0c             	sub    $0xc,%esp
   16573:	50                   	push   %eax
   16574:	e8 9f f6 ff ff       	call   15c18 <swritech>
   16579:	83 c4 10             	add    $0x10,%esp
   1657c:	c7 45 f4 00 00 00 00 	movl   $0x0,-0xc(%ebp)
   16583:	eb 2a                	jmp    165af <user_h+0x64>
   16585:	c7 45 f0 00 00 00 00 	movl   $0x0,-0x10(%ebp)
   1658c:	eb 04                	jmp    16592 <user_h+0x47>
   1658e:	83 45 f0 01          	addl   $0x1,-0x10(%ebp)
   16592:	81 7d f0 9f 25 26 00 	cmpl   $0x26259f,-0x10(%ebp)
   16599:	7e f3                	jle    1658e <user_h+0x43>
   1659b:	0f be 45 ef          	movsbl -0x11(%ebp),%eax
   1659f:	83 ec 0c             	sub    $0xc,%esp
   165a2:	50                   	push   %eax
   165a3:	e8 70 f6 ff ff       	call   15c18 <swritech>
   165a8:	83 c4 10             	add    $0x10,%esp
   165ab:	83 45 f4 01          	addl   $0x1,-0xc(%ebp)
   165af:	83 7d f4 04          	cmpl   $0x4,-0xc(%ebp)
   165b3:	7e d0                	jle    16585 <user_h+0x3a>
   165b5:	83 ec 0c             	sub    $0xc,%esp
   165b8:	68 cc 87 01 00       	push   $0x187cc
   165bd:	e8 11 f6 ff ff       	call   15bd3 <cwrites>
   165c2:	83 c4 10             	add    $0x10,%esp
   165c5:	b8 00 00 00 00       	mov    $0x0,%eax
   165ca:	c9                   	leave  
   165cb:	c3                   	ret    

000165cc <user_j>:
   165cc:	55                   	push   %ebp
   165cd:	89 e5                	mov    %esp,%ebp
   165cf:	83 ec 48             	sub    $0x48,%esp
   165d2:	c7 45 e4 00 00 00 00 	movl   $0x0,-0x1c(%ebp)
   165d9:	c7 45 e8 00 00 00 00 	movl   $0x0,-0x18(%ebp)
   165e0:	c7 45 ec 00 00 00 00 	movl   $0x0,-0x14(%ebp)
   165e7:	83 7d 08 01          	cmpl   $0x1,0x8(%ebp)
   165eb:	7e 0d                	jle    165fa <user_j+0x2e>
   165ed:	8b 45 0c             	mov    0xc(%ebp),%eax
   165f0:	83 c0 04             	add    $0x4,%eax
   165f3:	8b 00                	mov    (%eax),%eax
   165f5:	0f b6 00             	movzbl (%eax),%eax
   165f8:	eb 05                	jmp    165ff <user_j+0x33>
   165fa:	b8 4a 00 00 00       	mov    $0x4a,%eax
   165ff:	88 45 f3             	mov    %al,-0xd(%ebp)
   16602:	0f be 45 f3          	movsbl -0xd(%ebp),%eax
   16606:	83 ec 0c             	sub    $0xc,%esp
   16609:	50                   	push   %eax
   1660a:	e8 09 f6 ff ff       	call   15c18 <swritech>
   1660f:	83 c4 10             	add    $0x10,%esp
   16612:	c7 45 e4 ef 87 01 00 	movl   $0x187ef,-0x1c(%ebp)
   16619:	8d 45 c4             	lea    -0x3c(%ebp),%eax
   1661c:	89 45 e8             	mov    %eax,-0x18(%ebp)
   1661f:	c7 45 f4 00 00 00 00 	movl   $0x0,-0xc(%ebp)
   16626:	eb 40                	jmp    16668 <user_j+0x9c>
   16628:	83 ec 08             	sub    $0x8,%esp
   1662b:	ff 75 f4             	pushl  -0xc(%ebp)
   1662e:	8d 45 c4             	lea    -0x3c(%ebp),%eax
   16631:	50                   	push   %eax
   16632:	e8 04 f0 ff ff       	call   1563b <cvt_dec>
   16637:	83 c4 10             	add    $0x10,%esp
   1663a:	83 ec 04             	sub    $0x4,%esp
   1663d:	6a 03                	push   $0x3
   1663f:	8d 45 e4             	lea    -0x1c(%ebp),%eax
   16642:	50                   	push   %eax
   16643:	68 f2 73 01 00       	push   $0x173f2
   16648:	e8 31 f6 ff ff       	call   15c7e <spawn>
   1664d:	83 c4 10             	add    $0x10,%esp
   16650:	66 89 45 f0          	mov    %ax,-0x10(%ebp)
   16654:	0f be 45 f3          	movsbl -0xd(%ebp),%eax
   16658:	83 ec 0c             	sub    $0xc,%esp
   1665b:	50                   	push   %eax
   1665c:	e8 b7 f5 ff ff       	call   15c18 <swritech>
   16661:	83 c4 10             	add    $0x10,%esp
   16664:	83 45 f4 01          	addl   $0x1,-0xc(%ebp)
   16668:	83 7d f4 31          	cmpl   $0x31,-0xc(%ebp)
   1666c:	7e ba                	jle    16628 <user_j+0x5c>
   1666e:	83 ec 0c             	sub    $0xc,%esp
   16671:	6a 00                	push   $0x0
   16673:	e8 0e 13 00 00       	call   17986 <exit>
   16678:	83 c4 10             	add    $0x10,%esp
   1667b:	b8 00 00 00 00       	mov    $0x0,%eax
   16680:	c9                   	leave  
   16681:	c3                   	ret    

00016682 <user_k>:
   16682:	55                   	push   %ebp
   16683:	89 e5                	mov    %esp,%ebp
   16685:	83 ec 48             	sub    $0x48,%esp
   16688:	c7 45 e4 00 00 00 00 	movl   $0x0,-0x1c(%ebp)
   1668f:	c7 45 e8 00 00 00 00 	movl   $0x0,-0x18(%ebp)
   16696:	c7 45 ec 00 00 00 00 	movl   $0x0,-0x14(%ebp)
   1669d:	83 7d 08 01          	cmpl   $0x1,0x8(%ebp)
   166a1:	7e 0d                	jle    166b0 <user_k+0x2e>
   166a3:	8b 45 0c             	mov    0xc(%ebp),%eax
   166a6:	83 c0 04             	add    $0x4,%eax
   166a9:	8b 00                	mov    (%eax),%eax
   166ab:	0f b6 00             	movzbl (%eax),%eax
   166ae:	eb 05                	jmp    166b5 <user_k+0x33>
   166b0:	b8 4b 00 00 00       	mov    $0x4b,%eax
   166b5:	88 45 f3             	mov    %al,-0xd(%ebp)
   166b8:	0f be 45 f3          	movsbl -0xd(%ebp),%eax
   166bc:	83 ec 0c             	sub    $0xc,%esp
   166bf:	50                   	push   %eax
   166c0:	e8 53 f5 ff ff       	call   15c18 <swritech>
   166c5:	83 c4 10             	add    $0x10,%esp
   166c8:	c7 45 e4 f6 87 01 00 	movl   $0x187f6,-0x1c(%ebp)
   166cf:	8d 45 c4             	lea    -0x3c(%ebp),%eax
   166d2:	89 45 e8             	mov    %eax,-0x18(%ebp)
   166d5:	c7 45 f4 00 00 00 00 	movl   $0x0,-0xc(%ebp)
   166dc:	eb 50                	jmp    1672e <user_k+0xac>
   166de:	83 ec 08             	sub    $0x8,%esp
   166e1:	ff 75 f4             	pushl  -0xc(%ebp)
   166e4:	8d 45 c4             	lea    -0x3c(%ebp),%eax
   166e7:	50                   	push   %eax
   166e8:	e8 4e ef ff ff       	call   1563b <cvt_dec>
   166ed:	83 c4 10             	add    $0x10,%esp
   166f0:	0f be 45 f3          	movsbl -0xd(%ebp),%eax
   166f4:	83 ec 0c             	sub    $0xc,%esp
   166f7:	50                   	push   %eax
   166f8:	e8 1b f5 ff ff       	call   15c18 <swritech>
   166fd:	83 c4 10             	add    $0x10,%esp
   16700:	83 ec 04             	sub    $0x4,%esp
   16703:	6a 03                	push   $0x3
   16705:	8d 45 e4             	lea    -0x1c(%ebp),%eax
   16708:	50                   	push   %eax
   16709:	68 31 73 01 00       	push   $0x17331
   1670e:	e8 6b f5 ff ff       	call   15c7e <spawn>
   16713:	83 c4 10             	add    $0x10,%esp
   16716:	66 89 45 f0          	mov    %ax,-0x10(%ebp)
   1671a:	83 ec 0c             	sub    $0xc,%esp
   1671d:	68 30 75 00 00       	push   $0x7530
   16722:	e8 97 12 00 00       	call   179be <sleep>
   16727:	83 c4 10             	add    $0x10,%esp
   1672a:	83 45 f4 01          	addl   $0x1,-0xc(%ebp)
   1672e:	83 7d f4 04          	cmpl   $0x4,-0xc(%ebp)
   16732:	7e aa                	jle    166de <user_k+0x5c>
   16734:	83 ec 0c             	sub    $0xc,%esp
   16737:	6a 00                	push   $0x0
   16739:	e8 48 12 00 00       	call   17986 <exit>
   1673e:	83 c4 10             	add    $0x10,%esp
   16741:	b8 00 00 00 00       	mov    $0x0,%eax
   16746:	c9                   	leave  
   16747:	c3                   	ret    

00016748 <user_l>:
   16748:	55                   	push   %ebp
   16749:	89 e5                	mov    %esp,%ebp
   1674b:	83 ec 58             	sub    $0x58,%esp
   1674e:	c7 45 d4 00 00 00 00 	movl   $0x0,-0x2c(%ebp)
   16755:	c7 45 d8 00 00 00 00 	movl   $0x0,-0x28(%ebp)
   1675c:	c7 45 dc 00 00 00 00 	movl   $0x0,-0x24(%ebp)
   16763:	83 7d 08 01          	cmpl   $0x1,0x8(%ebp)
   16767:	7e 0d                	jle    16776 <user_l+0x2e>
   16769:	8b 45 0c             	mov    0xc(%ebp),%eax
   1676c:	83 c0 04             	add    $0x4,%eax
   1676f:	8b 00                	mov    (%eax),%eax
   16771:	0f b6 00             	movzbl (%eax),%eax
   16774:	eb 05                	jmp    1677b <user_l+0x33>
   16776:	b8 4c 00 00 00       	mov    $0x4c,%eax
   1677b:	88 45 f3             	mov    %al,-0xd(%ebp)
   1677e:	c7 45 d4 f6 87 01 00 	movl   $0x187f6,-0x2c(%ebp)
   16785:	8d 45 b4             	lea    -0x4c(%ebp),%eax
   16788:	89 45 d8             	mov    %eax,-0x28(%ebp)
   1678b:	e8 36 12 00 00       	call   179c6 <time>
   16790:	89 45 ec             	mov    %eax,-0x14(%ebp)
   16793:	83 ec 0c             	sub    $0xc,%esp
   16796:	68 fd 87 01 00       	push   $0x187fd
   1679b:	e8 33 f4 ff ff       	call   15bd3 <cwrites>
   167a0:	83 c4 10             	add    $0x10,%esp
   167a3:	83 ec 08             	sub    $0x8,%esp
   167a6:	ff 75 ec             	pushl  -0x14(%ebp)
   167a9:	8d 45 e2             	lea    -0x1e(%ebp),%eax
   167ac:	50                   	push   %eax
   167ad:	e8 d0 ee ff ff       	call   15682 <cvt_hex>
   167b2:	83 c4 10             	add    $0x10,%esp
   167b5:	89 45 f4             	mov    %eax,-0xc(%ebp)
   167b8:	8b 45 f4             	mov    -0xc(%ebp),%eax
   167bb:	83 ec 08             	sub    $0x8,%esp
   167be:	50                   	push   %eax
   167bf:	8d 45 e2             	lea    -0x1e(%ebp),%eax
   167c2:	50                   	push   %eax
   167c3:	e8 35 f4 ff ff       	call   15bfd <cwrite>
   167c8:	83 c4 10             	add    $0x10,%esp
   167cb:	83 ec 0c             	sub    $0xc,%esp
   167ce:	6a 0a                	push   $0xa
   167d0:	e8 dd f3 ff ff       	call   15bb2 <cwritech>
   167d5:	83 c4 10             	add    $0x10,%esp
   167d8:	0f be 45 f3          	movsbl -0xd(%ebp),%eax
   167dc:	83 ec 0c             	sub    $0xc,%esp
   167df:	50                   	push   %eax
   167e0:	e8 33 f4 ff ff       	call   15c18 <swritech>
   167e5:	83 c4 10             	add    $0x10,%esp
   167e8:	c7 45 f4 00 00 00 00 	movl   $0x0,-0xc(%ebp)
   167ef:	eb 51                	jmp    16842 <user_l+0xfa>
   167f1:	8b 45 f4             	mov    -0xc(%ebp),%eax
   167f4:	83 c0 64             	add    $0x64,%eax
   167f7:	83 ec 08             	sub    $0x8,%esp
   167fa:	50                   	push   %eax
   167fb:	8d 45 b4             	lea    -0x4c(%ebp),%eax
   167fe:	50                   	push   %eax
   167ff:	e8 37 ee ff ff       	call   1563b <cvt_dec>
   16804:	83 c4 10             	add    $0x10,%esp
   16807:	0f be 45 f3          	movsbl -0xd(%ebp),%eax
   1680b:	83 ec 0c             	sub    $0xc,%esp
   1680e:	50                   	push   %eax
   1680f:	e8 04 f4 ff ff       	call   15c18 <swritech>
   16814:	83 c4 10             	add    $0x10,%esp
   16817:	83 ec 04             	sub    $0x4,%esp
   1681a:	6a 03                	push   $0x3
   1681c:	8d 45 d4             	lea    -0x2c(%ebp),%eax
   1681f:	50                   	push   %eax
   16820:	68 31 73 01 00       	push   $0x17331
   16825:	e8 54 f4 ff ff       	call   15c7e <spawn>
   1682a:	83 c4 10             	add    $0x10,%esp
   1682d:	66 89 45 ea          	mov    %ax,-0x16(%ebp)
   16831:	83 ec 0c             	sub    $0xc,%esp
   16834:	6a 00                	push   $0x0
   16836:	e8 83 11 00 00       	call   179be <sleep>
   1683b:	83 c4 10             	add    $0x10,%esp
   1683e:	83 45 f4 01          	addl   $0x1,-0xc(%ebp)
   16842:	83 7d f4 04          	cmpl   $0x4,-0xc(%ebp)
   16846:	7e a9                	jle    167f1 <user_l+0xa9>
   16848:	e8 79 11 00 00       	call   179c6 <time>
   1684d:	89 45 ec             	mov    %eax,-0x14(%ebp)
   16850:	83 ec 0c             	sub    $0xc,%esp
   16853:	68 1b 88 01 00       	push   $0x1881b
   16858:	e8 76 f3 ff ff       	call   15bd3 <cwrites>
   1685d:	83 c4 10             	add    $0x10,%esp
   16860:	83 ec 08             	sub    $0x8,%esp
   16863:	ff 75 ec             	pushl  -0x14(%ebp)
   16866:	8d 45 e2             	lea    -0x1e(%ebp),%eax
   16869:	50                   	push   %eax
   1686a:	e8 13 ee ff ff       	call   15682 <cvt_hex>
   1686f:	83 c4 10             	add    $0x10,%esp
   16872:	89 45 f4             	mov    %eax,-0xc(%ebp)
   16875:	8b 45 f4             	mov    -0xc(%ebp),%eax
   16878:	83 ec 08             	sub    $0x8,%esp
   1687b:	50                   	push   %eax
   1687c:	8d 45 e2             	lea    -0x1e(%ebp),%eax
   1687f:	50                   	push   %eax
   16880:	e8 78 f3 ff ff       	call   15bfd <cwrite>
   16885:	83 c4 10             	add    $0x10,%esp
   16888:	83 ec 0c             	sub    $0xc,%esp
   1688b:	6a 0a                	push   $0xa
   1688d:	e8 20 f3 ff ff       	call   15bb2 <cwritech>
   16892:	83 c4 10             	add    $0x10,%esp
   16895:	83 ec 0c             	sub    $0xc,%esp
   16898:	6a 00                	push   $0x0
   1689a:	e8 e7 10 00 00       	call   17986 <exit>
   1689f:	83 c4 10             	add    $0x10,%esp
   168a2:	b8 00 00 00 00       	mov    $0x0,%eax
   168a7:	c9                   	leave  
   168a8:	c3                   	ret    

000168a9 <user_m>:
   168a9:	55                   	push   %ebp
   168aa:	89 e5                	mov    %esp,%ebp
   168ac:	83 ec 48             	sub    $0x48,%esp
   168af:	c7 45 d8 00 00 00 00 	movl   $0x0,-0x28(%ebp)
   168b6:	c7 45 dc 00 00 00 00 	movl   $0x0,-0x24(%ebp)
   168bd:	c7 45 e0 00 00 00 00 	movl   $0x0,-0x20(%ebp)
   168c4:	83 7d 08 01          	cmpl   $0x1,0x8(%ebp)
   168c8:	7e 0d                	jle    168d7 <user_m+0x2e>
   168ca:	8b 45 0c             	mov    0xc(%ebp),%eax
   168cd:	83 c0 04             	add    $0x4,%eax
   168d0:	8b 00                	mov    (%eax),%eax
   168d2:	0f b6 00             	movzbl (%eax),%eax
   168d5:	eb 05                	jmp    168dc <user_m+0x33>
   168d7:	b8 4d 00 00 00       	mov    $0x4d,%eax
   168dc:	88 45 f3             	mov    %al,-0xd(%ebp)
   168df:	c7 45 d8 31 88 01 00 	movl   $0x18831,-0x28(%ebp)
   168e6:	8d 45 b8             	lea    -0x48(%ebp),%eax
   168e9:	89 45 dc             	mov    %eax,-0x24(%ebp)
   168ec:	0f be 45 f3          	movsbl -0xd(%ebp),%eax
   168f0:	83 ec 0c             	sub    $0xc,%esp
   168f3:	50                   	push   %eax
   168f4:	e8 1f f3 ff ff       	call   15c18 <swritech>
   168f9:	83 c4 10             	add    $0x10,%esp
   168fc:	c7 45 f4 00 00 00 00 	movl   $0x0,-0xc(%ebp)
   16903:	e9 8b 00 00 00       	jmp    16993 <user_m+0xea>
   16908:	8b 45 f4             	mov    -0xc(%ebp),%eax
   1690b:	83 c0 0a             	add    $0xa,%eax
   1690e:	83 ec 08             	sub    $0x8,%esp
   16911:	50                   	push   %eax
   16912:	8d 45 b8             	lea    -0x48(%ebp),%eax
   16915:	50                   	push   %eax
   16916:	e8 20 ed ff ff       	call   1563b <cvt_dec>
   1691b:	83 c4 10             	add    $0x10,%esp
   1691e:	0f be 45 f3          	movsbl -0xd(%ebp),%eax
   16922:	83 ec 0c             	sub    $0xc,%esp
   16925:	50                   	push   %eax
   16926:	e8 ed f2 ff ff       	call   15c18 <swritech>
   1692b:	83 c4 10             	add    $0x10,%esp
   1692e:	83 ec 04             	sub    $0x4,%esp
   16931:	6a 02                	push   $0x2
   16933:	8d 45 d8             	lea    -0x28(%ebp),%eax
   16936:	50                   	push   %eax
   16937:	68 8c 72 01 00       	push   $0x1728c
   1693c:	e8 3d f3 ff ff       	call   15c7e <spawn>
   16941:	83 c4 10             	add    $0x10,%esp
   16944:	66 89 45 f0          	mov    %ax,-0x10(%ebp)
   16948:	83 ec 0c             	sub    $0xc,%esp
   1694b:	68 38 88 01 00       	push   $0x18838
   16950:	e8 7e f2 ff ff       	call   15bd3 <cwrites>
   16955:	83 c4 10             	add    $0x10,%esp
   16958:	0f b7 45 f0          	movzwl -0x10(%ebp),%eax
   1695c:	83 ec 08             	sub    $0x8,%esp
   1695f:	50                   	push   %eax
   16960:	8d 45 e4             	lea    -0x1c(%ebp),%eax
   16963:	50                   	push   %eax
   16964:	e8 d2 ec ff ff       	call   1563b <cvt_dec>
   16969:	83 c4 10             	add    $0x10,%esp
   1696c:	89 45 f4             	mov    %eax,-0xc(%ebp)
   1696f:	8b 45 f4             	mov    -0xc(%ebp),%eax
   16972:	83 ec 08             	sub    $0x8,%esp
   16975:	50                   	push   %eax
   16976:	8d 45 e4             	lea    -0x1c(%ebp),%eax
   16979:	50                   	push   %eax
   1697a:	e8 7e f2 ff ff       	call   15bfd <cwrite>
   1697f:	83 c4 10             	add    $0x10,%esp
   16982:	83 ec 0c             	sub    $0xc,%esp
   16985:	6a 0a                	push   $0xa
   16987:	e8 26 f2 ff ff       	call   15bb2 <cwritech>
   1698c:	83 c4 10             	add    $0x10,%esp
   1698f:	83 45 f4 01          	addl   $0x1,-0xc(%ebp)
   16993:	83 7d f4 04          	cmpl   $0x4,-0xc(%ebp)
   16997:	0f 8e 6b ff ff ff    	jle    16908 <user_m+0x5f>
   1699d:	83 ec 0c             	sub    $0xc,%esp
   169a0:	6a 00                	push   $0x0
   169a2:	e8 df 0f 00 00       	call   17986 <exit>
   169a7:	83 c4 10             	add    $0x10,%esp
   169aa:	b8 00 00 00 00       	mov    $0x0,%eax
   169af:	c9                   	leave  
   169b0:	c3                   	ret    

000169b1 <user_n>:
   169b1:	55                   	push   %ebp
   169b2:	89 e5                	mov    %esp,%ebp
   169b4:	83 ec 48             	sub    $0x48,%esp
   169b7:	c7 45 d8 00 00 00 00 	movl   $0x0,-0x28(%ebp)
   169be:	c7 45 dc 00 00 00 00 	movl   $0x0,-0x24(%ebp)
   169c5:	c7 45 e0 00 00 00 00 	movl   $0x0,-0x20(%ebp)
   169cc:	83 7d 08 01          	cmpl   $0x1,0x8(%ebp)
   169d0:	7e 0d                	jle    169df <user_n+0x2e>
   169d2:	8b 45 0c             	mov    0xc(%ebp),%eax
   169d5:	83 c0 04             	add    $0x4,%eax
   169d8:	8b 00                	mov    (%eax),%eax
   169da:	0f b6 00             	movzbl (%eax),%eax
   169dd:	eb 05                	jmp    169e4 <user_n+0x33>
   169df:	b8 4e 00 00 00       	mov    $0x4e,%eax
   169e4:	88 45 f3             	mov    %al,-0xd(%ebp)
   169e7:	8d 45 b8             	lea    -0x48(%ebp),%eax
   169ea:	89 45 dc             	mov    %eax,-0x24(%ebp)
   169ed:	0f be 45 f3          	movsbl -0xd(%ebp),%eax
   169f1:	83 ec 0c             	sub    $0xc,%esp
   169f4:	50                   	push   %eax
   169f5:	e8 1e f2 ff ff       	call   15c18 <swritech>
   169fa:	83 c4 10             	add    $0x10,%esp
   169fd:	c7 45 f4 00 00 00 00 	movl   $0x0,-0xc(%ebp)
   16a04:	e9 fc 00 00 00       	jmp    16b05 <user_n+0x154>
   16a09:	8b 45 f4             	mov    -0xc(%ebp),%eax
   16a0c:	05 e8 03 00 00       	add    $0x3e8,%eax
   16a11:	83 ec 08             	sub    $0x8,%esp
   16a14:	50                   	push   %eax
   16a15:	8d 45 b8             	lea    -0x48(%ebp),%eax
   16a18:	50                   	push   %eax
   16a19:	e8 1d ec ff ff       	call   1563b <cvt_dec>
   16a1e:	83 c4 10             	add    $0x10,%esp
   16a21:	c7 45 d8 31 88 01 00 	movl   $0x18831,-0x28(%ebp)
   16a28:	0f be 45 f3          	movsbl -0xd(%ebp),%eax
   16a2c:	83 ec 0c             	sub    $0xc,%esp
   16a2f:	50                   	push   %eax
   16a30:	e8 e3 f1 ff ff       	call   15c18 <swritech>
   16a35:	83 c4 10             	add    $0x10,%esp
   16a38:	83 ec 04             	sub    $0x4,%esp
   16a3b:	6a 03                	push   $0x3
   16a3d:	8d 45 d8             	lea    -0x28(%ebp),%eax
   16a40:	50                   	push   %eax
   16a41:	68 8c 72 01 00       	push   $0x1728c
   16a46:	e8 33 f2 ff ff       	call   15c7e <spawn>
   16a4b:	83 c4 10             	add    $0x10,%esp
   16a4e:	66 89 45 f0          	mov    %ax,-0x10(%ebp)
   16a52:	83 ec 0c             	sub    $0xc,%esp
   16a55:	68 4a 88 01 00       	push   $0x1884a
   16a5a:	e8 74 f1 ff ff       	call   15bd3 <cwrites>
   16a5f:	83 c4 10             	add    $0x10,%esp
   16a62:	0f b7 45 f0          	movzwl -0x10(%ebp),%eax
   16a66:	83 ec 08             	sub    $0x8,%esp
   16a69:	50                   	push   %eax
   16a6a:	8d 45 e4             	lea    -0x1c(%ebp),%eax
   16a6d:	50                   	push   %eax
   16a6e:	e8 c8 eb ff ff       	call   1563b <cvt_dec>
   16a73:	83 c4 10             	add    $0x10,%esp
   16a76:	89 45 f4             	mov    %eax,-0xc(%ebp)
   16a79:	8b 45 f4             	mov    -0xc(%ebp),%eax
   16a7c:	83 ec 08             	sub    $0x8,%esp
   16a7f:	50                   	push   %eax
   16a80:	8d 45 e4             	lea    -0x1c(%ebp),%eax
   16a83:	50                   	push   %eax
   16a84:	e8 74 f1 ff ff       	call   15bfd <cwrite>
   16a89:	83 c4 10             	add    $0x10,%esp
   16a8c:	83 ec 0c             	sub    $0xc,%esp
   16a8f:	6a 0a                	push   $0xa
   16a91:	e8 1c f1 ff ff       	call   15bb2 <cwritech>
   16a96:	83 c4 10             	add    $0x10,%esp
   16a99:	c7 45 d8 c2 87 01 00 	movl   $0x187c2,-0x28(%ebp)
   16aa0:	83 ec 04             	sub    $0x4,%esp
   16aa3:	6a 03                	push   $0x3
   16aa5:	8d 45 d8             	lea    -0x28(%ebp),%eax
   16aa8:	50                   	push   %eax
   16aa9:	68 69 74 01 00       	push   $0x17469
   16aae:	e8 cb f1 ff ff       	call   15c7e <spawn>
   16ab3:	83 c4 10             	add    $0x10,%esp
   16ab6:	66 89 45 f0          	mov    %ax,-0x10(%ebp)
   16aba:	83 ec 0c             	sub    $0xc,%esp
   16abd:	68 61 88 01 00       	push   $0x18861
   16ac2:	e8 0c f1 ff ff       	call   15bd3 <cwrites>
   16ac7:	83 c4 10             	add    $0x10,%esp
   16aca:	0f b7 45 f0          	movzwl -0x10(%ebp),%eax
   16ace:	83 ec 08             	sub    $0x8,%esp
   16ad1:	50                   	push   %eax
   16ad2:	8d 45 e4             	lea    -0x1c(%ebp),%eax
   16ad5:	50                   	push   %eax
   16ad6:	e8 60 eb ff ff       	call   1563b <cvt_dec>
   16adb:	83 c4 10             	add    $0x10,%esp
   16ade:	89 45 f4             	mov    %eax,-0xc(%ebp)
   16ae1:	8b 45 f4             	mov    -0xc(%ebp),%eax
   16ae4:	83 ec 08             	sub    $0x8,%esp
   16ae7:	50                   	push   %eax
   16ae8:	8d 45 e4             	lea    -0x1c(%ebp),%eax
   16aeb:	50                   	push   %eax
   16aec:	e8 0c f1 ff ff       	call   15bfd <cwrite>
   16af1:	83 c4 10             	add    $0x10,%esp
   16af4:	83 ec 0c             	sub    $0xc,%esp
   16af7:	6a 0a                	push   $0xa
   16af9:	e8 b4 f0 ff ff       	call   15bb2 <cwritech>
   16afe:	83 c4 10             	add    $0x10,%esp
   16b01:	83 45 f4 01          	addl   $0x1,-0xc(%ebp)
   16b05:	83 7d f4 04          	cmpl   $0x4,-0xc(%ebp)
   16b09:	0f 8e fa fe ff ff    	jle    16a09 <user_n+0x58>
   16b0f:	83 ec 0c             	sub    $0xc,%esp
   16b12:	6a 00                	push   $0x0
   16b14:	e8 6d 0e 00 00       	call   17986 <exit>
   16b19:	83 c4 10             	add    $0x10,%esp
   16b1c:	b8 00 00 00 00       	mov    $0x0,%eax
   16b21:	c9                   	leave  
   16b22:	c3                   	ret    

00016b23 <user_p>:
   16b23:	55                   	push   %ebp
   16b24:	89 e5                	mov    %esp,%ebp
   16b26:	83 ec 28             	sub    $0x28,%esp
   16b29:	83 7d 08 01          	cmpl   $0x1,0x8(%ebp)
   16b2d:	7e 0d                	jle    16b3c <user_p+0x19>
   16b2f:	8b 45 0c             	mov    0xc(%ebp),%eax
   16b32:	83 c0 04             	add    $0x4,%eax
   16b35:	8b 00                	mov    (%eax),%eax
   16b37:	0f b6 00             	movzbl (%eax),%eax
   16b3a:	eb 05                	jmp    16b41 <user_p+0x1e>
   16b3c:	b8 50 00 00 00       	mov    $0x50,%eax
   16b41:	88 45 f3             	mov    %al,-0xd(%ebp)
   16b44:	83 ec 0c             	sub    $0xc,%esp
   16b47:	68 78 88 01 00       	push   $0x18878
   16b4c:	e8 82 f0 ff ff       	call   15bd3 <cwrites>
   16b51:	83 c4 10             	add    $0x10,%esp
   16b54:	e8 6d 0e 00 00       	call   179c6 <time>
   16b59:	89 45 ec             	mov    %eax,-0x14(%ebp)
   16b5c:	83 ec 08             	sub    $0x8,%esp
   16b5f:	ff 75 ec             	pushl  -0x14(%ebp)
   16b62:	8d 45 e4             	lea    -0x1c(%ebp),%eax
   16b65:	50                   	push   %eax
   16b66:	e8 17 eb ff ff       	call   15682 <cvt_hex>
   16b6b:	83 c4 10             	add    $0x10,%esp
   16b6e:	89 45 f4             	mov    %eax,-0xc(%ebp)
   16b71:	8b 45 f4             	mov    -0xc(%ebp),%eax
   16b74:	83 ec 08             	sub    $0x8,%esp
   16b77:	50                   	push   %eax
   16b78:	8d 45 e4             	lea    -0x1c(%ebp),%eax
   16b7b:	50                   	push   %eax
   16b7c:	e8 7c f0 ff ff       	call   15bfd <cwrite>
   16b81:	83 c4 10             	add    $0x10,%esp
   16b84:	83 ec 0c             	sub    $0xc,%esp
   16b87:	6a 0a                	push   $0xa
   16b89:	e8 24 f0 ff ff       	call   15bb2 <cwritech>
   16b8e:	83 c4 10             	add    $0x10,%esp
   16b91:	0f be 45 f3          	movsbl -0xd(%ebp),%eax
   16b95:	83 ec 0c             	sub    $0xc,%esp
   16b98:	50                   	push   %eax
   16b99:	e8 7a f0 ff ff       	call   15c18 <swritech>
   16b9e:	83 c4 10             	add    $0x10,%esp
   16ba1:	c7 45 f4 00 00 00 00 	movl   $0x0,-0xc(%ebp)
   16ba8:	eb 71                	jmp    16c1b <user_p+0xf8>
   16baa:	83 ec 0c             	sub    $0xc,%esp
   16bad:	68 d0 07 00 00       	push   $0x7d0
   16bb2:	e8 07 0e 00 00       	call   179be <sleep>
   16bb7:	83 c4 10             	add    $0x10,%esp
   16bba:	e8 07 0e 00 00       	call   179c6 <time>
   16bbf:	89 45 ec             	mov    %eax,-0x14(%ebp)
   16bc2:	83 ec 0c             	sub    $0xc,%esp
   16bc5:	68 92 88 01 00       	push   $0x18892
   16bca:	e8 04 f0 ff ff       	call   15bd3 <cwrites>
   16bcf:	83 c4 10             	add    $0x10,%esp
   16bd2:	83 ec 08             	sub    $0x8,%esp
   16bd5:	ff 75 ec             	pushl  -0x14(%ebp)
   16bd8:	8d 45 e4             	lea    -0x1c(%ebp),%eax
   16bdb:	50                   	push   %eax
   16bdc:	e8 a1 ea ff ff       	call   15682 <cvt_hex>
   16be1:	83 c4 10             	add    $0x10,%esp
   16be4:	89 45 f4             	mov    %eax,-0xc(%ebp)
   16be7:	8b 45 f4             	mov    -0xc(%ebp),%eax
   16bea:	83 ec 08             	sub    $0x8,%esp
   16bed:	50                   	push   %eax
   16bee:	8d 45 e4             	lea    -0x1c(%ebp),%eax
   16bf1:	50                   	push   %eax
   16bf2:	e8 06 f0 ff ff       	call   15bfd <cwrite>
   16bf7:	83 c4 10             	add    $0x10,%esp
   16bfa:	83 ec 0c             	sub    $0xc,%esp
   16bfd:	6a 0a                	push   $0xa
   16bff:	e8 ae ef ff ff       	call   15bb2 <cwritech>
   16c04:	83 c4 10             	add    $0x10,%esp
   16c07:	0f be 45 f3          	movsbl -0xd(%ebp),%eax
   16c0b:	83 ec 0c             	sub    $0xc,%esp
   16c0e:	50                   	push   %eax
   16c0f:	e8 04 f0 ff ff       	call   15c18 <swritech>
   16c14:	83 c4 10             	add    $0x10,%esp
   16c17:	83 45 f4 01          	addl   $0x1,-0xc(%ebp)
   16c1b:	83 7d f4 02          	cmpl   $0x2,-0xc(%ebp)
   16c1f:	7e 89                	jle    16baa <user_p+0x87>
   16c21:	83 ec 0c             	sub    $0xc,%esp
   16c24:	6a 00                	push   $0x0
   16c26:	e8 5b 0d 00 00       	call   17986 <exit>
   16c2b:	83 c4 10             	add    $0x10,%esp
   16c2e:	b8 00 00 00 00       	mov    $0x0,%eax
   16c33:	c9                   	leave  
   16c34:	c3                   	ret    

00016c35 <user_q>:
   16c35:	55                   	push   %ebp
   16c36:	89 e5                	mov    %esp,%ebp
   16c38:	83 ec 18             	sub    $0x18,%esp
   16c3b:	83 7d 08 01          	cmpl   $0x1,0x8(%ebp)
   16c3f:	7e 0d                	jle    16c4e <user_q+0x19>
   16c41:	8b 45 0c             	mov    0xc(%ebp),%eax
   16c44:	83 c0 04             	add    $0x4,%eax
   16c47:	8b 00                	mov    (%eax),%eax
   16c49:	0f b6 00             	movzbl (%eax),%eax
   16c4c:	eb 05                	jmp    16c53 <user_q+0x1e>
   16c4e:	b8 51 00 00 00       	mov    $0x51,%eax
   16c53:	88 45 f7             	mov    %al,-0x9(%ebp)
   16c56:	0f be 45 f7          	movsbl -0x9(%ebp),%eax
   16c5a:	83 ec 0c             	sub    $0xc,%esp
   16c5d:	50                   	push   %eax
   16c5e:	e8 b5 ef ff ff       	call   15c18 <swritech>
   16c63:	83 c4 10             	add    $0x10,%esp
   16c66:	e8 8b 0d 00 00       	call   179f6 <bogus>
   16c6b:	83 ec 0c             	sub    $0xc,%esp
   16c6e:	68 ac 88 01 00       	push   $0x188ac
   16c73:	e8 5b ef ff ff       	call   15bd3 <cwrites>
   16c78:	83 c4 10             	add    $0x10,%esp
   16c7b:	83 ec 0c             	sub    $0xc,%esp
   16c7e:	6a 01                	push   $0x1
   16c80:	e8 01 0d 00 00       	call   17986 <exit>
   16c85:	83 c4 10             	add    $0x10,%esp
   16c88:	b8 00 00 00 00       	mov    $0x0,%eax
   16c8d:	c9                   	leave  
   16c8e:	c3                   	ret    

00016c8f <user_r>:
   16c8f:	55                   	push   %ebp
   16c90:	89 e5                	mov    %esp,%ebp
   16c92:	83 ec 28             	sub    $0x28,%esp
   16c95:	83 7d 08 01          	cmpl   $0x1,0x8(%ebp)
   16c99:	7e 0d                	jle    16ca8 <user_r+0x19>
   16c9b:	8b 45 0c             	mov    0xc(%ebp),%eax
   16c9e:	83 c0 04             	add    $0x4,%eax
   16ca1:	8b 00                	mov    (%eax),%eax
   16ca3:	0f b6 00             	movzbl (%eax),%eax
   16ca6:	eb 05                	jmp    16cad <user_r+0x1e>
   16ca8:	b8 52 00 00 00       	mov    $0x52,%eax
   16cad:	88 45 f7             	mov    %al,-0x9(%ebp)
   16cb0:	0f be 45 f7          	movsbl -0x9(%ebp),%eax
   16cb4:	83 ec 0c             	sub    $0xc,%esp
   16cb7:	50                   	push   %eax
   16cb8:	e8 5b ef ff ff       	call   15c18 <swritech>
   16cbd:	83 c4 10             	add    $0x10,%esp
   16cc0:	83 ec 0c             	sub    $0xc,%esp
   16cc3:	68 10 27 00 00       	push   $0x2710
   16cc8:	e8 f1 0c 00 00       	call   179be <sleep>
   16ccd:	83 c4 10             	add    $0x10,%esp
   16cd0:	c7 45 f0 00 00 00 00 	movl   $0x0,-0x10(%ebp)
   16cd7:	e9 99 00 00 00       	jmp    16d75 <user_r+0xe6>
   16cdc:	0f be 45 f7          	movsbl -0x9(%ebp),%eax
   16ce0:	83 ec 0c             	sub    $0xc,%esp
   16ce3:	50                   	push   %eax
   16ce4:	e8 2f ef ff ff       	call   15c18 <swritech>
   16ce9:	83 c4 10             	add    $0x10,%esp
   16cec:	e8 8b ee ff ff       	call   15b7c <sreadch>
   16cf1:	88 45 f7             	mov    %al,-0x9(%ebp)
   16cf4:	80 7d f7 00          	cmpb   $0x0,-0x9(%ebp)
   16cf8:	79 5d                	jns    16d57 <user_r+0xc8>
   16cfa:	83 ec 0c             	sub    $0xc,%esp
   16cfd:	68 d5 88 01 00       	push   $0x188d5
   16d02:	e8 cc ee ff ff       	call   15bd3 <cwrites>
   16d07:	83 c4 10             	add    $0x10,%esp
   16d0a:	0f be 45 f7          	movsbl -0x9(%ebp),%eax
   16d0e:	83 ec 08             	sub    $0x8,%esp
   16d11:	50                   	push   %eax
   16d12:	8d 45 e0             	lea    -0x20(%ebp),%eax
   16d15:	50                   	push   %eax
   16d16:	e8 20 e9 ff ff       	call   1563b <cvt_dec>
   16d1b:	83 c4 10             	add    $0x10,%esp
   16d1e:	89 45 ec             	mov    %eax,-0x14(%ebp)
   16d21:	8b 45 ec             	mov    -0x14(%ebp),%eax
   16d24:	83 ec 08             	sub    $0x8,%esp
   16d27:	50                   	push   %eax
   16d28:	8d 45 e0             	lea    -0x20(%ebp),%eax
   16d2b:	50                   	push   %eax
   16d2c:	e8 cc ee ff ff       	call   15bfd <cwrite>
   16d31:	83 c4 10             	add    $0x10,%esp
   16d34:	83 ec 0c             	sub    $0xc,%esp
   16d37:	6a 0a                	push   $0xa
   16d39:	e8 74 ee ff ff       	call   15bb2 <cwritech>
   16d3e:	83 c4 10             	add    $0x10,%esp
   16d41:	80 7d f7 ff          	cmpb   $0xff,-0x9(%ebp)
   16d45:	75 10                	jne    16d57 <user_r+0xc8>
   16d47:	83 ec 0c             	sub    $0xc,%esp
   16d4a:	68 e8 03 00 00       	push   $0x3e8
   16d4f:	e8 6a 0c 00 00       	call   179be <sleep>
   16d54:	83 c4 10             	add    $0x10,%esp
   16d57:	80 7d f7 00          	cmpb   $0x0,-0x9(%ebp)
   16d5b:	0f 88 7b ff ff ff    	js     16cdc <user_r+0x4d>
   16d61:	0f be 45 f7          	movsbl -0x9(%ebp),%eax
   16d65:	83 ec 0c             	sub    $0xc,%esp
   16d68:	50                   	push   %eax
   16d69:	e8 aa ee ff ff       	call   15c18 <swritech>
   16d6e:	83 c4 10             	add    $0x10,%esp
   16d71:	83 45 f0 01          	addl   $0x1,-0x10(%ebp)
   16d75:	83 7d f0 02          	cmpl   $0x2,-0x10(%ebp)
   16d79:	0f 8e 5d ff ff ff    	jle    16cdc <user_r+0x4d>
   16d7f:	83 ec 0c             	sub    $0xc,%esp
   16d82:	6a 00                	push   $0x0
   16d84:	e8 fd 0b 00 00       	call   17986 <exit>
   16d89:	83 c4 10             	add    $0x10,%esp
   16d8c:	b8 00 00 00 00       	mov    $0x0,%eax
   16d91:	c9                   	leave  
   16d92:	c3                   	ret    

00016d93 <user_s>:
   16d93:	55                   	push   %ebp
   16d94:	89 e5                	mov    %esp,%ebp
   16d96:	83 ec 18             	sub    $0x18,%esp
   16d99:	83 7d 08 01          	cmpl   $0x1,0x8(%ebp)
   16d9d:	7e 0d                	jle    16dac <user_s+0x19>
   16d9f:	8b 45 0c             	mov    0xc(%ebp),%eax
   16da2:	83 c0 04             	add    $0x4,%eax
   16da5:	8b 00                	mov    (%eax),%eax
   16da7:	0f b6 00             	movzbl (%eax),%eax
   16daa:	eb 05                	jmp    16db1 <user_s+0x1e>
   16dac:	b8 53 00 00 00       	mov    $0x53,%eax
   16db1:	88 45 f7             	mov    %al,-0x9(%ebp)
   16db4:	0f be 45 f7          	movsbl -0x9(%ebp),%eax
   16db8:	83 ec 0c             	sub    $0xc,%esp
   16dbb:	50                   	push   %eax
   16dbc:	e8 57 ee ff ff       	call   15c18 <swritech>
   16dc1:	83 c4 10             	add    $0x10,%esp
   16dc4:	83 ec 0c             	sub    $0xc,%esp
   16dc7:	68 20 4e 00 00       	push   $0x4e20
   16dcc:	e8 ed 0b 00 00       	call   179be <sleep>
   16dd1:	83 c4 10             	add    $0x10,%esp
   16dd4:	0f be 45 f7          	movsbl -0x9(%ebp),%eax
   16dd8:	83 ec 0c             	sub    $0xc,%esp
   16ddb:	50                   	push   %eax
   16ddc:	e8 37 ee ff ff       	call   15c18 <swritech>
   16de1:	83 c4 10             	add    $0x10,%esp
   16de4:	eb de                	jmp    16dc4 <user_s+0x31>

00016de6 <user_t>:
   16de6:	55                   	push   %ebp
   16de7:	89 e5                	mov    %esp,%ebp
   16de9:	83 ec 68             	sub    $0x68,%esp
   16dec:	c7 45 c4 00 00 00 00 	movl   $0x0,-0x3c(%ebp)
   16df3:	c7 45 c8 00 00 00 00 	movl   $0x0,-0x38(%ebp)
   16dfa:	c7 45 cc 00 00 00 00 	movl   $0x0,-0x34(%ebp)
   16e01:	83 7d 08 01          	cmpl   $0x1,0x8(%ebp)
   16e05:	7e 0d                	jle    16e14 <user_t+0x2e>
   16e07:	8b 45 0c             	mov    0xc(%ebp),%eax
   16e0a:	83 c0 04             	add    $0x4,%eax
   16e0d:	8b 00                	mov    (%eax),%eax
   16e0f:	0f b6 00             	movzbl (%eax),%eax
   16e12:	eb 05                	jmp    16e19 <user_t+0x33>
   16e14:	b8 54 00 00 00       	mov    $0x54,%eax
   16e19:	88 45 f3             	mov    %al,-0xd(%ebp)
   16e1c:	c7 45 c4 31 88 01 00 	movl   $0x18831,-0x3c(%ebp)
   16e23:	8d 45 a4             	lea    -0x5c(%ebp),%eax
   16e26:	89 45 c8             	mov    %eax,-0x38(%ebp)
   16e29:	0f be 45 f3          	movsbl -0xd(%ebp),%eax
   16e2d:	83 ec 0c             	sub    $0xc,%esp
   16e30:	50                   	push   %eax
   16e31:	e8 e2 ed ff ff       	call   15c18 <swritech>
   16e36:	83 c4 10             	add    $0x10,%esp
   16e39:	c7 45 f4 00 00 00 00 	movl   $0x0,-0xc(%ebp)
   16e40:	eb 4a                	jmp    16e8c <user_t+0xa6>
   16e42:	8b 45 f4             	mov    -0xc(%ebp),%eax
   16e45:	83 c0 14             	add    $0x14,%eax
   16e48:	83 ec 08             	sub    $0x8,%esp
   16e4b:	50                   	push   %eax
   16e4c:	8d 45 a4             	lea    -0x5c(%ebp),%eax
   16e4f:	50                   	push   %eax
   16e50:	e8 e6 e7 ff ff       	call   1563b <cvt_dec>
   16e55:	83 c4 10             	add    $0x10,%esp
   16e58:	83 ec 04             	sub    $0x4,%esp
   16e5b:	6a 03                	push   $0x3
   16e5d:	8d 45 c4             	lea    -0x3c(%ebp),%eax
   16e60:	50                   	push   %eax
   16e61:	68 8c 72 01 00       	push   $0x1728c
   16e66:	e8 13 ee ff ff       	call   15c7e <spawn>
   16e6b:	83 c4 10             	add    $0x10,%esp
   16e6e:	89 c2                	mov    %eax,%edx
   16e70:	8b 45 f4             	mov    -0xc(%ebp),%eax
   16e73:	66 89 54 45 de       	mov    %dx,-0x22(%ebp,%eax,2)
   16e78:	0f be 45 f3          	movsbl -0xd(%ebp),%eax
   16e7c:	83 ec 0c             	sub    $0xc,%esp
   16e7f:	50                   	push   %eax
   16e80:	e8 93 ed ff ff       	call   15c18 <swritech>
   16e85:	83 c4 10             	add    $0x10,%esp
   16e88:	83 45 f4 01          	addl   $0x1,-0xc(%ebp)
   16e8c:	83 7d f4 02          	cmpl   $0x2,-0xc(%ebp)
   16e90:	7e b0                	jle    16e42 <user_t+0x5c>
   16e92:	83 ec 0c             	sub    $0xc,%esp
   16e95:	68 40 1f 00 00       	push   $0x1f40
   16e9a:	e8 1f 0b 00 00       	call   179be <sleep>
   16e9f:	83 c4 10             	add    $0x10,%esp
   16ea2:	83 ec 0c             	sub    $0xc,%esp
   16ea5:	8d 45 a0             	lea    -0x60(%ebp),%eax
   16ea8:	50                   	push   %eax
   16ea9:	e8 08 0b 00 00       	call   179b6 <wait>
   16eae:	83 c4 10             	add    $0x10,%esp
   16eb1:	66 89 45 f0          	mov    %ax,-0x10(%ebp)
   16eb5:	66 83 7d f0 00       	cmpw   $0x0,-0x10(%ebp)
   16eba:	74 4c                	je     16f08 <user_t+0x122>
   16ebc:	83 ec 0c             	sub    $0xc,%esp
   16ebf:	68 ec 88 01 00       	push   $0x188ec
   16ec4:	e8 0a ed ff ff       	call   15bd3 <cwrites>
   16ec9:	83 c4 10             	add    $0x10,%esp
   16ecc:	0f b7 45 f0          	movzwl -0x10(%ebp),%eax
   16ed0:	83 ec 08             	sub    $0x8,%esp
   16ed3:	50                   	push   %eax
   16ed4:	8d 45 d2             	lea    -0x2e(%ebp),%eax
   16ed7:	50                   	push   %eax
   16ed8:	e8 5e e7 ff ff       	call   1563b <cvt_dec>
   16edd:	83 c4 10             	add    $0x10,%esp
   16ee0:	89 45 e4             	mov    %eax,-0x1c(%ebp)
   16ee3:	8b 45 e4             	mov    -0x1c(%ebp),%eax
   16ee6:	83 ec 08             	sub    $0x8,%esp
   16ee9:	50                   	push   %eax
   16eea:	8d 45 d2             	lea    -0x2e(%ebp),%eax
   16eed:	50                   	push   %eax
   16eee:	e8 0a ed ff ff       	call   15bfd <cwrite>
   16ef3:	83 c4 10             	add    $0x10,%esp
   16ef6:	83 ec 0c             	sub    $0xc,%esp
   16ef9:	6a 0a                	push   $0xa
   16efb:	e8 b2 ec ff ff       	call   15bb2 <cwritech>
   16f00:	83 c4 10             	add    $0x10,%esp
   16f03:	e9 85 00 00 00       	jmp    16f8d <user_t+0x1a7>
   16f08:	83 ec 0c             	sub    $0xc,%esp
   16f0b:	68 03 89 01 00       	push   $0x18903
   16f10:	e8 be ec ff ff       	call   15bd3 <cwrites>
   16f15:	83 c4 10             	add    $0x10,%esp
   16f18:	0f b7 45 f0          	movzwl -0x10(%ebp),%eax
   16f1c:	83 ec 08             	sub    $0x8,%esp
   16f1f:	50                   	push   %eax
   16f20:	8d 45 d2             	lea    -0x2e(%ebp),%eax
   16f23:	50                   	push   %eax
   16f24:	e8 12 e7 ff ff       	call   1563b <cvt_dec>
   16f29:	83 c4 10             	add    $0x10,%esp
   16f2c:	89 45 ec             	mov    %eax,-0x14(%ebp)
   16f2f:	8b 45 ec             	mov    -0x14(%ebp),%eax
   16f32:	83 ec 08             	sub    $0x8,%esp
   16f35:	50                   	push   %eax
   16f36:	8d 45 d2             	lea    -0x2e(%ebp),%eax
   16f39:	50                   	push   %eax
   16f3a:	e8 be ec ff ff       	call   15bfd <cwrite>
   16f3f:	83 c4 10             	add    $0x10,%esp
   16f42:	83 ec 0c             	sub    $0xc,%esp
   16f45:	68 16 89 01 00       	push   $0x18916
   16f4a:	e8 84 ec ff ff       	call   15bd3 <cwrites>
   16f4f:	83 c4 10             	add    $0x10,%esp
   16f52:	8b 45 a0             	mov    -0x60(%ebp),%eax
   16f55:	83 ec 08             	sub    $0x8,%esp
   16f58:	50                   	push   %eax
   16f59:	8d 45 d2             	lea    -0x2e(%ebp),%eax
   16f5c:	50                   	push   %eax
   16f5d:	e8 d9 e6 ff ff       	call   1563b <cvt_dec>
   16f62:	83 c4 10             	add    $0x10,%esp
   16f65:	89 45 e8             	mov    %eax,-0x18(%ebp)
   16f68:	8b 45 e8             	mov    -0x18(%ebp),%eax
   16f6b:	83 ec 08             	sub    $0x8,%esp
   16f6e:	50                   	push   %eax
   16f6f:	8d 45 d2             	lea    -0x2e(%ebp),%eax
   16f72:	50                   	push   %eax
   16f73:	e8 85 ec ff ff       	call   15bfd <cwrite>
   16f78:	83 c4 10             	add    $0x10,%esp
   16f7b:	83 ec 0c             	sub    $0xc,%esp
   16f7e:	6a 0a                	push   $0xa
   16f80:	e8 2d ec ff ff       	call   15bb2 <cwritech>
   16f85:	83 c4 10             	add    $0x10,%esp
   16f88:	e9 15 ff ff ff       	jmp    16ea2 <user_t+0xbc>
   16f8d:	83 ec 0c             	sub    $0xc,%esp
   16f90:	6a 00                	push   $0x0
   16f92:	e8 ef 09 00 00       	call   17986 <exit>
   16f97:	83 c4 10             	add    $0x10,%esp
   16f9a:	b8 00 00 00 00       	mov    $0x0,%eax
   16f9f:	c9                   	leave  
   16fa0:	c3                   	ret    

00016fa1 <user_u>:
   16fa1:	55                   	push   %ebp
   16fa2:	89 e5                	mov    %esp,%ebp
   16fa4:	83 ec 78             	sub    $0x78,%esp
   16fa7:	c7 45 b0 00 00 00 00 	movl   $0x0,-0x50(%ebp)
   16fae:	c7 45 b4 00 00 00 00 	movl   $0x0,-0x4c(%ebp)
   16fb5:	c7 45 b8 00 00 00 00 	movl   $0x0,-0x48(%ebp)
   16fbc:	83 7d 08 01          	cmpl   $0x1,0x8(%ebp)
   16fc0:	7e 0d                	jle    16fcf <user_u+0x2e>
   16fc2:	8b 45 0c             	mov    0xc(%ebp),%eax
   16fc5:	83 c0 04             	add    $0x4,%eax
   16fc8:	8b 00                	mov    (%eax),%eax
   16fca:	0f b6 00             	movzbl (%eax),%eax
   16fcd:	eb 05                	jmp    16fd4 <user_u+0x33>
   16fcf:	b8 55 00 00 00       	mov    $0x55,%eax
   16fd4:	88 45 ef             	mov    %al,-0x11(%ebp)
   16fd7:	c7 45 b0 31 88 01 00 	movl   $0x18831,-0x50(%ebp)
   16fde:	8d 45 90             	lea    -0x70(%ebp),%eax
   16fe1:	89 45 b4             	mov    %eax,-0x4c(%ebp)
   16fe4:	0f be 45 ef          	movsbl -0x11(%ebp),%eax
   16fe8:	83 ec 0c             	sub    $0xc,%esp
   16feb:	50                   	push   %eax
   16fec:	e8 27 ec ff ff       	call   15c18 <swritech>
   16ff1:	83 c4 10             	add    $0x10,%esp
   16ff4:	c7 45 f4 00 00 00 00 	movl   $0x0,-0xc(%ebp)
   16ffb:	e9 af 00 00 00       	jmp    170af <user_u+0x10e>
   17000:	8b 45 f4             	mov    -0xc(%ebp),%eax
   17003:	83 c0 1e             	add    $0x1e,%eax
   17006:	83 ec 08             	sub    $0x8,%esp
   17009:	50                   	push   %eax
   1700a:	8d 45 90             	lea    -0x70(%ebp),%eax
   1700d:	50                   	push   %eax
   1700e:	e8 28 e6 ff ff       	call   1563b <cvt_dec>
   17013:	83 c4 10             	add    $0x10,%esp
   17016:	83 ec 04             	sub    $0x4,%esp
   17019:	6a 02                	push   $0x2
   1701b:	8d 45 b0             	lea    -0x50(%ebp),%eax
   1701e:	50                   	push   %eax
   1701f:	68 8c 72 01 00       	push   $0x1728c
   17024:	e8 55 ec ff ff       	call   15c7e <spawn>
   17029:	83 c4 10             	add    $0x10,%esp
   1702c:	89 c2                	mov    %eax,%edx
   1702e:	8b 45 f4             	mov    -0xc(%ebp),%eax
   17031:	89 54 85 c8          	mov    %edx,-0x38(%ebp,%eax,4)
   17035:	8b 45 f4             	mov    -0xc(%ebp),%eax
   17038:	8b 44 85 c8          	mov    -0x38(%ebp,%eax,4),%eax
   1703c:	85 c0                	test   %eax,%eax
   1703e:	79 0f                	jns    1704f <user_u+0xae>
   17040:	83 ec 0c             	sub    $0xc,%esp
   17043:	6a 75                	push   $0x75
   17045:	e8 ce eb ff ff       	call   15c18 <swritech>
   1704a:	83 c4 10             	add    $0x10,%esp
   1704d:	eb 5c                	jmp    170ab <user_u+0x10a>
   1704f:	83 ec 0c             	sub    $0xc,%esp
   17052:	68 24 89 01 00       	push   $0x18924
   17057:	e8 77 eb ff ff       	call   15bd3 <cwrites>
   1705c:	83 c4 10             	add    $0x10,%esp
   1705f:	8b 45 f4             	mov    -0xc(%ebp),%eax
   17062:	8b 44 85 c8          	mov    -0x38(%ebp,%eax,4),%eax
   17066:	83 ec 08             	sub    $0x8,%esp
   17069:	50                   	push   %eax
   1706a:	8d 45 bc             	lea    -0x44(%ebp),%eax
   1706d:	50                   	push   %eax
   1706e:	e8 c8 e5 ff ff       	call   1563b <cvt_dec>
   17073:	83 c4 10             	add    $0x10,%esp
   17076:	89 45 e8             	mov    %eax,-0x18(%ebp)
   17079:	8b 45 e8             	mov    -0x18(%ebp),%eax
   1707c:	83 ec 08             	sub    $0x8,%esp
   1707f:	50                   	push   %eax
   17080:	8d 45 bc             	lea    -0x44(%ebp),%eax
   17083:	50                   	push   %eax
   17084:	e8 74 eb ff ff       	call   15bfd <cwrite>
   17089:	83 c4 10             	add    $0x10,%esp
   1708c:	83 ec 0c             	sub    $0xc,%esp
   1708f:	6a 0a                	push   $0xa
   17091:	e8 1c eb ff ff       	call   15bb2 <cwritech>
   17096:	83 c4 10             	add    $0x10,%esp
   17099:	83 ec 08             	sub    $0x8,%esp
   1709c:	6a 01                	push   $0x1
   1709e:	68 3b 89 01 00       	push   $0x1893b
   170a3:	e8 bb eb ff ff       	call   15c63 <swrite>
   170a8:	83 c4 10             	add    $0x10,%esp
   170ab:	83 45 f4 01          	addl   $0x1,-0xc(%ebp)
   170af:	83 7d f4 02          	cmpl   $0x2,-0xc(%ebp)
   170b3:	0f 8e 47 ff ff ff    	jle    17000 <user_u+0x5f>
   170b9:	83 ec 0c             	sub    $0xc,%esp
   170bc:	68 40 1f 00 00       	push   $0x1f40
   170c1:	e8 f8 08 00 00       	call   179be <sleep>
   170c6:	83 c4 10             	add    $0x10,%esp
   170c9:	c7 45 f0 00 00 00 00 	movl   $0x0,-0x10(%ebp)
   170d0:	e9 ae 00 00 00       	jmp    17183 <user_u+0x1e2>
   170d5:	8b 45 f0             	mov    -0x10(%ebp),%eax
   170d8:	8b 44 85 c8          	mov    -0x38(%ebp,%eax,4),%eax
   170dc:	85 c0                	test   %eax,%eax
   170de:	0f 8e 9b 00 00 00    	jle    1717f <user_u+0x1de>
   170e4:	8b 45 f0             	mov    -0x10(%ebp),%eax
   170e7:	8b 44 85 c8          	mov    -0x38(%ebp,%eax,4),%eax
   170eb:	0f b7 c0             	movzwl %ax,%eax
   170ee:	83 ec 0c             	sub    $0xc,%esp
   170f1:	50                   	push   %eax
   170f2:	e8 b7 08 00 00       	call   179ae <kill>
   170f7:	83 c4 10             	add    $0x10,%esp
   170fa:	89 45 e4             	mov    %eax,-0x1c(%ebp)
   170fd:	83 ec 0c             	sub    $0xc,%esp
   17100:	68 3d 89 01 00       	push   $0x1893d
   17105:	e8 c9 ea ff ff       	call   15bd3 <cwrites>
   1710a:	83 c4 10             	add    $0x10,%esp
   1710d:	8b 45 f0             	mov    -0x10(%ebp),%eax
   17110:	8b 44 85 c8          	mov    -0x38(%ebp,%eax,4),%eax
   17114:	83 ec 08             	sub    $0x8,%esp
   17117:	50                   	push   %eax
   17118:	8d 45 bc             	lea    -0x44(%ebp),%eax
   1711b:	50                   	push   %eax
   1711c:	e8 1a e5 ff ff       	call   1563b <cvt_dec>
   17121:	83 c4 10             	add    $0x10,%esp
   17124:	89 45 e0             	mov    %eax,-0x20(%ebp)
   17127:	8b 45 e0             	mov    -0x20(%ebp),%eax
   1712a:	83 ec 08             	sub    $0x8,%esp
   1712d:	50                   	push   %eax
   1712e:	8d 45 bc             	lea    -0x44(%ebp),%eax
   17131:	50                   	push   %eax
   17132:	e8 c6 ea ff ff       	call   15bfd <cwrite>
   17137:	83 c4 10             	add    $0x10,%esp
   1713a:	83 ec 0c             	sub    $0xc,%esp
   1713d:	68 4e 89 01 00       	push   $0x1894e
   17142:	e8 8c ea ff ff       	call   15bd3 <cwrites>
   17147:	83 c4 10             	add    $0x10,%esp
   1714a:	83 ec 08             	sub    $0x8,%esp
   1714d:	ff 75 e4             	pushl  -0x1c(%ebp)
   17150:	8d 45 bc             	lea    -0x44(%ebp),%eax
   17153:	50                   	push   %eax
   17154:	e8 e2 e4 ff ff       	call   1563b <cvt_dec>
   17159:	83 c4 10             	add    $0x10,%esp
   1715c:	89 45 e0             	mov    %eax,-0x20(%ebp)
   1715f:	8b 45 e0             	mov    -0x20(%ebp),%eax
   17162:	83 ec 08             	sub    $0x8,%esp
   17165:	50                   	push   %eax
   17166:	8d 45 bc             	lea    -0x44(%ebp),%eax
   17169:	50                   	push   %eax
   1716a:	e8 8e ea ff ff       	call   15bfd <cwrite>
   1716f:	83 c4 10             	add    $0x10,%esp
   17172:	83 ec 0c             	sub    $0xc,%esp
   17175:	6a 0a                	push   $0xa
   17177:	e8 36 ea ff ff       	call   15bb2 <cwritech>
   1717c:	83 c4 10             	add    $0x10,%esp
   1717f:	83 45 f0 01          	addl   $0x1,-0x10(%ebp)
   17183:	83 7d f0 02          	cmpl   $0x2,-0x10(%ebp)
   17187:	0f 8e 48 ff ff ff    	jle    170d5 <user_u+0x134>
   1718d:	83 ec 0c             	sub    $0xc,%esp
   17190:	8d 45 8c             	lea    -0x74(%ebp),%eax
   17193:	50                   	push   %eax
   17194:	e8 1d 08 00 00       	call   179b6 <wait>
   17199:	83 c4 10             	add    $0x10,%esp
   1719c:	66 89 45 de          	mov    %ax,-0x22(%ebp)
   171a0:	66 83 7d de 00       	cmpw   $0x0,-0x22(%ebp)
   171a5:	74 4c                	je     171f3 <user_u+0x252>
   171a7:	83 ec 0c             	sub    $0xc,%esp
   171aa:	68 57 89 01 00       	push   $0x18957
   171af:	e8 1f ea ff ff       	call   15bd3 <cwrites>
   171b4:	83 c4 10             	add    $0x10,%esp
   171b7:	0f b7 45 de          	movzwl -0x22(%ebp),%eax
   171bb:	83 ec 08             	sub    $0x8,%esp
   171be:	50                   	push   %eax
   171bf:	8d 45 bc             	lea    -0x44(%ebp),%eax
   171c2:	50                   	push   %eax
   171c3:	e8 73 e4 ff ff       	call   1563b <cvt_dec>
   171c8:	83 c4 10             	add    $0x10,%esp
   171cb:	89 45 d4             	mov    %eax,-0x2c(%ebp)
   171ce:	8b 45 d4             	mov    -0x2c(%ebp),%eax
   171d1:	83 ec 08             	sub    $0x8,%esp
   171d4:	50                   	push   %eax
   171d5:	8d 45 bc             	lea    -0x44(%ebp),%eax
   171d8:	50                   	push   %eax
   171d9:	e8 1f ea ff ff       	call   15bfd <cwrite>
   171de:	83 c4 10             	add    $0x10,%esp
   171e1:	83 ec 0c             	sub    $0xc,%esp
   171e4:	6a 0a                	push   $0xa
   171e6:	e8 c7 e9 ff ff       	call   15bb2 <cwritech>
   171eb:	83 c4 10             	add    $0x10,%esp
   171ee:	e9 85 00 00 00       	jmp    17278 <user_u+0x2d7>
   171f3:	83 ec 0c             	sub    $0xc,%esp
   171f6:	68 6e 89 01 00       	push   $0x1896e
   171fb:	e8 d3 e9 ff ff       	call   15bd3 <cwrites>
   17200:	83 c4 10             	add    $0x10,%esp
   17203:	0f b7 45 de          	movzwl -0x22(%ebp),%eax
   17207:	83 ec 08             	sub    $0x8,%esp
   1720a:	50                   	push   %eax
   1720b:	8d 45 bc             	lea    -0x44(%ebp),%eax
   1720e:	50                   	push   %eax
   1720f:	e8 27 e4 ff ff       	call   1563b <cvt_dec>
   17214:	83 c4 10             	add    $0x10,%esp
   17217:	89 45 d8             	mov    %eax,-0x28(%ebp)
   1721a:	8b 45 d8             	mov    -0x28(%ebp),%eax
   1721d:	83 ec 08             	sub    $0x8,%esp
   17220:	50                   	push   %eax
   17221:	8d 45 bc             	lea    -0x44(%ebp),%eax
   17224:	50                   	push   %eax
   17225:	e8 d3 e9 ff ff       	call   15bfd <cwrite>
   1722a:	83 c4 10             	add    $0x10,%esp
   1722d:	83 ec 0c             	sub    $0xc,%esp
   17230:	68 16 89 01 00       	push   $0x18916
   17235:	e8 99 e9 ff ff       	call   15bd3 <cwrites>
   1723a:	83 c4 10             	add    $0x10,%esp
   1723d:	8b 45 8c             	mov    -0x74(%ebp),%eax
   17240:	83 ec 08             	sub    $0x8,%esp
   17243:	50                   	push   %eax
   17244:	8d 45 bc             	lea    -0x44(%ebp),%eax
   17247:	50                   	push   %eax
   17248:	e8 ee e3 ff ff       	call   1563b <cvt_dec>
   1724d:	83 c4 10             	add    $0x10,%esp
   17250:	89 45 d8             	mov    %eax,-0x28(%ebp)
   17253:	8b 45 d8             	mov    -0x28(%ebp),%eax
   17256:	83 ec 08             	sub    $0x8,%esp
   17259:	50                   	push   %eax
   1725a:	8d 45 bc             	lea    -0x44(%ebp),%eax
   1725d:	50                   	push   %eax
   1725e:	e8 9a e9 ff ff       	call   15bfd <cwrite>
   17263:	83 c4 10             	add    $0x10,%esp
   17266:	83 ec 0c             	sub    $0xc,%esp
   17269:	6a 0a                	push   $0xa
   1726b:	e8 42 e9 ff ff       	call   15bb2 <cwritech>
   17270:	83 c4 10             	add    $0x10,%esp
   17273:	e9 15 ff ff ff       	jmp    1718d <user_u+0x1ec>
   17278:	83 ec 0c             	sub    $0xc,%esp
   1727b:	6a 00                	push   $0x0
   1727d:	e8 04 07 00 00       	call   17986 <exit>
   17282:	83 c4 10             	add    $0x10,%esp
   17285:	b8 00 00 00 00       	mov    $0x0,%eax
   1728a:	c9                   	leave  
   1728b:	c3                   	ret    

0001728c <user_w>:
   1728c:	55                   	push   %ebp
   1728d:	89 e5                	mov    %esp,%ebp
   1728f:	83 ec 18             	sub    $0x18,%esp
   17292:	83 7d 08 01          	cmpl   $0x1,0x8(%ebp)
   17296:	7e 08                	jle    172a0 <user_w+0x14>
   17298:	8b 45 0c             	mov    0xc(%ebp),%eax
   1729b:	8b 40 04             	mov    0x4(%eax),%eax
   1729e:	eb 05                	jmp    172a5 <user_w+0x19>
   172a0:	b8 7d 89 01 00       	mov    $0x1897d,%eax
   172a5:	89 45 f0             	mov    %eax,-0x10(%ebp)
   172a8:	e8 21 07 00 00       	call   179ce <pid>
   172ad:	0f b7 c0             	movzwl %ax,%eax
   172b0:	83 ec 08             	sub    $0x8,%esp
   172b3:	50                   	push   %eax
   172b4:	6a 57                	push   $0x57
   172b6:	e8 56 e4 ff ff       	call   15711 <report>
   172bb:	83 c4 10             	add    $0x10,%esp
   172be:	c7 45 f4 00 00 00 00 	movl   $0x0,-0xc(%ebp)
   172c5:	eb 22                	jmp    172e9 <user_w+0x5d>
   172c7:	83 ec 0c             	sub    $0xc,%esp
   172ca:	ff 75 f0             	pushl  -0x10(%ebp)
   172cd:	e8 67 e9 ff ff       	call   15c39 <swrites>
   172d2:	83 c4 10             	add    $0x10,%esp
   172d5:	83 ec 0c             	sub    $0xc,%esp
   172d8:	68 b8 0b 00 00       	push   $0xbb8
   172dd:	e8 dc 06 00 00       	call   179be <sleep>
   172e2:	83 c4 10             	add    $0x10,%esp
   172e5:	83 45 f4 01          	addl   $0x1,-0xc(%ebp)
   172e9:	83 7d f4 13          	cmpl   $0x13,-0xc(%ebp)
   172ed:	7e d8                	jle    172c7 <user_w+0x3b>
   172ef:	83 ec 0c             	sub    $0xc,%esp
   172f2:	68 82 89 01 00       	push   $0x18982
   172f7:	e8 d7 e8 ff ff       	call   15bd3 <cwrites>
   172fc:	83 c4 10             	add    $0x10,%esp
   172ff:	83 ec 0c             	sub    $0xc,%esp
   17302:	ff 75 f0             	pushl  -0x10(%ebp)
   17305:	e8 c9 e8 ff ff       	call   15bd3 <cwrites>
   1730a:	83 c4 10             	add    $0x10,%esp
   1730d:	83 ec 0c             	sub    $0xc,%esp
   17310:	68 88 89 01 00       	push   $0x18988
   17315:	e8 b9 e8 ff ff       	call   15bd3 <cwrites>
   1731a:	83 c4 10             	add    $0x10,%esp
   1731d:	83 ec 0c             	sub    $0xc,%esp
   17320:	6a 00                	push   $0x0
   17322:	e8 5f 06 00 00       	call   17986 <exit>
   17327:	83 c4 10             	add    $0x10,%esp
   1732a:	b8 00 00 00 00       	mov    $0x0,%eax
   1732f:	c9                   	leave  
   17330:	c3                   	ret    

00017331 <user_x>:
   17331:	55                   	push   %ebp
   17332:	89 e5                	mov    %esp,%ebp
   17334:	83 ec 18             	sub    $0x18,%esp
   17337:	83 7d 08 01          	cmpl   $0x1,0x8(%ebp)
   1733b:	7e 08                	jle    17345 <user_x+0x14>
   1733d:	8b 45 0c             	mov    0xc(%ebp),%eax
   17340:	8b 40 04             	mov    0x4(%eax),%eax
   17343:	eb 05                	jmp    1734a <user_x+0x19>
   17345:	b8 92 89 01 00       	mov    $0x18992,%eax
   1734a:	89 45 ec             	mov    %eax,-0x14(%ebp)
   1734d:	e8 7c 06 00 00       	call   179ce <pid>
   17352:	66 89 45 ea          	mov    %ax,-0x16(%ebp)
   17356:	0f b7 45 ea          	movzwl -0x16(%ebp),%eax
   1735a:	83 ec 08             	sub    $0x8,%esp
   1735d:	50                   	push   %eax
   1735e:	6a 58                	push   $0x58
   17360:	e8 ac e3 ff ff       	call   15711 <report>
   17365:	83 c4 10             	add    $0x10,%esp
   17368:	c7 45 f4 00 00 00 00 	movl   $0x0,-0xc(%ebp)
   1736f:	eb 28                	jmp    17399 <user_x+0x68>
   17371:	83 ec 0c             	sub    $0xc,%esp
   17374:	ff 75 ec             	pushl  -0x14(%ebp)
   17377:	e8 bd e8 ff ff       	call   15c39 <swrites>
   1737c:	83 c4 10             	add    $0x10,%esp
   1737f:	c7 45 f0 00 00 00 00 	movl   $0x0,-0x10(%ebp)
   17386:	eb 04                	jmp    1738c <user_x+0x5b>
   17388:	83 45 f0 01          	addl   $0x1,-0x10(%ebp)
   1738c:	81 7d f0 9f 25 26 00 	cmpl   $0x26259f,-0x10(%ebp)
   17393:	7e f3                	jle    17388 <user_x+0x57>
   17395:	83 45 f4 01          	addl   $0x1,-0xc(%ebp)
   17399:	83 7d f4 13          	cmpl   $0x13,-0xc(%ebp)
   1739d:	7e d2                	jle    17371 <user_x+0x40>
   1739f:	83 ec 0c             	sub    $0xc,%esp
   173a2:	68 82 89 01 00       	push   $0x18982
   173a7:	e8 27 e8 ff ff       	call   15bd3 <cwrites>
   173ac:	83 c4 10             	add    $0x10,%esp
   173af:	83 ec 0c             	sub    $0xc,%esp
   173b2:	ff 75 ec             	pushl  -0x14(%ebp)
   173b5:	e8 19 e8 ff ff       	call   15bd3 <cwrites>
   173ba:	83 c4 10             	add    $0x10,%esp
   173bd:	83 ec 0c             	sub    $0xc,%esp
   173c0:	68 88 89 01 00       	push   $0x18988
   173c5:	e8 09 e8 ff ff       	call   15bd3 <cwrites>
   173ca:	83 c4 10             	add    $0x10,%esp
   173cd:	66 83 7d ea 00       	cmpw   $0x0,-0x16(%ebp)
   173d2:	74 06                	je     173da <user_x+0xa9>
   173d4:	0f b7 45 ea          	movzwl -0x16(%ebp),%eax
   173d8:	eb 05                	jmp    173df <user_x+0xae>
   173da:	b8 33 7e fe ff       	mov    $0xfffe7e33,%eax
   173df:	83 ec 0c             	sub    $0xc,%esp
   173e2:	50                   	push   %eax
   173e3:	e8 9e 05 00 00       	call   17986 <exit>
   173e8:	83 c4 10             	add    $0x10,%esp
   173eb:	b8 00 00 00 00       	mov    $0x0,%eax
   173f0:	c9                   	leave  
   173f1:	c3                   	ret    

000173f2 <user_y>:
   173f2:	55                   	push   %ebp
   173f3:	89 e5                	mov    %esp,%ebp
   173f5:	83 ec 18             	sub    $0x18,%esp
   173f8:	83 7d 08 01          	cmpl   $0x1,0x8(%ebp)
   173fc:	7e 08                	jle    17406 <user_y+0x14>
   173fe:	8b 45 0c             	mov    0xc(%ebp),%eax
   17401:	8b 40 04             	mov    0x4(%eax),%eax
   17404:	eb 05                	jmp    1740b <user_y+0x19>
   17406:	b8 97 89 01 00       	mov    $0x18997,%eax
   1740b:	89 45 ec             	mov    %eax,-0x14(%ebp)
   1740e:	c7 45 f4 00 00 00 00 	movl   $0x0,-0xc(%ebp)
   17415:	eb 38                	jmp    1744f <user_y+0x5d>
   17417:	83 ec 0c             	sub    $0xc,%esp
   1741a:	ff 75 ec             	pushl  -0x14(%ebp)
   1741d:	e8 17 e8 ff ff       	call   15c39 <swrites>
   17422:	83 c4 10             	add    $0x10,%esp
   17425:	c7 45 f0 00 00 00 00 	movl   $0x0,-0x10(%ebp)
   1742c:	eb 04                	jmp    17432 <user_y+0x40>
   1742e:	83 45 f0 01          	addl   $0x1,-0x10(%ebp)
   17432:	81 7d f0 1f aa 44 00 	cmpl   $0x44aa1f,-0x10(%ebp)
   17439:	7e f3                	jle    1742e <user_y+0x3c>
   1743b:	83 ec 0c             	sub    $0xc,%esp
   1743e:	68 e8 03 00 00       	push   $0x3e8
   17443:	e8 76 05 00 00       	call   179be <sleep>
   17448:	83 c4 10             	add    $0x10,%esp
   1744b:	83 45 f4 01          	addl   $0x1,-0xc(%ebp)
   1744f:	83 7d f4 09          	cmpl   $0x9,-0xc(%ebp)
   17453:	7e c2                	jle    17417 <user_y+0x25>
   17455:	83 ec 0c             	sub    $0xc,%esp
   17458:	6a 00                	push   $0x0
   1745a:	e8 27 05 00 00       	call   17986 <exit>
   1745f:	83 c4 10             	add    $0x10,%esp
   17462:	b8 00 00 00 00       	mov    $0x0,%eax
   17467:	c9                   	leave  
   17468:	c3                   	ret    

00017469 <user_z>:
   17469:	55                   	push   %ebp
   1746a:	89 e5                	mov    %esp,%ebp
   1746c:	83 ec 28             	sub    $0x28,%esp
   1746f:	83 7d 08 01          	cmpl   $0x1,0x8(%ebp)
   17473:	7e 08                	jle    1747d <user_z+0x14>
   17475:	8b 45 0c             	mov    0xc(%ebp),%eax
   17478:	8b 40 04             	mov    0x4(%eax),%eax
   1747b:	eb 05                	jmp    17482 <user_z+0x19>
   1747d:	b8 9c 89 01 00       	mov    $0x1899c,%eax
   17482:	89 45 ec             	mov    %eax,-0x14(%ebp)
   17485:	e8 44 05 00 00       	call   179ce <pid>
   1748a:	66 89 45 ea          	mov    %ax,-0x16(%ebp)
   1748e:	e8 43 05 00 00       	call   179d6 <ppid>
   17493:	66 89 45 e8          	mov    %ax,-0x18(%ebp)
   17497:	83 ec 0c             	sub    $0xc,%esp
   1749a:	68 82 89 01 00       	push   $0x18982
   1749f:	e8 2f e7 ff ff       	call   15bd3 <cwrites>
   174a4:	83 c4 10             	add    $0x10,%esp
   174a7:	83 ec 0c             	sub    $0xc,%esp
   174aa:	ff 75 ec             	pushl  -0x14(%ebp)
   174ad:	e8 21 e7 ff ff       	call   15bd3 <cwrites>
   174b2:	83 c4 10             	add    $0x10,%esp
   174b5:	83 ec 0c             	sub    $0xc,%esp
   174b8:	68 a1 89 01 00       	push   $0x189a1
   174bd:	e8 11 e7 ff ff       	call   15bd3 <cwrites>
   174c2:	83 c4 10             	add    $0x10,%esp
   174c5:	0f b7 45 ea          	movzwl -0x16(%ebp),%eax
   174c9:	83 ec 08             	sub    $0x8,%esp
   174cc:	50                   	push   %eax
   174cd:	8d 45 dc             	lea    -0x24(%ebp),%eax
   174d0:	50                   	push   %eax
   174d1:	e8 65 e1 ff ff       	call   1563b <cvt_dec>
   174d6:	83 c4 10             	add    $0x10,%esp
   174d9:	89 45 f4             	mov    %eax,-0xc(%ebp)
   174dc:	8b 45 f4             	mov    -0xc(%ebp),%eax
   174df:	83 ec 08             	sub    $0x8,%esp
   174e2:	50                   	push   %eax
   174e3:	8d 45 dc             	lea    -0x24(%ebp),%eax
   174e6:	50                   	push   %eax
   174e7:	e8 11 e7 ff ff       	call   15bfd <cwrite>
   174ec:	83 c4 10             	add    $0x10,%esp
   174ef:	83 ec 0c             	sub    $0xc,%esp
   174f2:	68 a3 89 01 00       	push   $0x189a3
   174f7:	e8 d7 e6 ff ff       	call   15bd3 <cwrites>
   174fc:	83 c4 10             	add    $0x10,%esp
   174ff:	0f b7 45 e8          	movzwl -0x18(%ebp),%eax
   17503:	83 ec 08             	sub    $0x8,%esp
   17506:	50                   	push   %eax
   17507:	8d 45 dc             	lea    -0x24(%ebp),%eax
   1750a:	50                   	push   %eax
   1750b:	e8 2b e1 ff ff       	call   1563b <cvt_dec>
   17510:	83 c4 10             	add    $0x10,%esp
   17513:	89 45 f4             	mov    %eax,-0xc(%ebp)
   17516:	8b 45 f4             	mov    -0xc(%ebp),%eax
   17519:	83 ec 08             	sub    $0x8,%esp
   1751c:	50                   	push   %eax
   1751d:	8d 45 dc             	lea    -0x24(%ebp),%eax
   17520:	50                   	push   %eax
   17521:	e8 d7 e6 ff ff       	call   15bfd <cwrite>
   17526:	83 c4 10             	add    $0x10,%esp
   17529:	83 ec 0c             	sub    $0xc,%esp
   1752c:	6a 0a                	push   $0xa
   1752e:	e8 7f e6 ff ff       	call   15bb2 <cwritech>
   17533:	83 c4 10             	add    $0x10,%esp
   17536:	c7 45 f4 00 00 00 00 	movl   $0x0,-0xc(%ebp)
   1753d:	eb 28                	jmp    17567 <user_z+0xfe>
   1753f:	83 ec 0c             	sub    $0xc,%esp
   17542:	ff 75 ec             	pushl  -0x14(%ebp)
   17545:	e8 ef e6 ff ff       	call   15c39 <swrites>
   1754a:	83 c4 10             	add    $0x10,%esp
   1754d:	c7 45 f0 00 00 00 00 	movl   $0x0,-0x10(%ebp)
   17554:	eb 04                	jmp    1755a <user_z+0xf1>
   17556:	83 45 f0 01          	addl   $0x1,-0x10(%ebp)
   1755a:	81 7d f0 9f 25 26 00 	cmpl   $0x26259f,-0x10(%ebp)
   17561:	7e f3                	jle    17556 <user_z+0xed>
   17563:	83 45 f4 01          	addl   $0x1,-0xc(%ebp)
   17567:	83 7d f4 09          	cmpl   $0x9,-0xc(%ebp)
   1756b:	7e d2                	jle    1753f <user_z+0xd6>
   1756d:	e8 64 04 00 00       	call   179d6 <ppid>
   17572:	66 89 45 e8          	mov    %ax,-0x18(%ebp)
   17576:	83 ec 0c             	sub    $0xc,%esp
   17579:	68 82 89 01 00       	push   $0x18982
   1757e:	e8 50 e6 ff ff       	call   15bd3 <cwrites>
   17583:	83 c4 10             	add    $0x10,%esp
   17586:	83 ec 0c             	sub    $0xc,%esp
   17589:	ff 75 ec             	pushl  -0x14(%ebp)
   1758c:	e8 42 e6 ff ff       	call   15bd3 <cwrites>
   17591:	83 c4 10             	add    $0x10,%esp
   17594:	83 ec 0c             	sub    $0xc,%esp
   17597:	68 a1 89 01 00       	push   $0x189a1
   1759c:	e8 32 e6 ff ff       	call   15bd3 <cwrites>
   175a1:	83 c4 10             	add    $0x10,%esp
   175a4:	0f b7 45 ea          	movzwl -0x16(%ebp),%eax
   175a8:	83 ec 08             	sub    $0x8,%esp
   175ab:	50                   	push   %eax
   175ac:	8d 45 dc             	lea    -0x24(%ebp),%eax
   175af:	50                   	push   %eax
   175b0:	e8 86 e0 ff ff       	call   1563b <cvt_dec>
   175b5:	83 c4 10             	add    $0x10,%esp
   175b8:	89 45 f4             	mov    %eax,-0xc(%ebp)
   175bb:	8b 45 f4             	mov    -0xc(%ebp),%eax
   175be:	83 ec 08             	sub    $0x8,%esp
   175c1:	50                   	push   %eax
   175c2:	8d 45 dc             	lea    -0x24(%ebp),%eax
   175c5:	50                   	push   %eax
   175c6:	e8 32 e6 ff ff       	call   15bfd <cwrite>
   175cb:	83 c4 10             	add    $0x10,%esp
   175ce:	83 ec 0c             	sub    $0xc,%esp
   175d1:	68 b6 89 01 00       	push   $0x189b6
   175d6:	e8 f8 e5 ff ff       	call   15bd3 <cwrites>
   175db:	83 c4 10             	add    $0x10,%esp
   175de:	0f b7 45 e8          	movzwl -0x18(%ebp),%eax
   175e2:	83 ec 08             	sub    $0x8,%esp
   175e5:	50                   	push   %eax
   175e6:	8d 45 dc             	lea    -0x24(%ebp),%eax
   175e9:	50                   	push   %eax
   175ea:	e8 4c e0 ff ff       	call   1563b <cvt_dec>
   175ef:	83 c4 10             	add    $0x10,%esp
   175f2:	89 45 f4             	mov    %eax,-0xc(%ebp)
   175f5:	8b 45 f4             	mov    -0xc(%ebp),%eax
   175f8:	83 ec 08             	sub    $0x8,%esp
   175fb:	50                   	push   %eax
   175fc:	8d 45 dc             	lea    -0x24(%ebp),%eax
   175ff:	50                   	push   %eax
   17600:	e8 f8 e5 ff ff       	call   15bfd <cwrite>
   17605:	83 c4 10             	add    $0x10,%esp
   17608:	83 ec 0c             	sub    $0xc,%esp
   1760b:	6a 0a                	push   $0xa
   1760d:	e8 a0 e5 ff ff       	call   15bb2 <cwritech>
   17612:	83 c4 10             	add    $0x10,%esp
   17615:	83 ec 0c             	sub    $0xc,%esp
   17618:	6a 00                	push   $0x0
   1761a:	e8 67 03 00 00       	call   17986 <exit>
   1761f:	83 c4 10             	add    $0x10,%esp
   17622:	b8 00 00 00 00       	mov    $0x0,%eax
   17627:	c9                   	leave  
   17628:	c3                   	ret    

00017629 <idle>:
   17629:	55                   	push   %ebp
   1762a:	89 e5                	mov    %esp,%ebp
   1762c:	83 ec 28             	sub    $0x28,%esp
   1762f:	83 7d 08 01          	cmpl   $0x1,0x8(%ebp)
   17633:	7e 0d                	jle    17642 <idle+0x19>
   17635:	8b 45 0c             	mov    0xc(%ebp),%eax
   17638:	83 c0 04             	add    $0x4,%eax
   1763b:	8b 00                	mov    (%eax),%eax
   1763d:	0f b6 00             	movzbl (%eax),%eax
   17640:	eb 05                	jmp    17647 <idle+0x1e>
   17642:	b8 2a 00 00 00       	mov    $0x2a,%eax
   17647:	88 45 f3             	mov    %al,-0xd(%ebp)
   1764a:	e8 7f 03 00 00       	call   179ce <pid>
   1764f:	66 89 45 f0          	mov    %ax,-0x10(%ebp)
   17653:	e8 6e 03 00 00       	call   179c6 <time>
   17658:	89 45 ec             	mov    %eax,-0x14(%ebp)
   1765b:	83 ec 0c             	sub    $0xc,%esp
   1765e:	68 cd 89 01 00       	push   $0x189cd
   17663:	e8 6b e5 ff ff       	call   15bd3 <cwrites>
   17668:	83 c4 10             	add    $0x10,%esp
   1766b:	0f b7 45 f0          	movzwl -0x10(%ebp),%eax
   1766f:	83 ec 08             	sub    $0x8,%esp
   17672:	50                   	push   %eax
   17673:	8d 45 e0             	lea    -0x20(%ebp),%eax
   17676:	50                   	push   %eax
   17677:	e8 bf df ff ff       	call   1563b <cvt_dec>
   1767c:	83 c4 10             	add    $0x10,%esp
   1767f:	89 45 f4             	mov    %eax,-0xc(%ebp)
   17682:	8b 45 f4             	mov    -0xc(%ebp),%eax
   17685:	83 ec 08             	sub    $0x8,%esp
   17688:	50                   	push   %eax
   17689:	8d 45 e0             	lea    -0x20(%ebp),%eax
   1768c:	50                   	push   %eax
   1768d:	e8 6b e5 ff ff       	call   15bfd <cwrite>
   17692:	83 c4 10             	add    $0x10,%esp
   17695:	83 ec 0c             	sub    $0xc,%esp
   17698:	68 d4 89 01 00       	push   $0x189d4
   1769d:	e8 31 e5 ff ff       	call   15bd3 <cwrites>
   176a2:	83 c4 10             	add    $0x10,%esp
   176a5:	83 ec 08             	sub    $0x8,%esp
   176a8:	ff 75 ec             	pushl  -0x14(%ebp)
   176ab:	8d 45 e0             	lea    -0x20(%ebp),%eax
   176ae:	50                   	push   %eax
   176af:	e8 ce df ff ff       	call   15682 <cvt_hex>
   176b4:	83 c4 10             	add    $0x10,%esp
   176b7:	89 45 f4             	mov    %eax,-0xc(%ebp)
   176ba:	8b 45 f4             	mov    -0xc(%ebp),%eax
   176bd:	83 ec 08             	sub    $0x8,%esp
   176c0:	50                   	push   %eax
   176c1:	8d 45 e0             	lea    -0x20(%ebp),%eax
   176c4:	50                   	push   %eax
   176c5:	e8 33 e5 ff ff       	call   15bfd <cwrite>
   176ca:	83 c4 10             	add    $0x10,%esp
   176cd:	83 ec 0c             	sub    $0xc,%esp
   176d0:	6a 0a                	push   $0xa
   176d2:	e8 db e4 ff ff       	call   15bb2 <cwritech>
   176d7:	83 c4 10             	add    $0x10,%esp
   176da:	0f be 45 f3          	movsbl -0xd(%ebp),%eax
   176de:	83 ec 0c             	sub    $0xc,%esp
   176e1:	50                   	push   %eax
   176e2:	e8 31 e5 ff ff       	call   15c18 <swritech>
   176e7:	83 c4 10             	add    $0x10,%esp
   176ea:	c7 45 f4 00 00 00 00 	movl   $0x0,-0xc(%ebp)
   176f1:	eb 04                	jmp    176f7 <idle+0xce>
   176f3:	83 45 f4 01          	addl   $0x1,-0xc(%ebp)
   176f7:	81 7d f4 ff e0 f5 05 	cmpl   $0x5f5e0ff,-0xc(%ebp)
   176fe:	7e f3                	jle    176f3 <idle+0xca>
   17700:	0f be 45 f3          	movsbl -0xd(%ebp),%eax
   17704:	83 ec 0c             	sub    $0xc,%esp
   17707:	50                   	push   %eax
   17708:	e8 0b e5 ff ff       	call   15c18 <swritech>
   1770d:	83 c4 10             	add    $0x10,%esp
   17710:	eb d8                	jmp    176ea <idle+0xc1>

00017712 <init>:
   17712:	55                   	push   %ebp
   17713:	89 e5                	mov    %esp,%ebp
   17715:	83 ec 68             	sub    $0x68,%esp
   17718:	8d 45 c4             	lea    -0x3c(%ebp),%eax
   1771b:	89 45 dc             	mov    %eax,-0x24(%ebp)
   1771e:	8d 45 ac             	lea    -0x54(%ebp),%eax
   17721:	89 45 e0             	mov    %eax,-0x20(%ebp)
   17724:	c7 45 e4 00 00 00 00 	movl   $0x0,-0x1c(%ebp)
   1772b:	a1 74 c7 01 00       	mov    0x1c774,%eax
   17730:	85 c0                	test   %eax,%eax
   17732:	7e 12                	jle    17746 <init+0x34>
   17734:	83 ec 0c             	sub    $0xc,%esp
   17737:	68 e1 89 01 00       	push   $0x189e1
   1773c:	e8 92 e4 ff ff       	call   15bd3 <cwrites>
   17741:	83 c4 10             	add    $0x10,%esp
   17744:	eb fe                	jmp    17744 <init+0x32>
   17746:	83 ec 0c             	sub    $0xc,%esp
   17749:	68 f4 89 01 00       	push   $0x189f4
   1774e:	e8 80 e4 ff ff       	call   15bd3 <cwrites>
   17753:	83 c4 10             	add    $0x10,%esp
   17756:	a1 74 c7 01 00       	mov    0x1c774,%eax
   1775b:	83 c0 01             	add    $0x1,%eax
   1775e:	a3 74 c7 01 00       	mov    %eax,0x1c774
   17763:	83 ec 0c             	sub    $0xc,%esp
   17766:	68 02 8a 01 00       	push   $0x18a02
   1776b:	e8 c9 e4 ff ff       	call   15c39 <swrites>
   17770:	83 c4 10             	add    $0x10,%esp
   17773:	c7 45 f4 00 00 00 00 	movl   $0x0,-0xc(%ebp)
   1777a:	eb 04                	jmp    17780 <init+0x6e>
   1777c:	83 45 f4 01          	addl   $0x1,-0xc(%ebp)
   17780:	81 7d f4 9f 25 26 00 	cmpl   $0x26259f,-0xc(%ebp)
   17787:	7e f3                	jle    1777c <init+0x6a>
   17789:	83 ec 0c             	sub    $0xc,%esp
   1778c:	68 04 8a 01 00       	push   $0x18a04
   17791:	e8 a3 e4 ff ff       	call   15c39 <swrites>
   17796:	83 c4 10             	add    $0x10,%esp
   17799:	c7 45 dc 2b 8a 01 00 	movl   $0x18a2b,-0x24(%ebp)
   177a0:	c7 45 e0 30 8a 01 00 	movl   $0x18a30,-0x20(%ebp)
   177a7:	83 ec 04             	sub    $0x4,%esp
   177aa:	6a 04                	push   $0x4
   177ac:	8d 45 dc             	lea    -0x24(%ebp),%eax
   177af:	50                   	push   %eax
   177b0:	68 29 76 01 00       	push   $0x17629
   177b5:	e8 c4 e4 ff ff       	call   15c7e <spawn>
   177ba:	83 c4 10             	add    $0x10,%esp
   177bd:	89 45 f0             	mov    %eax,-0x10(%ebp)
   177c0:	83 7d f0 00          	cmpl   $0x0,-0x10(%ebp)
   177c4:	79 10                	jns    177d6 <init+0xc4>
   177c6:	83 ec 0c             	sub    $0xc,%esp
   177c9:	68 32 8a 01 00       	push   $0x18a32
   177ce:	e8 00 e4 ff ff       	call   15bd3 <cwrites>
   177d3:	83 c4 10             	add    $0x10,%esp
   177d6:	83 ec 0c             	sub    $0xc,%esp
   177d9:	6a 2b                	push   $0x2b
   177db:	e8 38 e4 ff ff       	call   15c18 <swritech>
   177e0:	83 c4 10             	add    $0x10,%esp
   177e3:	c7 45 dc 4d 8a 01 00 	movl   $0x18a4d,-0x24(%ebp)
   177ea:	c7 45 e0 54 8a 01 00 	movl   $0x18a54,-0x20(%ebp)
   177f1:	83 ec 04             	sub    $0x4,%esp
   177f4:	6a 03                	push   $0x3
   177f6:	8d 45 dc             	lea    -0x24(%ebp),%eax
   177f9:	50                   	push   %eax
   177fa:	68 a5 5e 01 00       	push   $0x15ea5
   177ff:	e8 7a e4 ff ff       	call   15c7e <spawn>
   17804:	83 c4 10             	add    $0x10,%esp
   17807:	89 45 f0             	mov    %eax,-0x10(%ebp)
   1780a:	83 7d f0 00          	cmpl   $0x0,-0x10(%ebp)
   1780e:	79 10                	jns    17820 <init+0x10e>
   17810:	83 ec 0c             	sub    $0xc,%esp
   17813:	68 56 8a 01 00       	push   $0x18a56
   17818:	e8 b6 e3 ff ff       	call   15bd3 <cwrites>
   1781d:	83 c4 10             	add    $0x10,%esp
   17820:	83 ec 0c             	sub    $0xc,%esp
   17823:	6a 2b                	push   $0x2b
   17825:	e8 ee e3 ff ff       	call   15c18 <swritech>
   1782a:	83 c4 10             	add    $0x10,%esp
   1782d:	c7 45 dc 73 8a 01 00 	movl   $0x18a73,-0x24(%ebp)
   17834:	c7 45 e0 7a 8a 01 00 	movl   $0x18a7a,-0x20(%ebp)
   1783b:	83 ec 04             	sub    $0x4,%esp
   1783e:	6a 03                	push   $0x3
   17840:	8d 45 dc             	lea    -0x24(%ebp),%eax
   17843:	50                   	push   %eax
   17844:	68 93 6d 01 00       	push   $0x16d93
   17849:	e8 30 e4 ff ff       	call   15c7e <spawn>
   1784e:	83 c4 10             	add    $0x10,%esp
   17851:	89 45 f0             	mov    %eax,-0x10(%ebp)
   17854:	83 7d f0 00          	cmpl   $0x0,-0x10(%ebp)
   17858:	79 10                	jns    1786a <init+0x158>
   1785a:	83 ec 0c             	sub    $0xc,%esp
   1785d:	68 7c 8a 01 00       	push   $0x18a7c
   17862:	e8 6c e3 ff ff       	call   15bd3 <cwrites>
   17867:	83 c4 10             	add    $0x10,%esp
   1786a:	83 ec 0c             	sub    $0xc,%esp
   1786d:	6a 2b                	push   $0x2b
   1786f:	e8 a4 e3 ff ff       	call   15c18 <swritech>
   17874:	83 c4 10             	add    $0x10,%esp
   17877:	83 ec 0c             	sub    $0xc,%esp
   1787a:	68 99 8a 01 00       	push   $0x18a99
   1787f:	e8 b5 e3 ff ff       	call   15c39 <swrites>
   17884:	83 c4 10             	add    $0x10,%esp
   17887:	83 ec 0c             	sub    $0xc,%esp
   1788a:	68 a0 8a 01 00       	push   $0x18aa0
   1788f:	e8 3f e3 ff ff       	call   15bd3 <cwrites>
   17894:	83 c4 10             	add    $0x10,%esp
   17897:	83 ec 0c             	sub    $0xc,%esp
   1789a:	8d 45 a8             	lea    -0x58(%ebp),%eax
   1789d:	50                   	push   %eax
   1789e:	e8 13 01 00 00       	call   179b6 <wait>
   178a3:	83 c4 10             	add    $0x10,%esp
   178a6:	66 89 45 ee          	mov    %ax,-0x12(%ebp)
   178aa:	66 83 7d ee 00       	cmpw   $0x0,-0x12(%ebp)
   178af:	0f 84 85 00 00 00    	je     1793a <init+0x228>
   178b5:	83 ec 0c             	sub    $0xc,%esp
   178b8:	68 c5 8a 01 00       	push   $0x18ac5
   178bd:	e8 11 e3 ff ff       	call   15bd3 <cwrites>
   178c2:	83 c4 10             	add    $0x10,%esp
   178c5:	0f b7 45 ee          	movzwl -0x12(%ebp),%eax
   178c9:	83 ec 08             	sub    $0x8,%esp
   178cc:	50                   	push   %eax
   178cd:	8d 45 9c             	lea    -0x64(%ebp),%eax
   178d0:	50                   	push   %eax
   178d1:	e8 65 dd ff ff       	call   1563b <cvt_dec>
   178d6:	83 c4 10             	add    $0x10,%esp
   178d9:	89 45 e8             	mov    %eax,-0x18(%ebp)
   178dc:	8b 45 e8             	mov    -0x18(%ebp),%eax
   178df:	83 ec 08             	sub    $0x8,%esp
   178e2:	50                   	push   %eax
   178e3:	8d 45 9c             	lea    -0x64(%ebp),%eax
   178e6:	50                   	push   %eax
   178e7:	e8 11 e3 ff ff       	call   15bfd <cwrite>
   178ec:	83 c4 10             	add    $0x10,%esp
   178ef:	83 ec 0c             	sub    $0xc,%esp
   178f2:	68 d0 8a 01 00       	push   $0x18ad0
   178f7:	e8 d7 e2 ff ff       	call   15bd3 <cwrites>
   178fc:	83 c4 10             	add    $0x10,%esp
   178ff:	8b 45 a8             	mov    -0x58(%ebp),%eax
   17902:	83 ec 08             	sub    $0x8,%esp
   17905:	50                   	push   %eax
   17906:	8d 45 9c             	lea    -0x64(%ebp),%eax
   17909:	50                   	push   %eax
   1790a:	e8 2c dd ff ff       	call   1563b <cvt_dec>
   1790f:	83 c4 10             	add    $0x10,%esp
   17912:	89 45 e8             	mov    %eax,-0x18(%ebp)
   17915:	8b 45 e8             	mov    -0x18(%ebp),%eax
   17918:	83 ec 08             	sub    $0x8,%esp
   1791b:	50                   	push   %eax
   1791c:	8d 45 9c             	lea    -0x64(%ebp),%eax
   1791f:	50                   	push   %eax
   17920:	e8 d8 e2 ff ff       	call   15bfd <cwrite>
   17925:	83 c4 10             	add    $0x10,%esp
   17928:	83 ec 0c             	sub    $0xc,%esp
   1792b:	6a 0a                	push   $0xa
   1792d:	e8 80 e2 ff ff       	call   15bb2 <cwritech>
   17932:	83 c4 10             	add    $0x10,%esp
   17935:	e9 5d ff ff ff       	jmp    17897 <init+0x185>
   1793a:	83 ec 0c             	sub    $0xc,%esp
   1793d:	68 e1 8a 01 00       	push   $0x18ae1
   17942:	e8 8c e2 ff ff       	call   15bd3 <cwrites>
   17947:	83 c4 10             	add    $0x10,%esp
   1794a:	0f b7 45 ee          	movzwl -0x12(%ebp),%eax
   1794e:	83 ec 08             	sub    $0x8,%esp
   17951:	50                   	push   %eax
   17952:	8d 45 9c             	lea    -0x64(%ebp),%eax
   17955:	50                   	push   %eax
   17956:	e8 e0 dc ff ff       	call   1563b <cvt_dec>
   1795b:	83 c4 10             	add    $0x10,%esp
   1795e:	89 45 e8             	mov    %eax,-0x18(%ebp)
   17961:	8b 45 e8             	mov    -0x18(%ebp),%eax
   17964:	83 ec 08             	sub    $0x8,%esp
   17967:	50                   	push   %eax
   17968:	8d 45 9c             	lea    -0x64(%ebp),%eax
   1796b:	50                   	push   %eax
   1796c:	e8 8c e2 ff ff       	call   15bfd <cwrite>
   17971:	83 c4 10             	add    $0x10,%esp
   17974:	83 ec 0c             	sub    $0xc,%esp
   17977:	6a 0a                	push   $0xa
   17979:	e8 34 e2 ff ff       	call   15bb2 <cwritech>
   1797e:	83 c4 10             	add    $0x10,%esp
   17981:	e9 11 ff ff ff       	jmp    17897 <init+0x185>

00017986 <exit>:
   17986:	b8 00 00 00 00       	mov    $0x0,%eax
   1798b:	cd 42                	int    $0x42
   1798d:	c3                   	ret    

0001798e <read>:
   1798e:	b8 01 00 00 00       	mov    $0x1,%eax
   17993:	cd 42                	int    $0x42
   17995:	c3                   	ret    

00017996 <write>:
   17996:	b8 02 00 00 00       	mov    $0x2,%eax
   1799b:	cd 42                	int    $0x42
   1799d:	c3                   	ret    

0001799e <fork>:
   1799e:	b8 03 00 00 00       	mov    $0x3,%eax
   179a3:	cd 42                	int    $0x42
   179a5:	c3                   	ret    

000179a6 <exec>:
   179a6:	b8 04 00 00 00       	mov    $0x4,%eax
   179ab:	cd 42                	int    $0x42
   179ad:	c3                   	ret    

000179ae <kill>:
   179ae:	b8 05 00 00 00       	mov    $0x5,%eax
   179b3:	cd 42                	int    $0x42
   179b5:	c3                   	ret    

000179b6 <wait>:
   179b6:	b8 06 00 00 00       	mov    $0x6,%eax
   179bb:	cd 42                	int    $0x42
   179bd:	c3                   	ret    

000179be <sleep>:
   179be:	b8 07 00 00 00       	mov    $0x7,%eax
   179c3:	cd 42                	int    $0x42
   179c5:	c3                   	ret    

000179c6 <time>:
   179c6:	b8 08 00 00 00       	mov    $0x8,%eax
   179cb:	cd 42                	int    $0x42
   179cd:	c3                   	ret    

000179ce <pid>:
   179ce:	b8 09 00 00 00       	mov    $0x9,%eax
   179d3:	cd 42                	int    $0x42
   179d5:	c3                   	ret    

000179d6 <ppid>:
   179d6:	b8 0a 00 00 00       	mov    $0xa,%eax
   179db:	cd 42                	int    $0x42
   179dd:	c3                   	ret    

000179de <get_prio>:
   179de:	b8 0b 00 00 00       	mov    $0xb,%eax
   179e3:	cd 42                	int    $0x42
   179e5:	c3                   	ret    

000179e6 <set_prio>:
   179e6:	b8 0c 00 00 00       	mov    $0xc,%eax
   179eb:	cd 42                	int    $0x42
   179ed:	c3                   	ret    

000179ee <dumpme>:
   179ee:	b8 0d 00 00 00       	mov    $0xd,%eax
   179f3:	cd 42                	int    $0x42
   179f5:	c3                   	ret    

000179f6 <bogus>:
   179f6:	b8 72 00 00 00       	mov    $0x72,%eax
   179fb:	cd 42                	int    $0x42
   179fd:	c3                   	ret    

000179fe <do_exit>:
   179fe:	50                   	push   %eax
   179ff:	e8 82 ff ff ff       	call   17986 <exit>

00017a04 <get_ra>:
   17a04:	8b 45 04             	mov    0x4(%ebp),%eax
   17a07:	c3                   	ret    
