
prog.o:     file format elf32-i386


Disassembly of section .text:

00010000 <_start>:
   10000:	fa                   	cli    
   10001:	b0 00                	mov    $0x0,%al
   10003:	e6 70                	out    %al,$0x70
   10005:	31 c0                	xor    %eax,%eax
   10007:	66 b8 18 00          	mov    $0x18,%ax
   1000b:	8e d8                	mov    %eax,%ds
   1000d:	8e c0                	mov    %eax,%es
   1000f:	8e e0                	mov    %eax,%fs
   10011:	8e e8                	mov    %eax,%gs
   10013:	66 b8 20 00          	mov    $0x20,%ax
   10017:	8e d0                	mov    %eax,%ss
   10019:	bd 00 00 01 00       	mov    $0x10000,%ebp
   1001e:	89 ec                	mov    %ebp,%esp
   10020:	bf c4 b5 01 00       	mov    $0x1b5c4,%edi

00010025 <clearbss>:
   10025:	c7 07 00 00 00 00    	movl   $0x0,(%edi)
   1002b:	83 c7 04             	add    $0x4,%edi
   1002e:	81 ff 88 dc 01 00    	cmp    $0x1dc88,%edi
   10034:	72 ef                	jb     10025 <clearbss>
   10036:	e8 00 53 00 00       	call   1533b <_init>
   1003b:	e9 88 00 00 00       	jmp    100c8 <__isr_restore>

00010040 <__inb>:
   10040:	c8 00 00 00          	enter  $0x0,$0x0
   10044:	31 c0                	xor    %eax,%eax
   10046:	8b 55 08             	mov    0x8(%ebp),%edx
   10049:	ec                   	in     (%dx),%al
   1004a:	c9                   	leave  
   1004b:	c3                   	ret    

0001004c <__inw>:
   1004c:	c8 00 00 00          	enter  $0x0,$0x0
   10050:	31 c0                	xor    %eax,%eax
   10052:	8b 55 08             	mov    0x8(%ebp),%edx
   10055:	66 ed                	in     (%dx),%ax
   10057:	c9                   	leave  
   10058:	c3                   	ret    

00010059 <__inl>:
   10059:	c8 00 00 00          	enter  $0x0,$0x0
   1005d:	31 c0                	xor    %eax,%eax
   1005f:	8b 55 08             	mov    0x8(%ebp),%edx
   10062:	ed                   	in     (%dx),%eax
   10063:	c9                   	leave  
   10064:	c3                   	ret    

00010065 <__outb>:
   10065:	c8 00 00 00          	enter  $0x0,$0x0
   10069:	8b 55 08             	mov    0x8(%ebp),%edx
   1006c:	8b 45 0c             	mov    0xc(%ebp),%eax
   1006f:	ee                   	out    %al,(%dx)
   10070:	c9                   	leave  
   10071:	c3                   	ret    

00010072 <__outw>:
   10072:	c8 00 00 00          	enter  $0x0,$0x0
   10076:	8b 55 08             	mov    0x8(%ebp),%edx
   10079:	8b 45 0c             	mov    0xc(%ebp),%eax
   1007c:	66 ef                	out    %ax,(%dx)
   1007e:	c9                   	leave  
   1007f:	c3                   	ret    

00010080 <__outl>:
   10080:	c8 00 00 00          	enter  $0x0,$0x0
   10084:	8b 55 08             	mov    0x8(%ebp),%edx
   10087:	8b 45 0c             	mov    0xc(%ebp),%eax
   1008a:	ef                   	out    %eax,(%dx)
   1008b:	c9                   	leave  
   1008c:	c3                   	ret    

0001008d <__get_flags>:
   1008d:	9c                   	pushf  
   1008e:	58                   	pop    %eax
   1008f:	c3                   	ret    

00010090 <__pause>:
   10090:	c8 00 00 00          	enter  $0x0,$0x0
   10094:	fb                   	sti    
   10095:	f4                   	hlt    
   10096:	c9                   	leave  
   10097:	c3                   	ret    

00010098 <__get_ra>:
   10098:	8b 45 04             	mov    0x4(%ebp),%eax
   1009b:	c3                   	ret    

0001009c <isr_save>:
   1009c:	60                   	pusha  
   1009d:	1e                   	push   %ds
   1009e:	06                   	push   %es
   1009f:	0f a0                	push   %fs
   100a1:	0f a8                	push   %gs
   100a3:	16                   	push   %ss
   100a4:	8b 44 24 34          	mov    0x34(%esp),%eax
   100a8:	8b 5c 24 38          	mov    0x38(%esp),%ebx
   100ac:	8b 15 64 cc 01 00    	mov    0x1cc64,%edx
   100b2:	89 22                	mov    %esp,(%edx)
   100b4:	8b 25 80 dc 01 00    	mov    0x1dc80,%esp
   100ba:	53                   	push   %ebx
   100bb:	50                   	push   %eax
   100bc:	8b 1c 85 a0 c7 01 00 	mov    0x1c7a0(,%eax,4),%ebx
   100c3:	ff d3                	call   *%ebx
   100c5:	83 c4 08             	add    $0x8,%esp

000100c8 <__isr_restore>:
   100c8:	8b 1d 64 cc 01 00    	mov    0x1cc64,%ebx
   100ce:	8b 23                	mov    (%ebx),%esp
   100d0:	31 c0                	xor    %eax,%eax
   100d2:	66 8b 43 12          	mov    0x12(%ebx),%ax
   100d6:	50                   	push   %eax
   100d7:	66 8b 43 10          	mov    0x10(%ebx),%ax
   100db:	50                   	push   %eax
   100dc:	ff 35 a0 cb 01 00    	pushl  0x1cba0
   100e2:	68 ff 00 01 00       	push   $0x100ff
   100e7:	6a 01                	push   $0x1
   100e9:	6a 00                	push   $0x0
   100eb:	e8 45 17 00 00       	call   11835 <c_printf_at>
   100f0:	83 c4 18             	add    $0x18,%esp
   100f3:	17                   	pop    %ss
   100f4:	0f a9                	pop    %gs
   100f6:	0f a1                	pop    %fs
   100f8:	07                   	pop    %es
   100f9:	1f                   	pop    %ds
   100fa:	61                   	popa   
   100fb:	83 c4 08             	add    $0x8,%esp
   100fe:	cf                   	iret   

000100ff <fmt>:
   100ff:	74 69                	je     1016a <fmt+0x6b>
   10101:	6d                   	insl   (%dx),%es:(%edi)
   10102:	65 20 25 30 38 78 20 	and    %ah,%gs:0x20783830
   10109:	70 69                	jo     10174 <fmt+0x75>
   1010b:	64 20 25 35 64 20 70 	and    %ah,%fs:0x70206435
   10112:	70 69                	jo     1017d <fmt+0x7e>
   10114:	64 20 25 35 64 0a 20 	and    %ah,%fs:0x200a6435
   1011b:	73 73                	jae    10190 <fmt+0x91>
   1011d:	3d 25 30 38 78       	cmp    $0x78383025,%eax
   10122:	20 20                	and    %ah,(%eax)
   10124:	67 73 3d             	addr16 jae 10164 <fmt+0x65>
   10127:	25 30 38 78 20       	and    $0x20783830,%eax
   1012c:	20 66 73             	and    %ah,0x73(%esi)
   1012f:	3d 25 30 38 78       	cmp    $0x78383025,%eax
   10134:	20 20                	and    %ah,(%eax)
   10136:	65 73 3d             	gs jae 10176 <fmt+0x77>
   10139:	25 30 38 78 20       	and    $0x20783830,%eax
   1013e:	20 64 73 3d          	and    %ah,0x3d(%ebx,%esi,2)
   10142:	25 30 38 78 0a       	and    $0xa783830,%eax
   10147:	65 64 69 3d 25 30 38 	gs imul $0x69736520,%fs:0x78383025,%edi
   1014e:	78 20 65 73 69 
   10153:	3d 25 30 38 78       	cmp    $0x78383025,%eax
   10158:	20 65 62             	and    %ah,0x62(%ebp)
   1015b:	70 3d                	jo     1019a <fmt+0x9b>
   1015d:	25 30 38 78 20       	and    $0x20783830,%eax
   10162:	65 73 70             	gs jae 101d5 <__isr_0x02+0x6>
   10165:	3d 25 30 38 78       	cmp    $0x78383025,%eax
   1016a:	20 65 62             	and    %ah,0x62(%ebp)
   1016d:	78 3d                	js     101ac <fmt+0xad>
   1016f:	25 30 38 78 0a       	and    $0xa783830,%eax
   10174:	65 64 78 3d          	gs fs js 101b5 <fmt+0xb6>
   10178:	25 30 38 78 20       	and    $0x20783830,%eax
   1017d:	65 63 78 3d          	arpl   %di,%gs:0x3d(%eax)
   10181:	25 30 38 78 20       	and    $0x20783830,%eax
   10186:	65 61                	gs popa 
   10188:	78 3d                	js     101c7 <__isr_0x01+0x1>
   1018a:	25 30 38 78 20       	and    $0x20783830,%eax
   1018f:	76 65                	jbe    101f6 <__isr_0x06+0x3>
   10191:	63 3d 25 30 38 78    	arpl   %di,0x78383025
   10197:	20 63 6f             	and    %ah,0x6f(%ebx)
   1019a:	64 3d 25 30 38 78    	fs cmp $0x78383025,%eax
   101a0:	0a 65 69             	or     0x69(%ebp),%ah
   101a3:	70 3d                	jo     101e2 <__isr_0x04+0x1>
   101a5:	25 30 38 78 20       	and    $0x20783830,%eax
   101aa:	20 63 73             	and    %ah,0x73(%ebx)
   101ad:	3d 25 30 38 78       	cmp    $0x78383025,%eax
   101b2:	20 65 66             	and    %ah,0x66(%ebp)
   101b5:	6c                   	insb   (%dx),%es:(%edi)
   101b6:	3d 25 30 38 78       	cmp    $0x78383025,%eax
   101bb:	0a 00                	or     (%eax),%al

000101bd <__isr_0x00>:
   101bd:	6a 00                	push   $0x0
   101bf:	6a 00                	push   $0x0
   101c1:	e9 d6 fe ff ff       	jmp    1009c <isr_save>

000101c6 <__isr_0x01>:
   101c6:	6a 00                	push   $0x0
   101c8:	6a 01                	push   $0x1
   101ca:	e9 cd fe ff ff       	jmp    1009c <isr_save>

000101cf <__isr_0x02>:
   101cf:	6a 00                	push   $0x0
   101d1:	6a 02                	push   $0x2
   101d3:	e9 c4 fe ff ff       	jmp    1009c <isr_save>

000101d8 <__isr_0x03>:
   101d8:	6a 00                	push   $0x0
   101da:	6a 03                	push   $0x3
   101dc:	e9 bb fe ff ff       	jmp    1009c <isr_save>

000101e1 <__isr_0x04>:
   101e1:	6a 00                	push   $0x0
   101e3:	6a 04                	push   $0x4
   101e5:	e9 b2 fe ff ff       	jmp    1009c <isr_save>

000101ea <__isr_0x05>:
   101ea:	6a 00                	push   $0x0
   101ec:	6a 05                	push   $0x5
   101ee:	e9 a9 fe ff ff       	jmp    1009c <isr_save>

000101f3 <__isr_0x06>:
   101f3:	6a 00                	push   $0x0
   101f5:	6a 06                	push   $0x6
   101f7:	e9 a0 fe ff ff       	jmp    1009c <isr_save>

000101fc <__isr_0x07>:
   101fc:	6a 00                	push   $0x0
   101fe:	6a 07                	push   $0x7
   10200:	e9 97 fe ff ff       	jmp    1009c <isr_save>

00010205 <__isr_0x08>:
   10205:	6a 08                	push   $0x8
   10207:	e9 90 fe ff ff       	jmp    1009c <isr_save>

0001020c <__isr_0x09>:
   1020c:	6a 00                	push   $0x0
   1020e:	6a 09                	push   $0x9
   10210:	e9 87 fe ff ff       	jmp    1009c <isr_save>

00010215 <__isr_0x0a>:
   10215:	6a 0a                	push   $0xa
   10217:	e9 80 fe ff ff       	jmp    1009c <isr_save>

0001021c <__isr_0x0b>:
   1021c:	6a 0b                	push   $0xb
   1021e:	e9 79 fe ff ff       	jmp    1009c <isr_save>

00010223 <__isr_0x0c>:
   10223:	6a 0c                	push   $0xc
   10225:	e9 72 fe ff ff       	jmp    1009c <isr_save>

0001022a <__isr_0x0d>:
   1022a:	6a 0d                	push   $0xd
   1022c:	e9 6b fe ff ff       	jmp    1009c <isr_save>

00010231 <__isr_0x0e>:
   10231:	6a 0e                	push   $0xe
   10233:	e9 64 fe ff ff       	jmp    1009c <isr_save>

00010238 <__isr_0x0f>:
   10238:	6a 00                	push   $0x0
   1023a:	6a 0f                	push   $0xf
   1023c:	e9 5b fe ff ff       	jmp    1009c <isr_save>

00010241 <__isr_0x10>:
   10241:	6a 00                	push   $0x0
   10243:	6a 10                	push   $0x10
   10245:	e9 52 fe ff ff       	jmp    1009c <isr_save>

0001024a <__isr_0x11>:
   1024a:	6a 11                	push   $0x11
   1024c:	e9 4b fe ff ff       	jmp    1009c <isr_save>

00010251 <__isr_0x12>:
   10251:	6a 00                	push   $0x0
   10253:	6a 12                	push   $0x12
   10255:	e9 42 fe ff ff       	jmp    1009c <isr_save>

0001025a <__isr_0x13>:
   1025a:	6a 00                	push   $0x0
   1025c:	6a 13                	push   $0x13
   1025e:	e9 39 fe ff ff       	jmp    1009c <isr_save>

00010263 <__isr_0x14>:
   10263:	6a 00                	push   $0x0
   10265:	6a 14                	push   $0x14
   10267:	e9 30 fe ff ff       	jmp    1009c <isr_save>

0001026c <__isr_0x15>:
   1026c:	6a 00                	push   $0x0
   1026e:	6a 15                	push   $0x15
   10270:	e9 27 fe ff ff       	jmp    1009c <isr_save>

00010275 <__isr_0x16>:
   10275:	6a 00                	push   $0x0
   10277:	6a 16                	push   $0x16
   10279:	e9 1e fe ff ff       	jmp    1009c <isr_save>

0001027e <__isr_0x17>:
   1027e:	6a 00                	push   $0x0
   10280:	6a 17                	push   $0x17
   10282:	e9 15 fe ff ff       	jmp    1009c <isr_save>

00010287 <__isr_0x18>:
   10287:	6a 00                	push   $0x0
   10289:	6a 18                	push   $0x18
   1028b:	e9 0c fe ff ff       	jmp    1009c <isr_save>

00010290 <__isr_0x19>:
   10290:	6a 00                	push   $0x0
   10292:	6a 19                	push   $0x19
   10294:	e9 03 fe ff ff       	jmp    1009c <isr_save>

00010299 <__isr_0x1a>:
   10299:	6a 00                	push   $0x0
   1029b:	6a 1a                	push   $0x1a
   1029d:	e9 fa fd ff ff       	jmp    1009c <isr_save>

000102a2 <__isr_0x1b>:
   102a2:	6a 00                	push   $0x0
   102a4:	6a 1b                	push   $0x1b
   102a6:	e9 f1 fd ff ff       	jmp    1009c <isr_save>

000102ab <__isr_0x1c>:
   102ab:	6a 00                	push   $0x0
   102ad:	6a 1c                	push   $0x1c
   102af:	e9 e8 fd ff ff       	jmp    1009c <isr_save>

000102b4 <__isr_0x1d>:
   102b4:	6a 00                	push   $0x0
   102b6:	6a 1d                	push   $0x1d
   102b8:	e9 df fd ff ff       	jmp    1009c <isr_save>

000102bd <__isr_0x1e>:
   102bd:	6a 00                	push   $0x0
   102bf:	6a 1e                	push   $0x1e
   102c1:	e9 d6 fd ff ff       	jmp    1009c <isr_save>

000102c6 <__isr_0x1f>:
   102c6:	6a 00                	push   $0x0
   102c8:	6a 1f                	push   $0x1f
   102ca:	e9 cd fd ff ff       	jmp    1009c <isr_save>

000102cf <__isr_0x20>:
   102cf:	6a 00                	push   $0x0
   102d1:	6a 20                	push   $0x20
   102d3:	e9 c4 fd ff ff       	jmp    1009c <isr_save>

000102d8 <__isr_0x21>:
   102d8:	6a 00                	push   $0x0
   102da:	6a 21                	push   $0x21
   102dc:	e9 bb fd ff ff       	jmp    1009c <isr_save>

000102e1 <__isr_0x22>:
   102e1:	6a 00                	push   $0x0
   102e3:	6a 22                	push   $0x22
   102e5:	e9 b2 fd ff ff       	jmp    1009c <isr_save>

000102ea <__isr_0x23>:
   102ea:	6a 00                	push   $0x0
   102ec:	6a 23                	push   $0x23
   102ee:	e9 a9 fd ff ff       	jmp    1009c <isr_save>

000102f3 <__isr_0x24>:
   102f3:	6a 00                	push   $0x0
   102f5:	6a 24                	push   $0x24
   102f7:	e9 a0 fd ff ff       	jmp    1009c <isr_save>

000102fc <__isr_0x25>:
   102fc:	6a 00                	push   $0x0
   102fe:	6a 25                	push   $0x25
   10300:	e9 97 fd ff ff       	jmp    1009c <isr_save>

00010305 <__isr_0x26>:
   10305:	6a 00                	push   $0x0
   10307:	6a 26                	push   $0x26
   10309:	e9 8e fd ff ff       	jmp    1009c <isr_save>

0001030e <__isr_0x27>:
   1030e:	6a 00                	push   $0x0
   10310:	6a 27                	push   $0x27
   10312:	e9 85 fd ff ff       	jmp    1009c <isr_save>

00010317 <__isr_0x28>:
   10317:	6a 00                	push   $0x0
   10319:	6a 28                	push   $0x28
   1031b:	e9 7c fd ff ff       	jmp    1009c <isr_save>

00010320 <__isr_0x29>:
   10320:	6a 00                	push   $0x0
   10322:	6a 29                	push   $0x29
   10324:	e9 73 fd ff ff       	jmp    1009c <isr_save>

00010329 <__isr_0x2a>:
   10329:	6a 00                	push   $0x0
   1032b:	6a 2a                	push   $0x2a
   1032d:	e9 6a fd ff ff       	jmp    1009c <isr_save>

00010332 <__isr_0x2b>:
   10332:	6a 00                	push   $0x0
   10334:	6a 2b                	push   $0x2b
   10336:	e9 61 fd ff ff       	jmp    1009c <isr_save>

0001033b <__isr_0x2c>:
   1033b:	6a 00                	push   $0x0
   1033d:	6a 2c                	push   $0x2c
   1033f:	e9 58 fd ff ff       	jmp    1009c <isr_save>

00010344 <__isr_0x2d>:
   10344:	6a 00                	push   $0x0
   10346:	6a 2d                	push   $0x2d
   10348:	e9 4f fd ff ff       	jmp    1009c <isr_save>

0001034d <__isr_0x2e>:
   1034d:	6a 00                	push   $0x0
   1034f:	6a 2e                	push   $0x2e
   10351:	e9 46 fd ff ff       	jmp    1009c <isr_save>

00010356 <__isr_0x2f>:
   10356:	6a 00                	push   $0x0
   10358:	6a 2f                	push   $0x2f
   1035a:	e9 3d fd ff ff       	jmp    1009c <isr_save>

0001035f <__isr_0x30>:
   1035f:	6a 00                	push   $0x0
   10361:	6a 30                	push   $0x30
   10363:	e9 34 fd ff ff       	jmp    1009c <isr_save>

00010368 <__isr_0x31>:
   10368:	6a 00                	push   $0x0
   1036a:	6a 31                	push   $0x31
   1036c:	e9 2b fd ff ff       	jmp    1009c <isr_save>

00010371 <__isr_0x32>:
   10371:	6a 00                	push   $0x0
   10373:	6a 32                	push   $0x32
   10375:	e9 22 fd ff ff       	jmp    1009c <isr_save>

0001037a <__isr_0x33>:
   1037a:	6a 00                	push   $0x0
   1037c:	6a 33                	push   $0x33
   1037e:	e9 19 fd ff ff       	jmp    1009c <isr_save>

00010383 <__isr_0x34>:
   10383:	6a 00                	push   $0x0
   10385:	6a 34                	push   $0x34
   10387:	e9 10 fd ff ff       	jmp    1009c <isr_save>

0001038c <__isr_0x35>:
   1038c:	6a 00                	push   $0x0
   1038e:	6a 35                	push   $0x35
   10390:	e9 07 fd ff ff       	jmp    1009c <isr_save>

00010395 <__isr_0x36>:
   10395:	6a 00                	push   $0x0
   10397:	6a 36                	push   $0x36
   10399:	e9 fe fc ff ff       	jmp    1009c <isr_save>

0001039e <__isr_0x37>:
   1039e:	6a 00                	push   $0x0
   103a0:	6a 37                	push   $0x37
   103a2:	e9 f5 fc ff ff       	jmp    1009c <isr_save>

000103a7 <__isr_0x38>:
   103a7:	6a 00                	push   $0x0
   103a9:	6a 38                	push   $0x38
   103ab:	e9 ec fc ff ff       	jmp    1009c <isr_save>

000103b0 <__isr_0x39>:
   103b0:	6a 00                	push   $0x0
   103b2:	6a 39                	push   $0x39
   103b4:	e9 e3 fc ff ff       	jmp    1009c <isr_save>

000103b9 <__isr_0x3a>:
   103b9:	6a 00                	push   $0x0
   103bb:	6a 3a                	push   $0x3a
   103bd:	e9 da fc ff ff       	jmp    1009c <isr_save>

000103c2 <__isr_0x3b>:
   103c2:	6a 00                	push   $0x0
   103c4:	6a 3b                	push   $0x3b
   103c6:	e9 d1 fc ff ff       	jmp    1009c <isr_save>

000103cb <__isr_0x3c>:
   103cb:	6a 00                	push   $0x0
   103cd:	6a 3c                	push   $0x3c
   103cf:	e9 c8 fc ff ff       	jmp    1009c <isr_save>

000103d4 <__isr_0x3d>:
   103d4:	6a 00                	push   $0x0
   103d6:	6a 3d                	push   $0x3d
   103d8:	e9 bf fc ff ff       	jmp    1009c <isr_save>

000103dd <__isr_0x3e>:
   103dd:	6a 00                	push   $0x0
   103df:	6a 3e                	push   $0x3e
   103e1:	e9 b6 fc ff ff       	jmp    1009c <isr_save>

000103e6 <__isr_0x3f>:
   103e6:	6a 00                	push   $0x0
   103e8:	6a 3f                	push   $0x3f
   103ea:	e9 ad fc ff ff       	jmp    1009c <isr_save>

000103ef <__isr_0x40>:
   103ef:	6a 00                	push   $0x0
   103f1:	6a 40                	push   $0x40
   103f3:	e9 a4 fc ff ff       	jmp    1009c <isr_save>

000103f8 <__isr_0x41>:
   103f8:	6a 00                	push   $0x0
   103fa:	6a 41                	push   $0x41
   103fc:	e9 9b fc ff ff       	jmp    1009c <isr_save>

00010401 <__isr_0x42>:
   10401:	6a 00                	push   $0x0
   10403:	6a 42                	push   $0x42
   10405:	e9 92 fc ff ff       	jmp    1009c <isr_save>

0001040a <__isr_0x43>:
   1040a:	6a 00                	push   $0x0
   1040c:	6a 43                	push   $0x43
   1040e:	e9 89 fc ff ff       	jmp    1009c <isr_save>

00010413 <__isr_0x44>:
   10413:	6a 00                	push   $0x0
   10415:	6a 44                	push   $0x44
   10417:	e9 80 fc ff ff       	jmp    1009c <isr_save>

0001041c <__isr_0x45>:
   1041c:	6a 00                	push   $0x0
   1041e:	6a 45                	push   $0x45
   10420:	e9 77 fc ff ff       	jmp    1009c <isr_save>

00010425 <__isr_0x46>:
   10425:	6a 00                	push   $0x0
   10427:	6a 46                	push   $0x46
   10429:	e9 6e fc ff ff       	jmp    1009c <isr_save>

0001042e <__isr_0x47>:
   1042e:	6a 00                	push   $0x0
   10430:	6a 47                	push   $0x47
   10432:	e9 65 fc ff ff       	jmp    1009c <isr_save>

00010437 <__isr_0x48>:
   10437:	6a 00                	push   $0x0
   10439:	6a 48                	push   $0x48
   1043b:	e9 5c fc ff ff       	jmp    1009c <isr_save>

00010440 <__isr_0x49>:
   10440:	6a 00                	push   $0x0
   10442:	6a 49                	push   $0x49
   10444:	e9 53 fc ff ff       	jmp    1009c <isr_save>

00010449 <__isr_0x4a>:
   10449:	6a 00                	push   $0x0
   1044b:	6a 4a                	push   $0x4a
   1044d:	e9 4a fc ff ff       	jmp    1009c <isr_save>

00010452 <__isr_0x4b>:
   10452:	6a 00                	push   $0x0
   10454:	6a 4b                	push   $0x4b
   10456:	e9 41 fc ff ff       	jmp    1009c <isr_save>

0001045b <__isr_0x4c>:
   1045b:	6a 00                	push   $0x0
   1045d:	6a 4c                	push   $0x4c
   1045f:	e9 38 fc ff ff       	jmp    1009c <isr_save>

00010464 <__isr_0x4d>:
   10464:	6a 00                	push   $0x0
   10466:	6a 4d                	push   $0x4d
   10468:	e9 2f fc ff ff       	jmp    1009c <isr_save>

0001046d <__isr_0x4e>:
   1046d:	6a 00                	push   $0x0
   1046f:	6a 4e                	push   $0x4e
   10471:	e9 26 fc ff ff       	jmp    1009c <isr_save>

00010476 <__isr_0x4f>:
   10476:	6a 00                	push   $0x0
   10478:	6a 4f                	push   $0x4f
   1047a:	e9 1d fc ff ff       	jmp    1009c <isr_save>

0001047f <__isr_0x50>:
   1047f:	6a 00                	push   $0x0
   10481:	6a 50                	push   $0x50
   10483:	e9 14 fc ff ff       	jmp    1009c <isr_save>

00010488 <__isr_0x51>:
   10488:	6a 00                	push   $0x0
   1048a:	6a 51                	push   $0x51
   1048c:	e9 0b fc ff ff       	jmp    1009c <isr_save>

00010491 <__isr_0x52>:
   10491:	6a 00                	push   $0x0
   10493:	6a 52                	push   $0x52
   10495:	e9 02 fc ff ff       	jmp    1009c <isr_save>

0001049a <__isr_0x53>:
   1049a:	6a 00                	push   $0x0
   1049c:	6a 53                	push   $0x53
   1049e:	e9 f9 fb ff ff       	jmp    1009c <isr_save>

000104a3 <__isr_0x54>:
   104a3:	6a 00                	push   $0x0
   104a5:	6a 54                	push   $0x54
   104a7:	e9 f0 fb ff ff       	jmp    1009c <isr_save>

000104ac <__isr_0x55>:
   104ac:	6a 00                	push   $0x0
   104ae:	6a 55                	push   $0x55
   104b0:	e9 e7 fb ff ff       	jmp    1009c <isr_save>

000104b5 <__isr_0x56>:
   104b5:	6a 00                	push   $0x0
   104b7:	6a 56                	push   $0x56
   104b9:	e9 de fb ff ff       	jmp    1009c <isr_save>

000104be <__isr_0x57>:
   104be:	6a 00                	push   $0x0
   104c0:	6a 57                	push   $0x57
   104c2:	e9 d5 fb ff ff       	jmp    1009c <isr_save>

000104c7 <__isr_0x58>:
   104c7:	6a 00                	push   $0x0
   104c9:	6a 58                	push   $0x58
   104cb:	e9 cc fb ff ff       	jmp    1009c <isr_save>

000104d0 <__isr_0x59>:
   104d0:	6a 00                	push   $0x0
   104d2:	6a 59                	push   $0x59
   104d4:	e9 c3 fb ff ff       	jmp    1009c <isr_save>

000104d9 <__isr_0x5a>:
   104d9:	6a 00                	push   $0x0
   104db:	6a 5a                	push   $0x5a
   104dd:	e9 ba fb ff ff       	jmp    1009c <isr_save>

000104e2 <__isr_0x5b>:
   104e2:	6a 00                	push   $0x0
   104e4:	6a 5b                	push   $0x5b
   104e6:	e9 b1 fb ff ff       	jmp    1009c <isr_save>

000104eb <__isr_0x5c>:
   104eb:	6a 00                	push   $0x0
   104ed:	6a 5c                	push   $0x5c
   104ef:	e9 a8 fb ff ff       	jmp    1009c <isr_save>

000104f4 <__isr_0x5d>:
   104f4:	6a 00                	push   $0x0
   104f6:	6a 5d                	push   $0x5d
   104f8:	e9 9f fb ff ff       	jmp    1009c <isr_save>

000104fd <__isr_0x5e>:
   104fd:	6a 00                	push   $0x0
   104ff:	6a 5e                	push   $0x5e
   10501:	e9 96 fb ff ff       	jmp    1009c <isr_save>

00010506 <__isr_0x5f>:
   10506:	6a 00                	push   $0x0
   10508:	6a 5f                	push   $0x5f
   1050a:	e9 8d fb ff ff       	jmp    1009c <isr_save>

0001050f <__isr_0x60>:
   1050f:	6a 00                	push   $0x0
   10511:	6a 60                	push   $0x60
   10513:	e9 84 fb ff ff       	jmp    1009c <isr_save>

00010518 <__isr_0x61>:
   10518:	6a 00                	push   $0x0
   1051a:	6a 61                	push   $0x61
   1051c:	e9 7b fb ff ff       	jmp    1009c <isr_save>

00010521 <__isr_0x62>:
   10521:	6a 00                	push   $0x0
   10523:	6a 62                	push   $0x62
   10525:	e9 72 fb ff ff       	jmp    1009c <isr_save>

0001052a <__isr_0x63>:
   1052a:	6a 00                	push   $0x0
   1052c:	6a 63                	push   $0x63
   1052e:	e9 69 fb ff ff       	jmp    1009c <isr_save>

00010533 <__isr_0x64>:
   10533:	6a 00                	push   $0x0
   10535:	6a 64                	push   $0x64
   10537:	e9 60 fb ff ff       	jmp    1009c <isr_save>

0001053c <__isr_0x65>:
   1053c:	6a 00                	push   $0x0
   1053e:	6a 65                	push   $0x65
   10540:	e9 57 fb ff ff       	jmp    1009c <isr_save>

00010545 <__isr_0x66>:
   10545:	6a 00                	push   $0x0
   10547:	6a 66                	push   $0x66
   10549:	e9 4e fb ff ff       	jmp    1009c <isr_save>

0001054e <__isr_0x67>:
   1054e:	6a 00                	push   $0x0
   10550:	6a 67                	push   $0x67
   10552:	e9 45 fb ff ff       	jmp    1009c <isr_save>

00010557 <__isr_0x68>:
   10557:	6a 00                	push   $0x0
   10559:	6a 68                	push   $0x68
   1055b:	e9 3c fb ff ff       	jmp    1009c <isr_save>

00010560 <__isr_0x69>:
   10560:	6a 00                	push   $0x0
   10562:	6a 69                	push   $0x69
   10564:	e9 33 fb ff ff       	jmp    1009c <isr_save>

00010569 <__isr_0x6a>:
   10569:	6a 00                	push   $0x0
   1056b:	6a 6a                	push   $0x6a
   1056d:	e9 2a fb ff ff       	jmp    1009c <isr_save>

00010572 <__isr_0x6b>:
   10572:	6a 00                	push   $0x0
   10574:	6a 6b                	push   $0x6b
   10576:	e9 21 fb ff ff       	jmp    1009c <isr_save>

0001057b <__isr_0x6c>:
   1057b:	6a 00                	push   $0x0
   1057d:	6a 6c                	push   $0x6c
   1057f:	e9 18 fb ff ff       	jmp    1009c <isr_save>

00010584 <__isr_0x6d>:
   10584:	6a 00                	push   $0x0
   10586:	6a 6d                	push   $0x6d
   10588:	e9 0f fb ff ff       	jmp    1009c <isr_save>

0001058d <__isr_0x6e>:
   1058d:	6a 00                	push   $0x0
   1058f:	6a 6e                	push   $0x6e
   10591:	e9 06 fb ff ff       	jmp    1009c <isr_save>

00010596 <__isr_0x6f>:
   10596:	6a 00                	push   $0x0
   10598:	6a 6f                	push   $0x6f
   1059a:	e9 fd fa ff ff       	jmp    1009c <isr_save>

0001059f <__isr_0x70>:
   1059f:	6a 00                	push   $0x0
   105a1:	6a 70                	push   $0x70
   105a3:	e9 f4 fa ff ff       	jmp    1009c <isr_save>

000105a8 <__isr_0x71>:
   105a8:	6a 00                	push   $0x0
   105aa:	6a 71                	push   $0x71
   105ac:	e9 eb fa ff ff       	jmp    1009c <isr_save>

000105b1 <__isr_0x72>:
   105b1:	6a 00                	push   $0x0
   105b3:	6a 72                	push   $0x72
   105b5:	e9 e2 fa ff ff       	jmp    1009c <isr_save>

000105ba <__isr_0x73>:
   105ba:	6a 00                	push   $0x0
   105bc:	6a 73                	push   $0x73
   105be:	e9 d9 fa ff ff       	jmp    1009c <isr_save>

000105c3 <__isr_0x74>:
   105c3:	6a 00                	push   $0x0
   105c5:	6a 74                	push   $0x74
   105c7:	e9 d0 fa ff ff       	jmp    1009c <isr_save>

000105cc <__isr_0x75>:
   105cc:	6a 00                	push   $0x0
   105ce:	6a 75                	push   $0x75
   105d0:	e9 c7 fa ff ff       	jmp    1009c <isr_save>

000105d5 <__isr_0x76>:
   105d5:	6a 00                	push   $0x0
   105d7:	6a 76                	push   $0x76
   105d9:	e9 be fa ff ff       	jmp    1009c <isr_save>

000105de <__isr_0x77>:
   105de:	6a 00                	push   $0x0
   105e0:	6a 77                	push   $0x77
   105e2:	e9 b5 fa ff ff       	jmp    1009c <isr_save>

000105e7 <__isr_0x78>:
   105e7:	6a 00                	push   $0x0
   105e9:	6a 78                	push   $0x78
   105eb:	e9 ac fa ff ff       	jmp    1009c <isr_save>

000105f0 <__isr_0x79>:
   105f0:	6a 00                	push   $0x0
   105f2:	6a 79                	push   $0x79
   105f4:	e9 a3 fa ff ff       	jmp    1009c <isr_save>

000105f9 <__isr_0x7a>:
   105f9:	6a 00                	push   $0x0
   105fb:	6a 7a                	push   $0x7a
   105fd:	e9 9a fa ff ff       	jmp    1009c <isr_save>

00010602 <__isr_0x7b>:
   10602:	6a 00                	push   $0x0
   10604:	6a 7b                	push   $0x7b
   10606:	e9 91 fa ff ff       	jmp    1009c <isr_save>

0001060b <__isr_0x7c>:
   1060b:	6a 00                	push   $0x0
   1060d:	6a 7c                	push   $0x7c
   1060f:	e9 88 fa ff ff       	jmp    1009c <isr_save>

00010614 <__isr_0x7d>:
   10614:	6a 00                	push   $0x0
   10616:	6a 7d                	push   $0x7d
   10618:	e9 7f fa ff ff       	jmp    1009c <isr_save>

0001061d <__isr_0x7e>:
   1061d:	6a 00                	push   $0x0
   1061f:	6a 7e                	push   $0x7e
   10621:	e9 76 fa ff ff       	jmp    1009c <isr_save>

00010626 <__isr_0x7f>:
   10626:	6a 00                	push   $0x0
   10628:	6a 7f                	push   $0x7f
   1062a:	e9 6d fa ff ff       	jmp    1009c <isr_save>

0001062f <__isr_0x80>:
   1062f:	6a 00                	push   $0x0
   10631:	68 80 00 00 00       	push   $0x80
   10636:	e9 61 fa ff ff       	jmp    1009c <isr_save>

0001063b <__isr_0x81>:
   1063b:	6a 00                	push   $0x0
   1063d:	68 81 00 00 00       	push   $0x81
   10642:	e9 55 fa ff ff       	jmp    1009c <isr_save>

00010647 <__isr_0x82>:
   10647:	6a 00                	push   $0x0
   10649:	68 82 00 00 00       	push   $0x82
   1064e:	e9 49 fa ff ff       	jmp    1009c <isr_save>

00010653 <__isr_0x83>:
   10653:	6a 00                	push   $0x0
   10655:	68 83 00 00 00       	push   $0x83
   1065a:	e9 3d fa ff ff       	jmp    1009c <isr_save>

0001065f <__isr_0x84>:
   1065f:	6a 00                	push   $0x0
   10661:	68 84 00 00 00       	push   $0x84
   10666:	e9 31 fa ff ff       	jmp    1009c <isr_save>

0001066b <__isr_0x85>:
   1066b:	6a 00                	push   $0x0
   1066d:	68 85 00 00 00       	push   $0x85
   10672:	e9 25 fa ff ff       	jmp    1009c <isr_save>

00010677 <__isr_0x86>:
   10677:	6a 00                	push   $0x0
   10679:	68 86 00 00 00       	push   $0x86
   1067e:	e9 19 fa ff ff       	jmp    1009c <isr_save>

00010683 <__isr_0x87>:
   10683:	6a 00                	push   $0x0
   10685:	68 87 00 00 00       	push   $0x87
   1068a:	e9 0d fa ff ff       	jmp    1009c <isr_save>

0001068f <__isr_0x88>:
   1068f:	6a 00                	push   $0x0
   10691:	68 88 00 00 00       	push   $0x88
   10696:	e9 01 fa ff ff       	jmp    1009c <isr_save>

0001069b <__isr_0x89>:
   1069b:	6a 00                	push   $0x0
   1069d:	68 89 00 00 00       	push   $0x89
   106a2:	e9 f5 f9 ff ff       	jmp    1009c <isr_save>

000106a7 <__isr_0x8a>:
   106a7:	6a 00                	push   $0x0
   106a9:	68 8a 00 00 00       	push   $0x8a
   106ae:	e9 e9 f9 ff ff       	jmp    1009c <isr_save>

000106b3 <__isr_0x8b>:
   106b3:	6a 00                	push   $0x0
   106b5:	68 8b 00 00 00       	push   $0x8b
   106ba:	e9 dd f9 ff ff       	jmp    1009c <isr_save>

000106bf <__isr_0x8c>:
   106bf:	6a 00                	push   $0x0
   106c1:	68 8c 00 00 00       	push   $0x8c
   106c6:	e9 d1 f9 ff ff       	jmp    1009c <isr_save>

000106cb <__isr_0x8d>:
   106cb:	6a 00                	push   $0x0
   106cd:	68 8d 00 00 00       	push   $0x8d
   106d2:	e9 c5 f9 ff ff       	jmp    1009c <isr_save>

000106d7 <__isr_0x8e>:
   106d7:	6a 00                	push   $0x0
   106d9:	68 8e 00 00 00       	push   $0x8e
   106de:	e9 b9 f9 ff ff       	jmp    1009c <isr_save>

000106e3 <__isr_0x8f>:
   106e3:	6a 00                	push   $0x0
   106e5:	68 8f 00 00 00       	push   $0x8f
   106ea:	e9 ad f9 ff ff       	jmp    1009c <isr_save>

000106ef <__isr_0x90>:
   106ef:	6a 00                	push   $0x0
   106f1:	68 90 00 00 00       	push   $0x90
   106f6:	e9 a1 f9 ff ff       	jmp    1009c <isr_save>

000106fb <__isr_0x91>:
   106fb:	6a 00                	push   $0x0
   106fd:	68 91 00 00 00       	push   $0x91
   10702:	e9 95 f9 ff ff       	jmp    1009c <isr_save>

00010707 <__isr_0x92>:
   10707:	6a 00                	push   $0x0
   10709:	68 92 00 00 00       	push   $0x92
   1070e:	e9 89 f9 ff ff       	jmp    1009c <isr_save>

00010713 <__isr_0x93>:
   10713:	6a 00                	push   $0x0
   10715:	68 93 00 00 00       	push   $0x93
   1071a:	e9 7d f9 ff ff       	jmp    1009c <isr_save>

0001071f <__isr_0x94>:
   1071f:	6a 00                	push   $0x0
   10721:	68 94 00 00 00       	push   $0x94
   10726:	e9 71 f9 ff ff       	jmp    1009c <isr_save>

0001072b <__isr_0x95>:
   1072b:	6a 00                	push   $0x0
   1072d:	68 95 00 00 00       	push   $0x95
   10732:	e9 65 f9 ff ff       	jmp    1009c <isr_save>

00010737 <__isr_0x96>:
   10737:	6a 00                	push   $0x0
   10739:	68 96 00 00 00       	push   $0x96
   1073e:	e9 59 f9 ff ff       	jmp    1009c <isr_save>

00010743 <__isr_0x97>:
   10743:	6a 00                	push   $0x0
   10745:	68 97 00 00 00       	push   $0x97
   1074a:	e9 4d f9 ff ff       	jmp    1009c <isr_save>

0001074f <__isr_0x98>:
   1074f:	6a 00                	push   $0x0
   10751:	68 98 00 00 00       	push   $0x98
   10756:	e9 41 f9 ff ff       	jmp    1009c <isr_save>

0001075b <__isr_0x99>:
   1075b:	6a 00                	push   $0x0
   1075d:	68 99 00 00 00       	push   $0x99
   10762:	e9 35 f9 ff ff       	jmp    1009c <isr_save>

00010767 <__isr_0x9a>:
   10767:	6a 00                	push   $0x0
   10769:	68 9a 00 00 00       	push   $0x9a
   1076e:	e9 29 f9 ff ff       	jmp    1009c <isr_save>

00010773 <__isr_0x9b>:
   10773:	6a 00                	push   $0x0
   10775:	68 9b 00 00 00       	push   $0x9b
   1077a:	e9 1d f9 ff ff       	jmp    1009c <isr_save>

0001077f <__isr_0x9c>:
   1077f:	6a 00                	push   $0x0
   10781:	68 9c 00 00 00       	push   $0x9c
   10786:	e9 11 f9 ff ff       	jmp    1009c <isr_save>

0001078b <__isr_0x9d>:
   1078b:	6a 00                	push   $0x0
   1078d:	68 9d 00 00 00       	push   $0x9d
   10792:	e9 05 f9 ff ff       	jmp    1009c <isr_save>

00010797 <__isr_0x9e>:
   10797:	6a 00                	push   $0x0
   10799:	68 9e 00 00 00       	push   $0x9e
   1079e:	e9 f9 f8 ff ff       	jmp    1009c <isr_save>

000107a3 <__isr_0x9f>:
   107a3:	6a 00                	push   $0x0
   107a5:	68 9f 00 00 00       	push   $0x9f
   107aa:	e9 ed f8 ff ff       	jmp    1009c <isr_save>

000107af <__isr_0xa0>:
   107af:	6a 00                	push   $0x0
   107b1:	68 a0 00 00 00       	push   $0xa0
   107b6:	e9 e1 f8 ff ff       	jmp    1009c <isr_save>

000107bb <__isr_0xa1>:
   107bb:	6a 00                	push   $0x0
   107bd:	68 a1 00 00 00       	push   $0xa1
   107c2:	e9 d5 f8 ff ff       	jmp    1009c <isr_save>

000107c7 <__isr_0xa2>:
   107c7:	6a 00                	push   $0x0
   107c9:	68 a2 00 00 00       	push   $0xa2
   107ce:	e9 c9 f8 ff ff       	jmp    1009c <isr_save>

000107d3 <__isr_0xa3>:
   107d3:	6a 00                	push   $0x0
   107d5:	68 a3 00 00 00       	push   $0xa3
   107da:	e9 bd f8 ff ff       	jmp    1009c <isr_save>

000107df <__isr_0xa4>:
   107df:	6a 00                	push   $0x0
   107e1:	68 a4 00 00 00       	push   $0xa4
   107e6:	e9 b1 f8 ff ff       	jmp    1009c <isr_save>

000107eb <__isr_0xa5>:
   107eb:	6a 00                	push   $0x0
   107ed:	68 a5 00 00 00       	push   $0xa5
   107f2:	e9 a5 f8 ff ff       	jmp    1009c <isr_save>

000107f7 <__isr_0xa6>:
   107f7:	6a 00                	push   $0x0
   107f9:	68 a6 00 00 00       	push   $0xa6
   107fe:	e9 99 f8 ff ff       	jmp    1009c <isr_save>

00010803 <__isr_0xa7>:
   10803:	6a 00                	push   $0x0
   10805:	68 a7 00 00 00       	push   $0xa7
   1080a:	e9 8d f8 ff ff       	jmp    1009c <isr_save>

0001080f <__isr_0xa8>:
   1080f:	6a 00                	push   $0x0
   10811:	68 a8 00 00 00       	push   $0xa8
   10816:	e9 81 f8 ff ff       	jmp    1009c <isr_save>

0001081b <__isr_0xa9>:
   1081b:	6a 00                	push   $0x0
   1081d:	68 a9 00 00 00       	push   $0xa9
   10822:	e9 75 f8 ff ff       	jmp    1009c <isr_save>

00010827 <__isr_0xaa>:
   10827:	6a 00                	push   $0x0
   10829:	68 aa 00 00 00       	push   $0xaa
   1082e:	e9 69 f8 ff ff       	jmp    1009c <isr_save>

00010833 <__isr_0xab>:
   10833:	6a 00                	push   $0x0
   10835:	68 ab 00 00 00       	push   $0xab
   1083a:	e9 5d f8 ff ff       	jmp    1009c <isr_save>

0001083f <__isr_0xac>:
   1083f:	6a 00                	push   $0x0
   10841:	68 ac 00 00 00       	push   $0xac
   10846:	e9 51 f8 ff ff       	jmp    1009c <isr_save>

0001084b <__isr_0xad>:
   1084b:	6a 00                	push   $0x0
   1084d:	68 ad 00 00 00       	push   $0xad
   10852:	e9 45 f8 ff ff       	jmp    1009c <isr_save>

00010857 <__isr_0xae>:
   10857:	6a 00                	push   $0x0
   10859:	68 ae 00 00 00       	push   $0xae
   1085e:	e9 39 f8 ff ff       	jmp    1009c <isr_save>

00010863 <__isr_0xaf>:
   10863:	6a 00                	push   $0x0
   10865:	68 af 00 00 00       	push   $0xaf
   1086a:	e9 2d f8 ff ff       	jmp    1009c <isr_save>

0001086f <__isr_0xb0>:
   1086f:	6a 00                	push   $0x0
   10871:	68 b0 00 00 00       	push   $0xb0
   10876:	e9 21 f8 ff ff       	jmp    1009c <isr_save>

0001087b <__isr_0xb1>:
   1087b:	6a 00                	push   $0x0
   1087d:	68 b1 00 00 00       	push   $0xb1
   10882:	e9 15 f8 ff ff       	jmp    1009c <isr_save>

00010887 <__isr_0xb2>:
   10887:	6a 00                	push   $0x0
   10889:	68 b2 00 00 00       	push   $0xb2
   1088e:	e9 09 f8 ff ff       	jmp    1009c <isr_save>

00010893 <__isr_0xb3>:
   10893:	6a 00                	push   $0x0
   10895:	68 b3 00 00 00       	push   $0xb3
   1089a:	e9 fd f7 ff ff       	jmp    1009c <isr_save>

0001089f <__isr_0xb4>:
   1089f:	6a 00                	push   $0x0
   108a1:	68 b4 00 00 00       	push   $0xb4
   108a6:	e9 f1 f7 ff ff       	jmp    1009c <isr_save>

000108ab <__isr_0xb5>:
   108ab:	6a 00                	push   $0x0
   108ad:	68 b5 00 00 00       	push   $0xb5
   108b2:	e9 e5 f7 ff ff       	jmp    1009c <isr_save>

000108b7 <__isr_0xb6>:
   108b7:	6a 00                	push   $0x0
   108b9:	68 b6 00 00 00       	push   $0xb6
   108be:	e9 d9 f7 ff ff       	jmp    1009c <isr_save>

000108c3 <__isr_0xb7>:
   108c3:	6a 00                	push   $0x0
   108c5:	68 b7 00 00 00       	push   $0xb7
   108ca:	e9 cd f7 ff ff       	jmp    1009c <isr_save>

000108cf <__isr_0xb8>:
   108cf:	6a 00                	push   $0x0
   108d1:	68 b8 00 00 00       	push   $0xb8
   108d6:	e9 c1 f7 ff ff       	jmp    1009c <isr_save>

000108db <__isr_0xb9>:
   108db:	6a 00                	push   $0x0
   108dd:	68 b9 00 00 00       	push   $0xb9
   108e2:	e9 b5 f7 ff ff       	jmp    1009c <isr_save>

000108e7 <__isr_0xba>:
   108e7:	6a 00                	push   $0x0
   108e9:	68 ba 00 00 00       	push   $0xba
   108ee:	e9 a9 f7 ff ff       	jmp    1009c <isr_save>

000108f3 <__isr_0xbb>:
   108f3:	6a 00                	push   $0x0
   108f5:	68 bb 00 00 00       	push   $0xbb
   108fa:	e9 9d f7 ff ff       	jmp    1009c <isr_save>

000108ff <__isr_0xbc>:
   108ff:	6a 00                	push   $0x0
   10901:	68 bc 00 00 00       	push   $0xbc
   10906:	e9 91 f7 ff ff       	jmp    1009c <isr_save>

0001090b <__isr_0xbd>:
   1090b:	6a 00                	push   $0x0
   1090d:	68 bd 00 00 00       	push   $0xbd
   10912:	e9 85 f7 ff ff       	jmp    1009c <isr_save>

00010917 <__isr_0xbe>:
   10917:	6a 00                	push   $0x0
   10919:	68 be 00 00 00       	push   $0xbe
   1091e:	e9 79 f7 ff ff       	jmp    1009c <isr_save>

00010923 <__isr_0xbf>:
   10923:	6a 00                	push   $0x0
   10925:	68 bf 00 00 00       	push   $0xbf
   1092a:	e9 6d f7 ff ff       	jmp    1009c <isr_save>

0001092f <__isr_0xc0>:
   1092f:	6a 00                	push   $0x0
   10931:	68 c0 00 00 00       	push   $0xc0
   10936:	e9 61 f7 ff ff       	jmp    1009c <isr_save>

0001093b <__isr_0xc1>:
   1093b:	6a 00                	push   $0x0
   1093d:	68 c1 00 00 00       	push   $0xc1
   10942:	e9 55 f7 ff ff       	jmp    1009c <isr_save>

00010947 <__isr_0xc2>:
   10947:	6a 00                	push   $0x0
   10949:	68 c2 00 00 00       	push   $0xc2
   1094e:	e9 49 f7 ff ff       	jmp    1009c <isr_save>

00010953 <__isr_0xc3>:
   10953:	6a 00                	push   $0x0
   10955:	68 c3 00 00 00       	push   $0xc3
   1095a:	e9 3d f7 ff ff       	jmp    1009c <isr_save>

0001095f <__isr_0xc4>:
   1095f:	6a 00                	push   $0x0
   10961:	68 c4 00 00 00       	push   $0xc4
   10966:	e9 31 f7 ff ff       	jmp    1009c <isr_save>

0001096b <__isr_0xc5>:
   1096b:	6a 00                	push   $0x0
   1096d:	68 c5 00 00 00       	push   $0xc5
   10972:	e9 25 f7 ff ff       	jmp    1009c <isr_save>

00010977 <__isr_0xc6>:
   10977:	6a 00                	push   $0x0
   10979:	68 c6 00 00 00       	push   $0xc6
   1097e:	e9 19 f7 ff ff       	jmp    1009c <isr_save>

00010983 <__isr_0xc7>:
   10983:	6a 00                	push   $0x0
   10985:	68 c7 00 00 00       	push   $0xc7
   1098a:	e9 0d f7 ff ff       	jmp    1009c <isr_save>

0001098f <__isr_0xc8>:
   1098f:	6a 00                	push   $0x0
   10991:	68 c8 00 00 00       	push   $0xc8
   10996:	e9 01 f7 ff ff       	jmp    1009c <isr_save>

0001099b <__isr_0xc9>:
   1099b:	6a 00                	push   $0x0
   1099d:	68 c9 00 00 00       	push   $0xc9
   109a2:	e9 f5 f6 ff ff       	jmp    1009c <isr_save>

000109a7 <__isr_0xca>:
   109a7:	6a 00                	push   $0x0
   109a9:	68 ca 00 00 00       	push   $0xca
   109ae:	e9 e9 f6 ff ff       	jmp    1009c <isr_save>

000109b3 <__isr_0xcb>:
   109b3:	6a 00                	push   $0x0
   109b5:	68 cb 00 00 00       	push   $0xcb
   109ba:	e9 dd f6 ff ff       	jmp    1009c <isr_save>

000109bf <__isr_0xcc>:
   109bf:	6a 00                	push   $0x0
   109c1:	68 cc 00 00 00       	push   $0xcc
   109c6:	e9 d1 f6 ff ff       	jmp    1009c <isr_save>

000109cb <__isr_0xcd>:
   109cb:	6a 00                	push   $0x0
   109cd:	68 cd 00 00 00       	push   $0xcd
   109d2:	e9 c5 f6 ff ff       	jmp    1009c <isr_save>

000109d7 <__isr_0xce>:
   109d7:	6a 00                	push   $0x0
   109d9:	68 ce 00 00 00       	push   $0xce
   109de:	e9 b9 f6 ff ff       	jmp    1009c <isr_save>

000109e3 <__isr_0xcf>:
   109e3:	6a 00                	push   $0x0
   109e5:	68 cf 00 00 00       	push   $0xcf
   109ea:	e9 ad f6 ff ff       	jmp    1009c <isr_save>

000109ef <__isr_0xd0>:
   109ef:	6a 00                	push   $0x0
   109f1:	68 d0 00 00 00       	push   $0xd0
   109f6:	e9 a1 f6 ff ff       	jmp    1009c <isr_save>

000109fb <__isr_0xd1>:
   109fb:	6a 00                	push   $0x0
   109fd:	68 d1 00 00 00       	push   $0xd1
   10a02:	e9 95 f6 ff ff       	jmp    1009c <isr_save>

00010a07 <__isr_0xd2>:
   10a07:	6a 00                	push   $0x0
   10a09:	68 d2 00 00 00       	push   $0xd2
   10a0e:	e9 89 f6 ff ff       	jmp    1009c <isr_save>

00010a13 <__isr_0xd3>:
   10a13:	6a 00                	push   $0x0
   10a15:	68 d3 00 00 00       	push   $0xd3
   10a1a:	e9 7d f6 ff ff       	jmp    1009c <isr_save>

00010a1f <__isr_0xd4>:
   10a1f:	6a 00                	push   $0x0
   10a21:	68 d4 00 00 00       	push   $0xd4
   10a26:	e9 71 f6 ff ff       	jmp    1009c <isr_save>

00010a2b <__isr_0xd5>:
   10a2b:	6a 00                	push   $0x0
   10a2d:	68 d5 00 00 00       	push   $0xd5
   10a32:	e9 65 f6 ff ff       	jmp    1009c <isr_save>

00010a37 <__isr_0xd6>:
   10a37:	6a 00                	push   $0x0
   10a39:	68 d6 00 00 00       	push   $0xd6
   10a3e:	e9 59 f6 ff ff       	jmp    1009c <isr_save>

00010a43 <__isr_0xd7>:
   10a43:	6a 00                	push   $0x0
   10a45:	68 d7 00 00 00       	push   $0xd7
   10a4a:	e9 4d f6 ff ff       	jmp    1009c <isr_save>

00010a4f <__isr_0xd8>:
   10a4f:	6a 00                	push   $0x0
   10a51:	68 d8 00 00 00       	push   $0xd8
   10a56:	e9 41 f6 ff ff       	jmp    1009c <isr_save>

00010a5b <__isr_0xd9>:
   10a5b:	6a 00                	push   $0x0
   10a5d:	68 d9 00 00 00       	push   $0xd9
   10a62:	e9 35 f6 ff ff       	jmp    1009c <isr_save>

00010a67 <__isr_0xda>:
   10a67:	6a 00                	push   $0x0
   10a69:	68 da 00 00 00       	push   $0xda
   10a6e:	e9 29 f6 ff ff       	jmp    1009c <isr_save>

00010a73 <__isr_0xdb>:
   10a73:	6a 00                	push   $0x0
   10a75:	68 db 00 00 00       	push   $0xdb
   10a7a:	e9 1d f6 ff ff       	jmp    1009c <isr_save>

00010a7f <__isr_0xdc>:
   10a7f:	6a 00                	push   $0x0
   10a81:	68 dc 00 00 00       	push   $0xdc
   10a86:	e9 11 f6 ff ff       	jmp    1009c <isr_save>

00010a8b <__isr_0xdd>:
   10a8b:	6a 00                	push   $0x0
   10a8d:	68 dd 00 00 00       	push   $0xdd
   10a92:	e9 05 f6 ff ff       	jmp    1009c <isr_save>

00010a97 <__isr_0xde>:
   10a97:	6a 00                	push   $0x0
   10a99:	68 de 00 00 00       	push   $0xde
   10a9e:	e9 f9 f5 ff ff       	jmp    1009c <isr_save>

00010aa3 <__isr_0xdf>:
   10aa3:	6a 00                	push   $0x0
   10aa5:	68 df 00 00 00       	push   $0xdf
   10aaa:	e9 ed f5 ff ff       	jmp    1009c <isr_save>

00010aaf <__isr_0xe0>:
   10aaf:	6a 00                	push   $0x0
   10ab1:	68 e0 00 00 00       	push   $0xe0
   10ab6:	e9 e1 f5 ff ff       	jmp    1009c <isr_save>

00010abb <__isr_0xe1>:
   10abb:	6a 00                	push   $0x0
   10abd:	68 e1 00 00 00       	push   $0xe1
   10ac2:	e9 d5 f5 ff ff       	jmp    1009c <isr_save>

00010ac7 <__isr_0xe2>:
   10ac7:	6a 00                	push   $0x0
   10ac9:	68 e2 00 00 00       	push   $0xe2
   10ace:	e9 c9 f5 ff ff       	jmp    1009c <isr_save>

00010ad3 <__isr_0xe3>:
   10ad3:	6a 00                	push   $0x0
   10ad5:	68 e3 00 00 00       	push   $0xe3
   10ada:	e9 bd f5 ff ff       	jmp    1009c <isr_save>

00010adf <__isr_0xe4>:
   10adf:	6a 00                	push   $0x0
   10ae1:	68 e4 00 00 00       	push   $0xe4
   10ae6:	e9 b1 f5 ff ff       	jmp    1009c <isr_save>

00010aeb <__isr_0xe5>:
   10aeb:	6a 00                	push   $0x0
   10aed:	68 e5 00 00 00       	push   $0xe5
   10af2:	e9 a5 f5 ff ff       	jmp    1009c <isr_save>

00010af7 <__isr_0xe6>:
   10af7:	6a 00                	push   $0x0
   10af9:	68 e6 00 00 00       	push   $0xe6
   10afe:	e9 99 f5 ff ff       	jmp    1009c <isr_save>

00010b03 <__isr_0xe7>:
   10b03:	6a 00                	push   $0x0
   10b05:	68 e7 00 00 00       	push   $0xe7
   10b0a:	e9 8d f5 ff ff       	jmp    1009c <isr_save>

00010b0f <__isr_0xe8>:
   10b0f:	6a 00                	push   $0x0
   10b11:	68 e8 00 00 00       	push   $0xe8
   10b16:	e9 81 f5 ff ff       	jmp    1009c <isr_save>

00010b1b <__isr_0xe9>:
   10b1b:	6a 00                	push   $0x0
   10b1d:	68 e9 00 00 00       	push   $0xe9
   10b22:	e9 75 f5 ff ff       	jmp    1009c <isr_save>

00010b27 <__isr_0xea>:
   10b27:	6a 00                	push   $0x0
   10b29:	68 ea 00 00 00       	push   $0xea
   10b2e:	e9 69 f5 ff ff       	jmp    1009c <isr_save>

00010b33 <__isr_0xeb>:
   10b33:	6a 00                	push   $0x0
   10b35:	68 eb 00 00 00       	push   $0xeb
   10b3a:	e9 5d f5 ff ff       	jmp    1009c <isr_save>

00010b3f <__isr_0xec>:
   10b3f:	6a 00                	push   $0x0
   10b41:	68 ec 00 00 00       	push   $0xec
   10b46:	e9 51 f5 ff ff       	jmp    1009c <isr_save>

00010b4b <__isr_0xed>:
   10b4b:	6a 00                	push   $0x0
   10b4d:	68 ed 00 00 00       	push   $0xed
   10b52:	e9 45 f5 ff ff       	jmp    1009c <isr_save>

00010b57 <__isr_0xee>:
   10b57:	6a 00                	push   $0x0
   10b59:	68 ee 00 00 00       	push   $0xee
   10b5e:	e9 39 f5 ff ff       	jmp    1009c <isr_save>

00010b63 <__isr_0xef>:
   10b63:	6a 00                	push   $0x0
   10b65:	68 ef 00 00 00       	push   $0xef
   10b6a:	e9 2d f5 ff ff       	jmp    1009c <isr_save>

00010b6f <__isr_0xf0>:
   10b6f:	6a 00                	push   $0x0
   10b71:	68 f0 00 00 00       	push   $0xf0
   10b76:	e9 21 f5 ff ff       	jmp    1009c <isr_save>

00010b7b <__isr_0xf1>:
   10b7b:	6a 00                	push   $0x0
   10b7d:	68 f1 00 00 00       	push   $0xf1
   10b82:	e9 15 f5 ff ff       	jmp    1009c <isr_save>

00010b87 <__isr_0xf2>:
   10b87:	6a 00                	push   $0x0
   10b89:	68 f2 00 00 00       	push   $0xf2
   10b8e:	e9 09 f5 ff ff       	jmp    1009c <isr_save>

00010b93 <__isr_0xf3>:
   10b93:	6a 00                	push   $0x0
   10b95:	68 f3 00 00 00       	push   $0xf3
   10b9a:	e9 fd f4 ff ff       	jmp    1009c <isr_save>

00010b9f <__isr_0xf4>:
   10b9f:	6a 00                	push   $0x0
   10ba1:	68 f4 00 00 00       	push   $0xf4
   10ba6:	e9 f1 f4 ff ff       	jmp    1009c <isr_save>

00010bab <__isr_0xf5>:
   10bab:	6a 00                	push   $0x0
   10bad:	68 f5 00 00 00       	push   $0xf5
   10bb2:	e9 e5 f4 ff ff       	jmp    1009c <isr_save>

00010bb7 <__isr_0xf6>:
   10bb7:	6a 00                	push   $0x0
   10bb9:	68 f6 00 00 00       	push   $0xf6
   10bbe:	e9 d9 f4 ff ff       	jmp    1009c <isr_save>

00010bc3 <__isr_0xf7>:
   10bc3:	6a 00                	push   $0x0
   10bc5:	68 f7 00 00 00       	push   $0xf7
   10bca:	e9 cd f4 ff ff       	jmp    1009c <isr_save>

00010bcf <__isr_0xf8>:
   10bcf:	6a 00                	push   $0x0
   10bd1:	68 f8 00 00 00       	push   $0xf8
   10bd6:	e9 c1 f4 ff ff       	jmp    1009c <isr_save>

00010bdb <__isr_0xf9>:
   10bdb:	6a 00                	push   $0x0
   10bdd:	68 f9 00 00 00       	push   $0xf9
   10be2:	e9 b5 f4 ff ff       	jmp    1009c <isr_save>

00010be7 <__isr_0xfa>:
   10be7:	6a 00                	push   $0x0
   10be9:	68 fa 00 00 00       	push   $0xfa
   10bee:	e9 a9 f4 ff ff       	jmp    1009c <isr_save>

00010bf3 <__isr_0xfb>:
   10bf3:	6a 00                	push   $0x0
   10bf5:	68 fb 00 00 00       	push   $0xfb
   10bfa:	e9 9d f4 ff ff       	jmp    1009c <isr_save>

00010bff <__isr_0xfc>:
   10bff:	6a 00                	push   $0x0
   10c01:	68 fc 00 00 00       	push   $0xfc
   10c06:	e9 91 f4 ff ff       	jmp    1009c <isr_save>

00010c0b <__isr_0xfd>:
   10c0b:	6a 00                	push   $0x0
   10c0d:	68 fd 00 00 00       	push   $0xfd
   10c12:	e9 85 f4 ff ff       	jmp    1009c <isr_save>

00010c17 <__isr_0xfe>:
   10c17:	6a 00                	push   $0x0
   10c19:	68 fe 00 00 00       	push   $0xfe
   10c1e:	e9 79 f4 ff ff       	jmp    1009c <isr_save>

00010c23 <__isr_0xff>:
   10c23:	6a 00                	push   $0x0
   10c25:	68 ff 00 00 00       	push   $0xff
   10c2a:	e9 6d f4 ff ff       	jmp    1009c <isr_save>

00010c2f <bound>:
   10c2f:	55                   	push   %ebp
   10c30:	89 e5                	mov    %esp,%ebp
   10c32:	8b 45 0c             	mov    0xc(%ebp),%eax
   10c35:	3b 45 08             	cmp    0x8(%ebp),%eax
   10c38:	73 06                	jae    10c40 <bound+0x11>
   10c3a:	8b 45 08             	mov    0x8(%ebp),%eax
   10c3d:	89 45 0c             	mov    %eax,0xc(%ebp)
   10c40:	8b 45 0c             	mov    0xc(%ebp),%eax
   10c43:	3b 45 10             	cmp    0x10(%ebp),%eax
   10c46:	76 06                	jbe    10c4e <bound+0x1f>
   10c48:	8b 45 10             	mov    0x10(%ebp),%eax
   10c4b:	89 45 0c             	mov    %eax,0xc(%ebp)
   10c4e:	8b 45 0c             	mov    0xc(%ebp),%eax
   10c51:	5d                   	pop    %ebp
   10c52:	c3                   	ret    

00010c53 <__c_setcursor>:
   10c53:	55                   	push   %ebp
   10c54:	89 e5                	mov    %esp,%ebp
   10c56:	83 ec 18             	sub    $0x18,%esp
   10c59:	a1 94 c7 01 00       	mov    0x1c794,%eax
   10c5e:	89 45 f4             	mov    %eax,-0xc(%ebp)
   10c61:	a1 88 c7 01 00       	mov    0x1c788,%eax
   10c66:	39 45 f4             	cmp    %eax,-0xc(%ebp)
   10c69:	76 08                	jbe    10c73 <__c_setcursor+0x20>
   10c6b:	a1 88 c7 01 00       	mov    0x1c788,%eax
   10c70:	89 45 f4             	mov    %eax,-0xc(%ebp)
   10c73:	8b 55 f4             	mov    -0xc(%ebp),%edx
   10c76:	89 d0                	mov    %edx,%eax
   10c78:	c1 e0 02             	shl    $0x2,%eax
   10c7b:	01 d0                	add    %edx,%eax
   10c7d:	c1 e0 04             	shl    $0x4,%eax
   10c80:	89 c2                	mov    %eax,%edx
   10c82:	a1 80 c7 01 00       	mov    0x1c780,%eax
   10c87:	01 d0                	add    %edx,%eax
   10c89:	89 45 f0             	mov    %eax,-0x10(%ebp)
   10c8c:	83 ec 08             	sub    $0x8,%esp
   10c8f:	6a 0e                	push   $0xe
   10c91:	68 d4 03 00 00       	push   $0x3d4
   10c96:	e8 ca f3 ff ff       	call   10065 <__outb>
   10c9b:	83 c4 10             	add    $0x10,%esp
   10c9e:	8b 45 f0             	mov    -0x10(%ebp),%eax
   10ca1:	c1 e8 08             	shr    $0x8,%eax
   10ca4:	0f b6 c0             	movzbl %al,%eax
   10ca7:	83 ec 08             	sub    $0x8,%esp
   10caa:	50                   	push   %eax
   10cab:	68 d5 03 00 00       	push   $0x3d5
   10cb0:	e8 b0 f3 ff ff       	call   10065 <__outb>
   10cb5:	83 c4 10             	add    $0x10,%esp
   10cb8:	83 ec 08             	sub    $0x8,%esp
   10cbb:	6a 0f                	push   $0xf
   10cbd:	68 d4 03 00 00       	push   $0x3d4
   10cc2:	e8 9e f3 ff ff       	call   10065 <__outb>
   10cc7:	83 c4 10             	add    $0x10,%esp
   10cca:	8b 45 f0             	mov    -0x10(%ebp),%eax
   10ccd:	0f b6 c0             	movzbl %al,%eax
   10cd0:	83 ec 08             	sub    $0x8,%esp
   10cd3:	50                   	push   %eax
   10cd4:	68 d5 03 00 00       	push   $0x3d5
   10cd9:	e8 87 f3 ff ff       	call   10065 <__outb>
   10cde:	83 c4 10             	add    $0x10,%esp
   10ce1:	90                   	nop
   10ce2:	c9                   	leave  
   10ce3:	c3                   	ret    

00010ce4 <__c_strlen>:
   10ce4:	55                   	push   %ebp
   10ce5:	89 e5                	mov    %esp,%ebp
   10ce7:	83 ec 10             	sub    $0x10,%esp
   10cea:	c7 45 fc 00 00 00 00 	movl   $0x0,-0x4(%ebp)
   10cf1:	eb 04                	jmp    10cf7 <__c_strlen+0x13>
   10cf3:	83 45 fc 01          	addl   $0x1,-0x4(%ebp)
   10cf7:	8b 45 08             	mov    0x8(%ebp),%eax
   10cfa:	8d 50 01             	lea    0x1(%eax),%edx
   10cfd:	89 55 08             	mov    %edx,0x8(%ebp)
   10d00:	0f b6 00             	movzbl (%eax),%eax
   10d03:	84 c0                	test   %al,%al
   10d05:	75 ec                	jne    10cf3 <__c_strlen+0xf>
   10d07:	8b 45 fc             	mov    -0x4(%ebp),%eax
   10d0a:	c9                   	leave  
   10d0b:	c3                   	ret    

00010d0c <__c_putchar_at>:
   10d0c:	55                   	push   %ebp
   10d0d:	89 e5                	mov    %esp,%ebp
   10d0f:	83 ec 10             	sub    $0x10,%esp
   10d12:	a1 7c c7 01 00       	mov    0x1c77c,%eax
   10d17:	39 45 08             	cmp    %eax,0x8(%ebp)
   10d1a:	77 4c                	ja     10d68 <__c_putchar_at+0x5c>
   10d1c:	a1 98 c7 01 00       	mov    0x1c798,%eax
   10d21:	39 45 0c             	cmp    %eax,0xc(%ebp)
   10d24:	77 42                	ja     10d68 <__c_putchar_at+0x5c>
   10d26:	8b 55 0c             	mov    0xc(%ebp),%edx
   10d29:	89 d0                	mov    %edx,%eax
   10d2b:	c1 e0 02             	shl    $0x2,%eax
   10d2e:	01 d0                	add    %edx,%eax
   10d30:	c1 e0 04             	shl    $0x4,%eax
   10d33:	89 c2                	mov    %eax,%edx
   10d35:	8b 45 08             	mov    0x8(%ebp),%eax
   10d38:	01 d0                	add    %edx,%eax
   10d3a:	05 00 c0 05 00       	add    $0x5c000,%eax
   10d3f:	01 c0                	add    %eax,%eax
   10d41:	89 45 fc             	mov    %eax,-0x4(%ebp)
   10d44:	81 7d 10 ff 00 00 00 	cmpl   $0xff,0x10(%ebp)
   10d4b:	76 0d                	jbe    10d5a <__c_putchar_at+0x4e>
   10d4d:	8b 45 10             	mov    0x10(%ebp),%eax
   10d50:	89 c2                	mov    %eax,%edx
   10d52:	8b 45 fc             	mov    -0x4(%ebp),%eax
   10d55:	66 89 10             	mov    %dx,(%eax)
   10d58:	eb 0e                	jmp    10d68 <__c_putchar_at+0x5c>
   10d5a:	8b 45 10             	mov    0x10(%ebp),%eax
   10d5d:	80 cc 07             	or     $0x7,%ah
   10d60:	89 c2                	mov    %eax,%edx
   10d62:	8b 45 fc             	mov    -0x4(%ebp),%eax
   10d65:	66 89 10             	mov    %dx,(%eax)
   10d68:	90                   	nop
   10d69:	c9                   	leave  
   10d6a:	c3                   	ret    

00010d6b <c_setscroll>:
   10d6b:	55                   	push   %ebp
   10d6c:	89 e5                	mov    %esp,%ebp
   10d6e:	83 ec 08             	sub    $0x8,%esp
   10d71:	8b 15 7c c7 01 00    	mov    0x1c77c,%edx
   10d77:	a1 90 c7 01 00       	mov    0x1c790,%eax
   10d7c:	52                   	push   %edx
   10d7d:	ff 75 08             	pushl  0x8(%ebp)
   10d80:	50                   	push   %eax
   10d81:	e8 a9 fe ff ff       	call   10c2f <bound>
   10d86:	83 c4 0c             	add    $0xc,%esp
   10d89:	a3 9c c7 01 00       	mov    %eax,0x1c79c
   10d8e:	8b 15 98 c7 01 00    	mov    0x1c798,%edx
   10d94:	a1 84 c7 01 00       	mov    0x1c784,%eax
   10d99:	52                   	push   %edx
   10d9a:	ff 75 0c             	pushl  0xc(%ebp)
   10d9d:	50                   	push   %eax
   10d9e:	e8 8c fe ff ff       	call   10c2f <bound>
   10da3:	83 c4 0c             	add    $0xc,%esp
   10da6:	a3 8c c7 01 00       	mov    %eax,0x1c78c
   10dab:	8b 15 7c c7 01 00    	mov    0x1c77c,%edx
   10db1:	a1 9c c7 01 00       	mov    0x1c79c,%eax
   10db6:	52                   	push   %edx
   10db7:	ff 75 10             	pushl  0x10(%ebp)
   10dba:	50                   	push   %eax
   10dbb:	e8 6f fe ff ff       	call   10c2f <bound>
   10dc0:	83 c4 0c             	add    $0xc,%esp
   10dc3:	a3 78 c7 01 00       	mov    %eax,0x1c778
   10dc8:	8b 15 98 c7 01 00    	mov    0x1c798,%edx
   10dce:	a1 8c c7 01 00       	mov    0x1c78c,%eax
   10dd3:	52                   	push   %edx
   10dd4:	ff 75 14             	pushl  0x14(%ebp)
   10dd7:	50                   	push   %eax
   10dd8:	e8 52 fe ff ff       	call   10c2f <bound>
   10ddd:	83 c4 0c             	add    $0xc,%esp
   10de0:	a3 88 c7 01 00       	mov    %eax,0x1c788
   10de5:	a1 9c c7 01 00       	mov    0x1c79c,%eax
   10dea:	a3 80 c7 01 00       	mov    %eax,0x1c780
   10def:	a1 8c c7 01 00       	mov    0x1c78c,%eax
   10df4:	a3 94 c7 01 00       	mov    %eax,0x1c794
   10df9:	e8 55 fe ff ff       	call   10c53 <__c_setcursor>
   10dfe:	90                   	nop
   10dff:	c9                   	leave  
   10e00:	c3                   	ret    

00010e01 <c_moveto>:
   10e01:	55                   	push   %ebp
   10e02:	89 e5                	mov    %esp,%ebp
   10e04:	83 ec 08             	sub    $0x8,%esp
   10e07:	8b 15 78 c7 01 00    	mov    0x1c778,%edx
   10e0d:	8b 0d 9c c7 01 00    	mov    0x1c79c,%ecx
   10e13:	8b 45 08             	mov    0x8(%ebp),%eax
   10e16:	01 c1                	add    %eax,%ecx
   10e18:	a1 9c c7 01 00       	mov    0x1c79c,%eax
   10e1d:	52                   	push   %edx
   10e1e:	51                   	push   %ecx
   10e1f:	50                   	push   %eax
   10e20:	e8 0a fe ff ff       	call   10c2f <bound>
   10e25:	83 c4 0c             	add    $0xc,%esp
   10e28:	a3 80 c7 01 00       	mov    %eax,0x1c780
   10e2d:	8b 15 88 c7 01 00    	mov    0x1c788,%edx
   10e33:	8b 0d 8c c7 01 00    	mov    0x1c78c,%ecx
   10e39:	8b 45 0c             	mov    0xc(%ebp),%eax
   10e3c:	01 c1                	add    %eax,%ecx
   10e3e:	a1 8c c7 01 00       	mov    0x1c78c,%eax
   10e43:	52                   	push   %edx
   10e44:	51                   	push   %ecx
   10e45:	50                   	push   %eax
   10e46:	e8 e4 fd ff ff       	call   10c2f <bound>
   10e4b:	83 c4 0c             	add    $0xc,%esp
   10e4e:	a3 94 c7 01 00       	mov    %eax,0x1c794
   10e53:	e8 fb fd ff ff       	call   10c53 <__c_setcursor>
   10e58:	90                   	nop
   10e59:	c9                   	leave  
   10e5a:	c3                   	ret    

00010e5b <c_putchar_at>:
   10e5b:	55                   	push   %ebp
   10e5c:	89 e5                	mov    %esp,%ebp
   10e5e:	83 ec 10             	sub    $0x10,%esp
   10e61:	8b 45 10             	mov    0x10(%ebp),%eax
   10e64:	83 e0 7f             	and    $0x7f,%eax
   10e67:	83 f8 0a             	cmp    $0xa,%eax
   10e6a:	75 53                	jne    10ebf <c_putchar_at+0x64>
   10e6c:	a1 78 c7 01 00       	mov    0x1c778,%eax
   10e71:	39 45 08             	cmp    %eax,0x8(%ebp)
   10e74:	76 0a                	jbe    10e80 <c_putchar_at+0x25>
   10e76:	a1 7c c7 01 00       	mov    0x1c77c,%eax
   10e7b:	89 45 fc             	mov    %eax,-0x4(%ebp)
   10e7e:	eb 35                	jmp    10eb5 <c_putchar_at+0x5a>
   10e80:	a1 9c c7 01 00       	mov    0x1c79c,%eax
   10e85:	39 45 08             	cmp    %eax,0x8(%ebp)
   10e88:	72 0a                	jb     10e94 <c_putchar_at+0x39>
   10e8a:	a1 78 c7 01 00       	mov    0x1c778,%eax
   10e8f:	89 45 fc             	mov    %eax,-0x4(%ebp)
   10e92:	eb 21                	jmp    10eb5 <c_putchar_at+0x5a>
   10e94:	a1 9c c7 01 00       	mov    0x1c79c,%eax
   10e99:	83 e8 01             	sub    $0x1,%eax
   10e9c:	89 45 fc             	mov    %eax,-0x4(%ebp)
   10e9f:	eb 14                	jmp    10eb5 <c_putchar_at+0x5a>
   10ea1:	6a 20                	push   $0x20
   10ea3:	ff 75 0c             	pushl  0xc(%ebp)
   10ea6:	ff 75 08             	pushl  0x8(%ebp)
   10ea9:	e8 5e fe ff ff       	call   10d0c <__c_putchar_at>
   10eae:	83 c4 0c             	add    $0xc,%esp
   10eb1:	83 45 08 01          	addl   $0x1,0x8(%ebp)
   10eb5:	8b 45 08             	mov    0x8(%ebp),%eax
   10eb8:	3b 45 fc             	cmp    -0x4(%ebp),%eax
   10ebb:	76 e4                	jbe    10ea1 <c_putchar_at+0x46>
   10ebd:	eb 11                	jmp    10ed0 <c_putchar_at+0x75>
   10ebf:	ff 75 10             	pushl  0x10(%ebp)
   10ec2:	ff 75 0c             	pushl  0xc(%ebp)
   10ec5:	ff 75 08             	pushl  0x8(%ebp)
   10ec8:	e8 3f fe ff ff       	call   10d0c <__c_putchar_at>
   10ecd:	83 c4 0c             	add    $0xc,%esp
   10ed0:	90                   	nop
   10ed1:	c9                   	leave  
   10ed2:	c3                   	ret    

00010ed3 <c_putchar>:
   10ed3:	55                   	push   %ebp
   10ed4:	89 e5                	mov    %esp,%ebp
   10ed6:	83 ec 08             	sub    $0x8,%esp
   10ed9:	8b 15 94 c7 01 00    	mov    0x1c794,%edx
   10edf:	a1 88 c7 01 00       	mov    0x1c788,%eax
   10ee4:	39 c2                	cmp    %eax,%edx
   10ee6:	76 25                	jbe    10f0d <c_putchar+0x3a>
   10ee8:	8b 15 94 c7 01 00    	mov    0x1c794,%edx
   10eee:	a1 88 c7 01 00       	mov    0x1c788,%eax
   10ef3:	29 c2                	sub    %eax,%edx
   10ef5:	89 d0                	mov    %edx,%eax
   10ef7:	83 ec 0c             	sub    $0xc,%esp
   10efa:	50                   	push   %eax
   10efb:	e8 2d 02 00 00       	call   1112d <c_scroll>
   10f00:	83 c4 10             	add    $0x10,%esp
   10f03:	a1 88 c7 01 00       	mov    0x1c788,%eax
   10f08:	a3 94 c7 01 00       	mov    %eax,0x1c794
   10f0d:	8b 45 08             	mov    0x8(%ebp),%eax
   10f10:	0f b6 c0             	movzbl %al,%eax
   10f13:	83 f8 0a             	cmp    $0xa,%eax
   10f16:	74 2e                	je     10f46 <c_putchar+0x73>
   10f18:	83 f8 0d             	cmp    $0xd,%eax
   10f1b:	74 51                	je     10f6e <c_putchar+0x9b>
   10f1d:	eb 5b                	jmp    10f7a <c_putchar+0xa7>
   10f1f:	8b 15 94 c7 01 00    	mov    0x1c794,%edx
   10f25:	a1 80 c7 01 00       	mov    0x1c780,%eax
   10f2a:	83 ec 04             	sub    $0x4,%esp
   10f2d:	6a 20                	push   $0x20
   10f2f:	52                   	push   %edx
   10f30:	50                   	push   %eax
   10f31:	e8 d6 fd ff ff       	call   10d0c <__c_putchar_at>
   10f36:	83 c4 10             	add    $0x10,%esp
   10f39:	a1 80 c7 01 00       	mov    0x1c780,%eax
   10f3e:	83 c0 01             	add    $0x1,%eax
   10f41:	a3 80 c7 01 00       	mov    %eax,0x1c780
   10f46:	8b 15 80 c7 01 00    	mov    0x1c780,%edx
   10f4c:	a1 78 c7 01 00       	mov    0x1c778,%eax
   10f51:	39 c2                	cmp    %eax,%edx
   10f53:	76 ca                	jbe    10f1f <c_putchar+0x4c>
   10f55:	a1 9c c7 01 00       	mov    0x1c79c,%eax
   10f5a:	a3 80 c7 01 00       	mov    %eax,0x1c780
   10f5f:	a1 94 c7 01 00       	mov    0x1c794,%eax
   10f64:	83 c0 01             	add    $0x1,%eax
   10f67:	a3 94 c7 01 00       	mov    %eax,0x1c794
   10f6c:	eb 5b                	jmp    10fc9 <c_putchar+0xf6>
   10f6e:	a1 9c c7 01 00       	mov    0x1c79c,%eax
   10f73:	a3 80 c7 01 00       	mov    %eax,0x1c780
   10f78:	eb 4f                	jmp    10fc9 <c_putchar+0xf6>
   10f7a:	8b 15 94 c7 01 00    	mov    0x1c794,%edx
   10f80:	a1 80 c7 01 00       	mov    0x1c780,%eax
   10f85:	83 ec 04             	sub    $0x4,%esp
   10f88:	ff 75 08             	pushl  0x8(%ebp)
   10f8b:	52                   	push   %edx
   10f8c:	50                   	push   %eax
   10f8d:	e8 7a fd ff ff       	call   10d0c <__c_putchar_at>
   10f92:	83 c4 10             	add    $0x10,%esp
   10f95:	a1 80 c7 01 00       	mov    0x1c780,%eax
   10f9a:	83 c0 01             	add    $0x1,%eax
   10f9d:	a3 80 c7 01 00       	mov    %eax,0x1c780
   10fa2:	8b 15 80 c7 01 00    	mov    0x1c780,%edx
   10fa8:	a1 78 c7 01 00       	mov    0x1c778,%eax
   10fad:	39 c2                	cmp    %eax,%edx
   10faf:	76 17                	jbe    10fc8 <c_putchar+0xf5>
   10fb1:	a1 9c c7 01 00       	mov    0x1c79c,%eax
   10fb6:	a3 80 c7 01 00       	mov    %eax,0x1c780
   10fbb:	a1 94 c7 01 00       	mov    0x1c794,%eax
   10fc0:	83 c0 01             	add    $0x1,%eax
   10fc3:	a3 94 c7 01 00       	mov    %eax,0x1c794
   10fc8:	90                   	nop
   10fc9:	e8 85 fc ff ff       	call   10c53 <__c_setcursor>
   10fce:	90                   	nop
   10fcf:	c9                   	leave  
   10fd0:	c3                   	ret    

00010fd1 <c_puts_at>:
   10fd1:	55                   	push   %ebp
   10fd2:	89 e5                	mov    %esp,%ebp
   10fd4:	83 ec 10             	sub    $0x10,%esp
   10fd7:	eb 15                	jmp    10fee <c_puts_at+0x1d>
   10fd9:	ff 75 fc             	pushl  -0x4(%ebp)
   10fdc:	ff 75 0c             	pushl  0xc(%ebp)
   10fdf:	ff 75 08             	pushl  0x8(%ebp)
   10fe2:	e8 74 fe ff ff       	call   10e5b <c_putchar_at>
   10fe7:	83 c4 0c             	add    $0xc,%esp
   10fea:	83 45 08 01          	addl   $0x1,0x8(%ebp)
   10fee:	8b 45 10             	mov    0x10(%ebp),%eax
   10ff1:	8d 50 01             	lea    0x1(%eax),%edx
   10ff4:	89 55 10             	mov    %edx,0x10(%ebp)
   10ff7:	0f b6 00             	movzbl (%eax),%eax
   10ffa:	0f be c0             	movsbl %al,%eax
   10ffd:	89 45 fc             	mov    %eax,-0x4(%ebp)
   11000:	83 7d fc 00          	cmpl   $0x0,-0x4(%ebp)
   11004:	74 0a                	je     11010 <c_puts_at+0x3f>
   11006:	a1 7c c7 01 00       	mov    0x1c77c,%eax
   1100b:	39 45 08             	cmp    %eax,0x8(%ebp)
   1100e:	76 c9                	jbe    10fd9 <c_puts_at+0x8>
   11010:	90                   	nop
   11011:	c9                   	leave  
   11012:	c3                   	ret    

00011013 <c_puts>:
   11013:	55                   	push   %ebp
   11014:	89 e5                	mov    %esp,%ebp
   11016:	83 ec 18             	sub    $0x18,%esp
   11019:	eb 0e                	jmp    11029 <c_puts+0x16>
   1101b:	83 ec 0c             	sub    $0xc,%esp
   1101e:	ff 75 f4             	pushl  -0xc(%ebp)
   11021:	e8 ad fe ff ff       	call   10ed3 <c_putchar>
   11026:	83 c4 10             	add    $0x10,%esp
   11029:	8b 45 08             	mov    0x8(%ebp),%eax
   1102c:	8d 50 01             	lea    0x1(%eax),%edx
   1102f:	89 55 08             	mov    %edx,0x8(%ebp)
   11032:	0f b6 00             	movzbl (%eax),%eax
   11035:	0f be c0             	movsbl %al,%eax
   11038:	89 45 f4             	mov    %eax,-0xc(%ebp)
   1103b:	83 7d f4 00          	cmpl   $0x0,-0xc(%ebp)
   1103f:	75 da                	jne    1101b <c_puts+0x8>
   11041:	90                   	nop
   11042:	c9                   	leave  
   11043:	c3                   	ret    

00011044 <c_clearscroll>:
   11044:	55                   	push   %ebp
   11045:	89 e5                	mov    %esp,%ebp
   11047:	83 ec 10             	sub    $0x10,%esp
   1104a:	8b 15 78 c7 01 00    	mov    0x1c778,%edx
   11050:	a1 9c c7 01 00       	mov    0x1c79c,%eax
   11055:	29 c2                	sub    %eax,%edx
   11057:	89 d0                	mov    %edx,%eax
   11059:	83 c0 01             	add    $0x1,%eax
   1105c:	89 45 f0             	mov    %eax,-0x10(%ebp)
   1105f:	a1 8c c7 01 00       	mov    0x1c78c,%eax
   11064:	89 45 fc             	mov    %eax,-0x4(%ebp)
   11067:	eb 47                	jmp    110b0 <c_clearscroll+0x6c>
   11069:	8b 55 fc             	mov    -0x4(%ebp),%edx
   1106c:	89 d0                	mov    %edx,%eax
   1106e:	c1 e0 02             	shl    $0x2,%eax
   11071:	01 d0                	add    %edx,%eax
   11073:	c1 e0 04             	shl    $0x4,%eax
   11076:	89 c2                	mov    %eax,%edx
   11078:	a1 9c c7 01 00       	mov    0x1c79c,%eax
   1107d:	01 d0                	add    %edx,%eax
   1107f:	05 00 c0 05 00       	add    $0x5c000,%eax
   11084:	01 c0                	add    %eax,%eax
   11086:	89 45 f4             	mov    %eax,-0xc(%ebp)
   11089:	c7 45 f8 00 00 00 00 	movl   $0x0,-0x8(%ebp)
   11090:	eb 12                	jmp    110a4 <c_clearscroll+0x60>
   11092:	8b 45 f4             	mov    -0xc(%ebp),%eax
   11095:	8d 50 02             	lea    0x2(%eax),%edx
   11098:	89 55 f4             	mov    %edx,-0xc(%ebp)
   1109b:	66 c7 00 20 07       	movw   $0x720,(%eax)
   110a0:	83 45 f8 01          	addl   $0x1,-0x8(%ebp)
   110a4:	8b 45 f8             	mov    -0x8(%ebp),%eax
   110a7:	3b 45 f0             	cmp    -0x10(%ebp),%eax
   110aa:	72 e6                	jb     11092 <c_clearscroll+0x4e>
   110ac:	83 45 fc 01          	addl   $0x1,-0x4(%ebp)
   110b0:	a1 88 c7 01 00       	mov    0x1c788,%eax
   110b5:	39 45 fc             	cmp    %eax,-0x4(%ebp)
   110b8:	76 af                	jbe    11069 <c_clearscroll+0x25>
   110ba:	90                   	nop
   110bb:	c9                   	leave  
   110bc:	c3                   	ret    

000110bd <c_clearscreen>:
   110bd:	55                   	push   %ebp
   110be:	89 e5                	mov    %esp,%ebp
   110c0:	83 ec 10             	sub    $0x10,%esp
   110c3:	8b 15 84 c7 01 00    	mov    0x1c784,%edx
   110c9:	89 d0                	mov    %edx,%eax
   110cb:	c1 e0 02             	shl    $0x2,%eax
   110ce:	01 d0                	add    %edx,%eax
   110d0:	c1 e0 04             	shl    $0x4,%eax
   110d3:	89 c2                	mov    %eax,%edx
   110d5:	a1 90 c7 01 00       	mov    0x1c790,%eax
   110da:	01 d0                	add    %edx,%eax
   110dc:	05 00 c0 05 00       	add    $0x5c000,%eax
   110e1:	01 c0                	add    %eax,%eax
   110e3:	89 45 fc             	mov    %eax,-0x4(%ebp)
   110e6:	8b 15 98 c7 01 00    	mov    0x1c798,%edx
   110ec:	a1 84 c7 01 00       	mov    0x1c784,%eax
   110f1:	29 c2                	sub    %eax,%edx
   110f3:	89 d0                	mov    %edx,%eax
   110f5:	8d 48 01             	lea    0x1(%eax),%ecx
   110f8:	8b 15 7c c7 01 00    	mov    0x1c77c,%edx
   110fe:	a1 90 c7 01 00       	mov    0x1c790,%eax
   11103:	29 c2                	sub    %eax,%edx
   11105:	89 d0                	mov    %edx,%eax
   11107:	83 c0 01             	add    $0x1,%eax
   1110a:	0f af c1             	imul   %ecx,%eax
   1110d:	89 45 f8             	mov    %eax,-0x8(%ebp)
   11110:	eb 12                	jmp    11124 <c_clearscreen+0x67>
   11112:	8b 45 fc             	mov    -0x4(%ebp),%eax
   11115:	8d 50 02             	lea    0x2(%eax),%edx
   11118:	89 55 fc             	mov    %edx,-0x4(%ebp)
   1111b:	66 c7 00 20 07       	movw   $0x720,(%eax)
   11120:	83 6d f8 01          	subl   $0x1,-0x8(%ebp)
   11124:	83 7d f8 00          	cmpl   $0x0,-0x8(%ebp)
   11128:	75 e8                	jne    11112 <c_clearscreen+0x55>
   1112a:	90                   	nop
   1112b:	c9                   	leave  
   1112c:	c3                   	ret    

0001112d <c_scroll>:
   1112d:	55                   	push   %ebp
   1112e:	89 e5                	mov    %esp,%ebp
   11130:	83 ec 28             	sub    $0x28,%esp
   11133:	8b 15 78 c7 01 00    	mov    0x1c778,%edx
   11139:	a1 9c c7 01 00       	mov    0x1c79c,%eax
   1113e:	29 c2                	sub    %eax,%edx
   11140:	89 d0                	mov    %edx,%eax
   11142:	83 c0 01             	add    $0x1,%eax
   11145:	89 45 e4             	mov    %eax,-0x1c(%ebp)
   11148:	8b 15 88 c7 01 00    	mov    0x1c788,%edx
   1114e:	a1 8c c7 01 00       	mov    0x1c78c,%eax
   11153:	29 c2                	sub    %eax,%edx
   11155:	89 d0                	mov    %edx,%eax
   11157:	3b 45 08             	cmp    0x8(%ebp),%eax
   1115a:	73 23                	jae    1117f <c_scroll+0x52>
   1115c:	e8 e3 fe ff ff       	call   11044 <c_clearscroll>
   11161:	a1 9c c7 01 00       	mov    0x1c79c,%eax
   11166:	a3 80 c7 01 00       	mov    %eax,0x1c780
   1116b:	a1 8c c7 01 00       	mov    0x1c78c,%eax
   11170:	a3 94 c7 01 00       	mov    %eax,0x1c794
   11175:	e8 d9 fa ff ff       	call   10c53 <__c_setcursor>
   1117a:	e9 ea 00 00 00       	jmp    11269 <c_scroll+0x13c>
   1117f:	a1 8c c7 01 00       	mov    0x1c78c,%eax
   11184:	89 45 ec             	mov    %eax,-0x14(%ebp)
   11187:	eb 76                	jmp    111ff <c_scroll+0xd2>
   11189:	8b 55 ec             	mov    -0x14(%ebp),%edx
   1118c:	8b 45 08             	mov    0x8(%ebp),%eax
   1118f:	01 c2                	add    %eax,%edx
   11191:	89 d0                	mov    %edx,%eax
   11193:	c1 e0 02             	shl    $0x2,%eax
   11196:	01 d0                	add    %edx,%eax
   11198:	c1 e0 04             	shl    $0x4,%eax
   1119b:	89 c2                	mov    %eax,%edx
   1119d:	a1 9c c7 01 00       	mov    0x1c79c,%eax
   111a2:	01 d0                	add    %edx,%eax
   111a4:	05 00 c0 05 00       	add    $0x5c000,%eax
   111a9:	01 c0                	add    %eax,%eax
   111ab:	89 45 f4             	mov    %eax,-0xc(%ebp)
   111ae:	8b 55 ec             	mov    -0x14(%ebp),%edx
   111b1:	89 d0                	mov    %edx,%eax
   111b3:	c1 e0 02             	shl    $0x2,%eax
   111b6:	01 d0                	add    %edx,%eax
   111b8:	c1 e0 04             	shl    $0x4,%eax
   111bb:	89 c2                	mov    %eax,%edx
   111bd:	a1 9c c7 01 00       	mov    0x1c79c,%eax
   111c2:	01 d0                	add    %edx,%eax
   111c4:	05 00 c0 05 00       	add    $0x5c000,%eax
   111c9:	01 c0                	add    %eax,%eax
   111cb:	89 45 f0             	mov    %eax,-0x10(%ebp)
   111ce:	c7 45 e8 00 00 00 00 	movl   $0x0,-0x18(%ebp)
   111d5:	eb 1c                	jmp    111f3 <c_scroll+0xc6>
   111d7:	8b 45 f0             	mov    -0x10(%ebp),%eax
   111da:	8d 50 02             	lea    0x2(%eax),%edx
   111dd:	89 55 f0             	mov    %edx,-0x10(%ebp)
   111e0:	8b 55 f4             	mov    -0xc(%ebp),%edx
   111e3:	8d 4a 02             	lea    0x2(%edx),%ecx
   111e6:	89 4d f4             	mov    %ecx,-0xc(%ebp)
   111e9:	0f b7 12             	movzwl (%edx),%edx
   111ec:	66 89 10             	mov    %dx,(%eax)
   111ef:	83 45 e8 01          	addl   $0x1,-0x18(%ebp)
   111f3:	8b 45 e8             	mov    -0x18(%ebp),%eax
   111f6:	3b 45 e4             	cmp    -0x1c(%ebp),%eax
   111f9:	7c dc                	jl     111d7 <c_scroll+0xaa>
   111fb:	83 45 ec 01          	addl   $0x1,-0x14(%ebp)
   111ff:	a1 88 c7 01 00       	mov    0x1c788,%eax
   11204:	2b 45 08             	sub    0x8(%ebp),%eax
   11207:	89 c2                	mov    %eax,%edx
   11209:	8b 45 ec             	mov    -0x14(%ebp),%eax
   1120c:	39 c2                	cmp    %eax,%edx
   1120e:	0f 83 75 ff ff ff    	jae    11189 <c_scroll+0x5c>
   11214:	eb 47                	jmp    1125d <c_scroll+0x130>
   11216:	8b 55 ec             	mov    -0x14(%ebp),%edx
   11219:	89 d0                	mov    %edx,%eax
   1121b:	c1 e0 02             	shl    $0x2,%eax
   1121e:	01 d0                	add    %edx,%eax
   11220:	c1 e0 04             	shl    $0x4,%eax
   11223:	89 c2                	mov    %eax,%edx
   11225:	a1 9c c7 01 00       	mov    0x1c79c,%eax
   1122a:	01 d0                	add    %edx,%eax
   1122c:	05 00 c0 05 00       	add    $0x5c000,%eax
   11231:	01 c0                	add    %eax,%eax
   11233:	89 45 f0             	mov    %eax,-0x10(%ebp)
   11236:	c7 45 e8 00 00 00 00 	movl   $0x0,-0x18(%ebp)
   1123d:	eb 12                	jmp    11251 <c_scroll+0x124>
   1123f:	8b 45 f0             	mov    -0x10(%ebp),%eax
   11242:	8d 50 02             	lea    0x2(%eax),%edx
   11245:	89 55 f0             	mov    %edx,-0x10(%ebp)
   11248:	66 c7 00 20 07       	movw   $0x720,(%eax)
   1124d:	83 45 e8 01          	addl   $0x1,-0x18(%ebp)
   11251:	8b 45 e8             	mov    -0x18(%ebp),%eax
   11254:	3b 45 e4             	cmp    -0x1c(%ebp),%eax
   11257:	7c e6                	jl     1123f <c_scroll+0x112>
   11259:	83 45 ec 01          	addl   $0x1,-0x14(%ebp)
   1125d:	8b 55 ec             	mov    -0x14(%ebp),%edx
   11260:	a1 88 c7 01 00       	mov    0x1c788,%eax
   11265:	39 c2                	cmp    %eax,%edx
   11267:	76 ad                	jbe    11216 <c_scroll+0xe9>
   11269:	c9                   	leave  
   1126a:	c3                   	ret    

0001126b <cvtdec0>:
   1126b:	55                   	push   %ebp
   1126c:	89 e5                	mov    %esp,%ebp
   1126e:	53                   	push   %ebx
   1126f:	83 ec 14             	sub    $0x14,%esp
   11272:	8b 45 0c             	mov    0xc(%ebp),%eax
   11275:	ba cd cc cc cc       	mov    $0xcccccccd,%edx
   1127a:	f7 e2                	mul    %edx
   1127c:	89 d0                	mov    %edx,%eax
   1127e:	c1 e8 03             	shr    $0x3,%eax
   11281:	89 45 f4             	mov    %eax,-0xc(%ebp)
   11284:	83 7d f4 00          	cmpl   $0x0,-0xc(%ebp)
   11288:	79 0e                	jns    11298 <cvtdec0+0x2d>
   1128a:	c7 45 f4 cc cc cc 0c 	movl   $0xccccccc,-0xc(%ebp)
   11291:	c7 45 0c 08 00 00 00 	movl   $0x8,0xc(%ebp)
   11298:	83 7d f4 00          	cmpl   $0x0,-0xc(%ebp)
   1129c:	74 15                	je     112b3 <cvtdec0+0x48>
   1129e:	8b 45 f4             	mov    -0xc(%ebp),%eax
   112a1:	83 ec 08             	sub    $0x8,%esp
   112a4:	50                   	push   %eax
   112a5:	ff 75 08             	pushl  0x8(%ebp)
   112a8:	e8 be ff ff ff       	call   1126b <cvtdec0>
   112ad:	83 c4 10             	add    $0x10,%esp
   112b0:	89 45 08             	mov    %eax,0x8(%ebp)
   112b3:	8b 4d 08             	mov    0x8(%ebp),%ecx
   112b6:	8d 41 01             	lea    0x1(%ecx),%eax
   112b9:	89 45 08             	mov    %eax,0x8(%ebp)
   112bc:	8b 5d 0c             	mov    0xc(%ebp),%ebx
   112bf:	ba cd cc cc cc       	mov    $0xcccccccd,%edx
   112c4:	89 d8                	mov    %ebx,%eax
   112c6:	f7 e2                	mul    %edx
   112c8:	c1 ea 03             	shr    $0x3,%edx
   112cb:	89 d0                	mov    %edx,%eax
   112cd:	c1 e0 02             	shl    $0x2,%eax
   112d0:	01 d0                	add    %edx,%eax
   112d2:	01 c0                	add    %eax,%eax
   112d4:	29 c3                	sub    %eax,%ebx
   112d6:	89 da                	mov    %ebx,%edx
   112d8:	89 d0                	mov    %edx,%eax
   112da:	83 c0 30             	add    $0x30,%eax
   112dd:	88 01                	mov    %al,(%ecx)
   112df:	8b 45 08             	mov    0x8(%ebp),%eax
   112e2:	8b 5d fc             	mov    -0x4(%ebp),%ebx
   112e5:	c9                   	leave  
   112e6:	c3                   	ret    

000112e7 <cvtdec>:
   112e7:	55                   	push   %ebp
   112e8:	89 e5                	mov    %esp,%ebp
   112ea:	83 ec 18             	sub    $0x18,%esp
   112ed:	8b 45 08             	mov    0x8(%ebp),%eax
   112f0:	89 45 f4             	mov    %eax,-0xc(%ebp)
   112f3:	83 7d 0c 00          	cmpl   $0x0,0xc(%ebp)
   112f7:	79 0f                	jns    11308 <cvtdec+0x21>
   112f9:	8b 45 f4             	mov    -0xc(%ebp),%eax
   112fc:	8d 50 01             	lea    0x1(%eax),%edx
   112ff:	89 55 f4             	mov    %edx,-0xc(%ebp)
   11302:	c6 00 2d             	movb   $0x2d,(%eax)
   11305:	f7 5d 0c             	negl   0xc(%ebp)
   11308:	8b 45 0c             	mov    0xc(%ebp),%eax
   1130b:	83 ec 08             	sub    $0x8,%esp
   1130e:	50                   	push   %eax
   1130f:	ff 75 f4             	pushl  -0xc(%ebp)
   11312:	e8 54 ff ff ff       	call   1126b <cvtdec0>
   11317:	83 c4 10             	add    $0x10,%esp
   1131a:	89 45 f4             	mov    %eax,-0xc(%ebp)
   1131d:	8b 45 f4             	mov    -0xc(%ebp),%eax
   11320:	c6 00 00             	movb   $0x0,(%eax)
   11323:	8b 55 f4             	mov    -0xc(%ebp),%edx
   11326:	8b 45 08             	mov    0x8(%ebp),%eax
   11329:	29 c2                	sub    %eax,%edx
   1132b:	89 d0                	mov    %edx,%eax
   1132d:	c9                   	leave  
   1132e:	c3                   	ret    

0001132f <cvtudec>:
   1132f:	55                   	push   %ebp
   11330:	89 e5                	mov    %esp,%ebp
   11332:	83 ec 18             	sub    $0x18,%esp
   11335:	8b 45 08             	mov    0x8(%ebp),%eax
   11338:	89 45 f4             	mov    %eax,-0xc(%ebp)
   1133b:	83 ec 08             	sub    $0x8,%esp
   1133e:	ff 75 0c             	pushl  0xc(%ebp)
   11341:	ff 75 f4             	pushl  -0xc(%ebp)
   11344:	e8 22 ff ff ff       	call   1126b <cvtdec0>
   11349:	83 c4 10             	add    $0x10,%esp
   1134c:	89 45 f4             	mov    %eax,-0xc(%ebp)
   1134f:	8b 45 f4             	mov    -0xc(%ebp),%eax
   11352:	c6 00 00             	movb   $0x0,(%eax)
   11355:	8b 55 f4             	mov    -0xc(%ebp),%edx
   11358:	8b 45 08             	mov    0x8(%ebp),%eax
   1135b:	29 c2                	sub    %eax,%edx
   1135d:	89 d0                	mov    %edx,%eax
   1135f:	c9                   	leave  
   11360:	c3                   	ret    

00011361 <cvthex>:
   11361:	55                   	push   %ebp
   11362:	89 e5                	mov    %esp,%ebp
   11364:	83 ec 10             	sub    $0x10,%esp
   11367:	c7 45 f8 00 00 00 00 	movl   $0x0,-0x8(%ebp)
   1136e:	8b 45 08             	mov    0x8(%ebp),%eax
   11371:	89 45 f4             	mov    %eax,-0xc(%ebp)
   11374:	c7 45 fc 00 00 00 00 	movl   $0x0,-0x4(%ebp)
   1137b:	eb 4b                	jmp    113c8 <cvthex+0x67>
   1137d:	8b 45 0c             	mov    0xc(%ebp),%eax
   11380:	25 00 00 00 f0       	and    $0xf0000000,%eax
   11385:	89 45 f0             	mov    %eax,-0x10(%ebp)
   11388:	83 7d fc 07          	cmpl   $0x7,-0x4(%ebp)
   1138c:	74 0c                	je     1139a <cvthex+0x39>
   1138e:	83 7d f0 00          	cmpl   $0x0,-0x10(%ebp)
   11392:	75 06                	jne    1139a <cvthex+0x39>
   11394:	83 7d f8 00          	cmpl   $0x0,-0x8(%ebp)
   11398:	74 26                	je     113c0 <cvthex+0x5f>
   1139a:	c7 45 f8 01 00 00 00 	movl   $0x1,-0x8(%ebp)
   113a1:	c1 7d f0 1c          	sarl   $0x1c,-0x10(%ebp)
   113a5:	83 65 f0 0f          	andl   $0xf,-0x10(%ebp)
   113a9:	8b 45 f4             	mov    -0xc(%ebp),%eax
   113ac:	8d 50 01             	lea    0x1(%eax),%edx
   113af:	89 55 f4             	mov    %edx,-0xc(%ebp)
   113b2:	8b 55 f0             	mov    -0x10(%ebp),%edx
   113b5:	81 c2 60 b4 01 00    	add    $0x1b460,%edx
   113bb:	0f b6 12             	movzbl (%edx),%edx
   113be:	88 10                	mov    %dl,(%eax)
   113c0:	c1 65 0c 04          	shll   $0x4,0xc(%ebp)
   113c4:	83 45 fc 01          	addl   $0x1,-0x4(%ebp)
   113c8:	83 7d fc 07          	cmpl   $0x7,-0x4(%ebp)
   113cc:	7e af                	jle    1137d <cvthex+0x1c>
   113ce:	8b 45 f4             	mov    -0xc(%ebp),%eax
   113d1:	c6 00 00             	movb   $0x0,(%eax)
   113d4:	8b 55 f4             	mov    -0xc(%ebp),%edx
   113d7:	8b 45 08             	mov    0x8(%ebp),%eax
   113da:	29 c2                	sub    %eax,%edx
   113dc:	89 d0                	mov    %edx,%eax
   113de:	c9                   	leave  
   113df:	c3                   	ret    

000113e0 <cvtoct>:
   113e0:	55                   	push   %ebp
   113e1:	89 e5                	mov    %esp,%ebp
   113e3:	83 ec 10             	sub    $0x10,%esp
   113e6:	c7 45 f8 00 00 00 00 	movl   $0x0,-0x8(%ebp)
   113ed:	8b 45 08             	mov    0x8(%ebp),%eax
   113f0:	89 45 f4             	mov    %eax,-0xc(%ebp)
   113f3:	8b 45 0c             	mov    0xc(%ebp),%eax
   113f6:	25 00 00 00 c0       	and    $0xc0000000,%eax
   113fb:	89 45 f0             	mov    %eax,-0x10(%ebp)
   113fe:	c1 7d f0 1e          	sarl   $0x1e,-0x10(%ebp)
   11402:	c7 45 fc 00 00 00 00 	movl   $0x0,-0x4(%ebp)
   11409:	eb 4b                	jmp    11456 <cvtoct+0x76>
   1140b:	83 7d fc 0a          	cmpl   $0xa,-0x4(%ebp)
   1140f:	74 0c                	je     1141d <cvtoct+0x3d>
   11411:	83 7d f0 00          	cmpl   $0x0,-0x10(%ebp)
   11415:	75 06                	jne    1141d <cvtoct+0x3d>
   11417:	83 7d f8 00          	cmpl   $0x0,-0x8(%ebp)
   1141b:	74 22                	je     1143f <cvtoct+0x5f>
   1141d:	c7 45 f8 01 00 00 00 	movl   $0x1,-0x8(%ebp)
   11424:	83 65 f0 07          	andl   $0x7,-0x10(%ebp)
   11428:	8b 45 f4             	mov    -0xc(%ebp),%eax
   1142b:	8d 50 01             	lea    0x1(%eax),%edx
   1142e:	89 55 f4             	mov    %edx,-0xc(%ebp)
   11431:	8b 55 f0             	mov    -0x10(%ebp),%edx
   11434:	81 c2 60 b4 01 00    	add    $0x1b460,%edx
   1143a:	0f b6 12             	movzbl (%edx),%edx
   1143d:	88 10                	mov    %dl,(%eax)
   1143f:	c1 65 0c 03          	shll   $0x3,0xc(%ebp)
   11443:	8b 45 0c             	mov    0xc(%ebp),%eax
   11446:	25 00 00 00 e0       	and    $0xe0000000,%eax
   1144b:	89 45 f0             	mov    %eax,-0x10(%ebp)
   1144e:	c1 7d f0 1d          	sarl   $0x1d,-0x10(%ebp)
   11452:	83 45 fc 01          	addl   $0x1,-0x4(%ebp)
   11456:	83 7d fc 0a          	cmpl   $0xa,-0x4(%ebp)
   1145a:	7e af                	jle    1140b <cvtoct+0x2b>
   1145c:	8b 45 f4             	mov    -0xc(%ebp),%eax
   1145f:	c6 00 00             	movb   $0x0,(%eax)
   11462:	8b 55 f4             	mov    -0xc(%ebp),%edx
   11465:	8b 45 08             	mov    0x8(%ebp),%eax
   11468:	29 c2                	sub    %eax,%edx
   1146a:	89 d0                	mov    %edx,%eax
   1146c:	c9                   	leave  
   1146d:	c3                   	ret    

0001146e <pad>:
   1146e:	55                   	push   %ebp
   1146f:	89 e5                	mov    %esp,%ebp
   11471:	83 ec 08             	sub    $0x8,%esp
   11474:	eb 39                	jmp    114af <pad+0x41>
   11476:	83 7d 08 ff          	cmpl   $0xffffffff,0x8(%ebp)
   1147a:	75 06                	jne    11482 <pad+0x14>
   1147c:	83 7d 0c ff          	cmpl   $0xffffffff,0xc(%ebp)
   11480:	74 1a                	je     1149c <pad+0x2e>
   11482:	8b 4d 14             	mov    0x14(%ebp),%ecx
   11485:	8b 55 0c             	mov    0xc(%ebp),%edx
   11488:	8b 45 08             	mov    0x8(%ebp),%eax
   1148b:	51                   	push   %ecx
   1148c:	52                   	push   %edx
   1148d:	50                   	push   %eax
   1148e:	e8 c8 f9 ff ff       	call   10e5b <c_putchar_at>
   11493:	83 c4 0c             	add    $0xc,%esp
   11496:	83 45 08 01          	addl   $0x1,0x8(%ebp)
   1149a:	eb 0f                	jmp    114ab <pad+0x3d>
   1149c:	8b 45 14             	mov    0x14(%ebp),%eax
   1149f:	83 ec 0c             	sub    $0xc,%esp
   114a2:	50                   	push   %eax
   114a3:	e8 2b fa ff ff       	call   10ed3 <c_putchar>
   114a8:	83 c4 10             	add    $0x10,%esp
   114ab:	83 6d 10 01          	subl   $0x1,0x10(%ebp)
   114af:	83 7d 10 00          	cmpl   $0x0,0x10(%ebp)
   114b3:	7f c1                	jg     11476 <pad+0x8>
   114b5:	8b 45 08             	mov    0x8(%ebp),%eax
   114b8:	c9                   	leave  
   114b9:	c3                   	ret    

000114ba <padstr>:
   114ba:	55                   	push   %ebp
   114bb:	89 e5                	mov    %esp,%ebp
   114bd:	83 ec 18             	sub    $0x18,%esp
   114c0:	83 7d 14 00          	cmpl   $0x0,0x14(%ebp)
   114c4:	79 0e                	jns    114d4 <padstr+0x1a>
   114c6:	ff 75 10             	pushl  0x10(%ebp)
   114c9:	e8 16 f8 ff ff       	call   10ce4 <__c_strlen>
   114ce:	83 c4 04             	add    $0x4,%esp
   114d1:	89 45 14             	mov    %eax,0x14(%ebp)
   114d4:	8b 45 18             	mov    0x18(%ebp),%eax
   114d7:	2b 45 14             	sub    0x14(%ebp),%eax
   114da:	89 45 f4             	mov    %eax,-0xc(%ebp)
   114dd:	83 7d f4 00          	cmpl   $0x0,-0xc(%ebp)
   114e1:	7e 1d                	jle    11500 <padstr+0x46>
   114e3:	83 7d 1c 00          	cmpl   $0x0,0x1c(%ebp)
   114e7:	75 17                	jne    11500 <padstr+0x46>
   114e9:	ff 75 20             	pushl  0x20(%ebp)
   114ec:	ff 75 f4             	pushl  -0xc(%ebp)
   114ef:	ff 75 0c             	pushl  0xc(%ebp)
   114f2:	ff 75 08             	pushl  0x8(%ebp)
   114f5:	e8 74 ff ff ff       	call   1146e <pad>
   114fa:	83 c4 10             	add    $0x10,%esp
   114fd:	89 45 08             	mov    %eax,0x8(%ebp)
   11500:	83 7d 08 ff          	cmpl   $0xffffffff,0x8(%ebp)
   11504:	75 06                	jne    1150c <padstr+0x52>
   11506:	83 7d 0c ff          	cmpl   $0xffffffff,0xc(%ebp)
   1150a:	74 1e                	je     1152a <padstr+0x70>
   1150c:	8b 55 0c             	mov    0xc(%ebp),%edx
   1150f:	8b 45 08             	mov    0x8(%ebp),%eax
   11512:	83 ec 04             	sub    $0x4,%esp
   11515:	ff 75 10             	pushl  0x10(%ebp)
   11518:	52                   	push   %edx
   11519:	50                   	push   %eax
   1151a:	e8 b2 fa ff ff       	call   10fd1 <c_puts_at>
   1151f:	83 c4 10             	add    $0x10,%esp
   11522:	8b 45 14             	mov    0x14(%ebp),%eax
   11525:	01 45 08             	add    %eax,0x8(%ebp)
   11528:	eb 0e                	jmp    11538 <padstr+0x7e>
   1152a:	83 ec 0c             	sub    $0xc,%esp
   1152d:	ff 75 10             	pushl  0x10(%ebp)
   11530:	e8 de fa ff ff       	call   11013 <c_puts>
   11535:	83 c4 10             	add    $0x10,%esp
   11538:	83 7d f4 00          	cmpl   $0x0,-0xc(%ebp)
   1153c:	7e 1d                	jle    1155b <padstr+0xa1>
   1153e:	83 7d 1c 00          	cmpl   $0x0,0x1c(%ebp)
   11542:	74 17                	je     1155b <padstr+0xa1>
   11544:	ff 75 20             	pushl  0x20(%ebp)
   11547:	ff 75 f4             	pushl  -0xc(%ebp)
   1154a:	ff 75 0c             	pushl  0xc(%ebp)
   1154d:	ff 75 08             	pushl  0x8(%ebp)
   11550:	e8 19 ff ff ff       	call   1146e <pad>
   11555:	83 c4 10             	add    $0x10,%esp
   11558:	89 45 08             	mov    %eax,0x8(%ebp)
   1155b:	8b 45 08             	mov    0x8(%ebp),%eax
   1155e:	c9                   	leave  
   1155f:	c3                   	ret    

00011560 <__c_do_printf>:
   11560:	55                   	push   %ebp
   11561:	89 e5                	mov    %esp,%ebp
   11563:	83 ec 38             	sub    $0x38,%esp
   11566:	8b 45 10             	mov    0x10(%ebp),%eax
   11569:	8b 00                	mov    (%eax),%eax
   1156b:	89 45 f4             	mov    %eax,-0xc(%ebp)
   1156e:	8b 45 10             	mov    0x10(%ebp),%eax
   11571:	83 c0 04             	add    $0x4,%eax
   11574:	89 45 f0             	mov    %eax,-0x10(%ebp)
   11577:	e9 9d 02 00 00       	jmp    11819 <__c_do_printf+0x2b9>
   1157c:	80 7d ef 25          	cmpb   $0x25,-0x11(%ebp)
   11580:	0f 85 3b 02 00 00    	jne    117c1 <__c_do_printf+0x261>
   11586:	c7 45 e8 00 00 00 00 	movl   $0x0,-0x18(%ebp)
   1158d:	c7 45 e0 20 00 00 00 	movl   $0x20,-0x20(%ebp)
   11594:	c7 45 e4 00 00 00 00 	movl   $0x0,-0x1c(%ebp)
   1159b:	8b 45 f4             	mov    -0xc(%ebp),%eax
   1159e:	8d 50 01             	lea    0x1(%eax),%edx
   115a1:	89 55 f4             	mov    %edx,-0xc(%ebp)
   115a4:	0f b6 00             	movzbl (%eax),%eax
   115a7:	88 45 ef             	mov    %al,-0x11(%ebp)
   115aa:	80 7d ef 2d          	cmpb   $0x2d,-0x11(%ebp)
   115ae:	75 16                	jne    115c6 <__c_do_printf+0x66>
   115b0:	c7 45 e8 01 00 00 00 	movl   $0x1,-0x18(%ebp)
   115b7:	8b 45 f4             	mov    -0xc(%ebp),%eax
   115ba:	8d 50 01             	lea    0x1(%eax),%edx
   115bd:	89 55 f4             	mov    %edx,-0xc(%ebp)
   115c0:	0f b6 00             	movzbl (%eax),%eax
   115c3:	88 45 ef             	mov    %al,-0x11(%ebp)
   115c6:	80 7d ef 30          	cmpb   $0x30,-0x11(%ebp)
   115ca:	75 40                	jne    1160c <__c_do_printf+0xac>
   115cc:	c7 45 e0 30 00 00 00 	movl   $0x30,-0x20(%ebp)
   115d3:	8b 45 f4             	mov    -0xc(%ebp),%eax
   115d6:	8d 50 01             	lea    0x1(%eax),%edx
   115d9:	89 55 f4             	mov    %edx,-0xc(%ebp)
   115dc:	0f b6 00             	movzbl (%eax),%eax
   115df:	88 45 ef             	mov    %al,-0x11(%ebp)
   115e2:	eb 28                	jmp    1160c <__c_do_printf+0xac>
   115e4:	8b 55 e4             	mov    -0x1c(%ebp),%edx
   115e7:	89 d0                	mov    %edx,%eax
   115e9:	c1 e0 02             	shl    $0x2,%eax
   115ec:	01 d0                	add    %edx,%eax
   115ee:	01 c0                	add    %eax,%eax
   115f0:	89 45 e4             	mov    %eax,-0x1c(%ebp)
   115f3:	0f be 45 ef          	movsbl -0x11(%ebp),%eax
   115f7:	83 e8 30             	sub    $0x30,%eax
   115fa:	01 45 e4             	add    %eax,-0x1c(%ebp)
   115fd:	8b 45 f4             	mov    -0xc(%ebp),%eax
   11600:	8d 50 01             	lea    0x1(%eax),%edx
   11603:	89 55 f4             	mov    %edx,-0xc(%ebp)
   11606:	0f b6 00             	movzbl (%eax),%eax
   11609:	88 45 ef             	mov    %al,-0x11(%ebp)
   1160c:	80 7d ef 2f          	cmpb   $0x2f,-0x11(%ebp)
   11610:	7e 06                	jle    11618 <__c_do_printf+0xb8>
   11612:	80 7d ef 39          	cmpb   $0x39,-0x11(%ebp)
   11616:	7e cc                	jle    115e4 <__c_do_printf+0x84>
   11618:	0f be 45 ef          	movsbl -0x11(%ebp),%eax
   1161c:	83 e8 63             	sub    $0x63,%eax
   1161f:	83 f8 15             	cmp    $0x15,%eax
   11622:	0f 87 f1 01 00 00    	ja     11819 <__c_do_printf+0x2b9>
   11628:	8b 04 85 08 7a 01 00 	mov    0x17a08(,%eax,4),%eax
   1162f:	ff e0                	jmp    *%eax
   11631:	8b 45 f0             	mov    -0x10(%ebp),%eax
   11634:	8d 50 04             	lea    0x4(%eax),%edx
   11637:	89 55 f0             	mov    %edx,-0x10(%ebp)
   1163a:	8b 00                	mov    (%eax),%eax
   1163c:	88 45 ef             	mov    %al,-0x11(%ebp)
   1163f:	0f b6 45 ef          	movzbl -0x11(%ebp),%eax
   11643:	88 45 cc             	mov    %al,-0x34(%ebp)
   11646:	c6 45 cd 00          	movb   $0x0,-0x33(%ebp)
   1164a:	83 ec 04             	sub    $0x4,%esp
   1164d:	ff 75 e0             	pushl  -0x20(%ebp)
   11650:	ff 75 e8             	pushl  -0x18(%ebp)
   11653:	ff 75 e4             	pushl  -0x1c(%ebp)
   11656:	6a 01                	push   $0x1
   11658:	8d 45 cc             	lea    -0x34(%ebp),%eax
   1165b:	50                   	push   %eax
   1165c:	ff 75 0c             	pushl  0xc(%ebp)
   1165f:	ff 75 08             	pushl  0x8(%ebp)
   11662:	e8 53 fe ff ff       	call   114ba <padstr>
   11667:	83 c4 20             	add    $0x20,%esp
   1166a:	89 45 08             	mov    %eax,0x8(%ebp)
   1166d:	e9 a7 01 00 00       	jmp    11819 <__c_do_printf+0x2b9>
   11672:	8b 45 f0             	mov    -0x10(%ebp),%eax
   11675:	8d 50 04             	lea    0x4(%eax),%edx
   11678:	89 55 f0             	mov    %edx,-0x10(%ebp)
   1167b:	8b 00                	mov    (%eax),%eax
   1167d:	83 ec 08             	sub    $0x8,%esp
   11680:	50                   	push   %eax
   11681:	8d 45 cc             	lea    -0x34(%ebp),%eax
   11684:	50                   	push   %eax
   11685:	e8 5d fc ff ff       	call   112e7 <cvtdec>
   1168a:	83 c4 10             	add    $0x10,%esp
   1168d:	89 45 dc             	mov    %eax,-0x24(%ebp)
   11690:	83 ec 04             	sub    $0x4,%esp
   11693:	ff 75 e0             	pushl  -0x20(%ebp)
   11696:	ff 75 e8             	pushl  -0x18(%ebp)
   11699:	ff 75 e4             	pushl  -0x1c(%ebp)
   1169c:	ff 75 dc             	pushl  -0x24(%ebp)
   1169f:	8d 45 cc             	lea    -0x34(%ebp),%eax
   116a2:	50                   	push   %eax
   116a3:	ff 75 0c             	pushl  0xc(%ebp)
   116a6:	ff 75 08             	pushl  0x8(%ebp)
   116a9:	e8 0c fe ff ff       	call   114ba <padstr>
   116ae:	83 c4 20             	add    $0x20,%esp
   116b1:	89 45 08             	mov    %eax,0x8(%ebp)
   116b4:	e9 60 01 00 00       	jmp    11819 <__c_do_printf+0x2b9>
   116b9:	8b 45 f0             	mov    -0x10(%ebp),%eax
   116bc:	8d 50 04             	lea    0x4(%eax),%edx
   116bf:	89 55 f0             	mov    %edx,-0x10(%ebp)
   116c2:	8b 00                	mov    (%eax),%eax
   116c4:	83 ec 08             	sub    $0x8,%esp
   116c7:	50                   	push   %eax
   116c8:	8d 45 cc             	lea    -0x34(%ebp),%eax
   116cb:	50                   	push   %eax
   116cc:	e8 5e fc ff ff       	call   1132f <cvtudec>
   116d1:	83 c4 10             	add    $0x10,%esp
   116d4:	89 45 dc             	mov    %eax,-0x24(%ebp)
   116d7:	83 ec 04             	sub    $0x4,%esp
   116da:	ff 75 e0             	pushl  -0x20(%ebp)
   116dd:	ff 75 e8             	pushl  -0x18(%ebp)
   116e0:	ff 75 e4             	pushl  -0x1c(%ebp)
   116e3:	ff 75 dc             	pushl  -0x24(%ebp)
   116e6:	8d 45 cc             	lea    -0x34(%ebp),%eax
   116e9:	50                   	push   %eax
   116ea:	ff 75 0c             	pushl  0xc(%ebp)
   116ed:	ff 75 08             	pushl  0x8(%ebp)
   116f0:	e8 c5 fd ff ff       	call   114ba <padstr>
   116f5:	83 c4 20             	add    $0x20,%esp
   116f8:	89 45 08             	mov    %eax,0x8(%ebp)
   116fb:	e9 19 01 00 00       	jmp    11819 <__c_do_printf+0x2b9>
   11700:	8b 45 f0             	mov    -0x10(%ebp),%eax
   11703:	8d 50 04             	lea    0x4(%eax),%edx
   11706:	89 55 f0             	mov    %edx,-0x10(%ebp)
   11709:	8b 00                	mov    (%eax),%eax
   1170b:	89 45 d8             	mov    %eax,-0x28(%ebp)
   1170e:	83 ec 04             	sub    $0x4,%esp
   11711:	ff 75 e0             	pushl  -0x20(%ebp)
   11714:	ff 75 e8             	pushl  -0x18(%ebp)
   11717:	ff 75 e4             	pushl  -0x1c(%ebp)
   1171a:	6a ff                	push   $0xffffffff
   1171c:	ff 75 d8             	pushl  -0x28(%ebp)
   1171f:	ff 75 0c             	pushl  0xc(%ebp)
   11722:	ff 75 08             	pushl  0x8(%ebp)
   11725:	e8 90 fd ff ff       	call   114ba <padstr>
   1172a:	83 c4 20             	add    $0x20,%esp
   1172d:	89 45 08             	mov    %eax,0x8(%ebp)
   11730:	e9 e4 00 00 00       	jmp    11819 <__c_do_printf+0x2b9>
   11735:	8b 45 f0             	mov    -0x10(%ebp),%eax
   11738:	8d 50 04             	lea    0x4(%eax),%edx
   1173b:	89 55 f0             	mov    %edx,-0x10(%ebp)
   1173e:	8b 00                	mov    (%eax),%eax
   11740:	83 ec 08             	sub    $0x8,%esp
   11743:	50                   	push   %eax
   11744:	8d 45 cc             	lea    -0x34(%ebp),%eax
   11747:	50                   	push   %eax
   11748:	e8 14 fc ff ff       	call   11361 <cvthex>
   1174d:	83 c4 10             	add    $0x10,%esp
   11750:	89 45 dc             	mov    %eax,-0x24(%ebp)
   11753:	83 ec 04             	sub    $0x4,%esp
   11756:	ff 75 e0             	pushl  -0x20(%ebp)
   11759:	ff 75 e8             	pushl  -0x18(%ebp)
   1175c:	ff 75 e4             	pushl  -0x1c(%ebp)
   1175f:	ff 75 dc             	pushl  -0x24(%ebp)
   11762:	8d 45 cc             	lea    -0x34(%ebp),%eax
   11765:	50                   	push   %eax
   11766:	ff 75 0c             	pushl  0xc(%ebp)
   11769:	ff 75 08             	pushl  0x8(%ebp)
   1176c:	e8 49 fd ff ff       	call   114ba <padstr>
   11771:	83 c4 20             	add    $0x20,%esp
   11774:	89 45 08             	mov    %eax,0x8(%ebp)
   11777:	e9 9d 00 00 00       	jmp    11819 <__c_do_printf+0x2b9>
   1177c:	8b 45 f0             	mov    -0x10(%ebp),%eax
   1177f:	8d 50 04             	lea    0x4(%eax),%edx
   11782:	89 55 f0             	mov    %edx,-0x10(%ebp)
   11785:	8b 00                	mov    (%eax),%eax
   11787:	83 ec 08             	sub    $0x8,%esp
   1178a:	50                   	push   %eax
   1178b:	8d 45 cc             	lea    -0x34(%ebp),%eax
   1178e:	50                   	push   %eax
   1178f:	e8 4c fc ff ff       	call   113e0 <cvtoct>
   11794:	83 c4 10             	add    $0x10,%esp
   11797:	89 45 dc             	mov    %eax,-0x24(%ebp)
   1179a:	83 ec 04             	sub    $0x4,%esp
   1179d:	ff 75 e0             	pushl  -0x20(%ebp)
   117a0:	ff 75 e8             	pushl  -0x18(%ebp)
   117a3:	ff 75 e4             	pushl  -0x1c(%ebp)
   117a6:	ff 75 dc             	pushl  -0x24(%ebp)
   117a9:	8d 45 cc             	lea    -0x34(%ebp),%eax
   117ac:	50                   	push   %eax
   117ad:	ff 75 0c             	pushl  0xc(%ebp)
   117b0:	ff 75 08             	pushl  0x8(%ebp)
   117b3:	e8 02 fd ff ff       	call   114ba <padstr>
   117b8:	83 c4 20             	add    $0x20,%esp
   117bb:	89 45 08             	mov    %eax,0x8(%ebp)
   117be:	90                   	nop
   117bf:	eb 58                	jmp    11819 <__c_do_printf+0x2b9>
   117c1:	83 7d 08 ff          	cmpl   $0xffffffff,0x8(%ebp)
   117c5:	75 06                	jne    117cd <__c_do_printf+0x26d>
   117c7:	83 7d 0c ff          	cmpl   $0xffffffff,0xc(%ebp)
   117cb:	74 3c                	je     11809 <__c_do_printf+0x2a9>
   117cd:	0f be 4d ef          	movsbl -0x11(%ebp),%ecx
   117d1:	8b 55 0c             	mov    0xc(%ebp),%edx
   117d4:	8b 45 08             	mov    0x8(%ebp),%eax
   117d7:	83 ec 04             	sub    $0x4,%esp
   117da:	51                   	push   %ecx
   117db:	52                   	push   %edx
   117dc:	50                   	push   %eax
   117dd:	e8 79 f6 ff ff       	call   10e5b <c_putchar_at>
   117e2:	83 c4 10             	add    $0x10,%esp
   117e5:	0f be 45 ef          	movsbl -0x11(%ebp),%eax
   117e9:	83 f8 0a             	cmp    $0xa,%eax
   117ec:	74 07                	je     117f5 <__c_do_printf+0x295>
   117ee:	83 f8 0d             	cmp    $0xd,%eax
   117f1:	74 06                	je     117f9 <__c_do_printf+0x299>
   117f3:	eb 0e                	jmp    11803 <__c_do_printf+0x2a3>
   117f5:	83 45 0c 01          	addl   $0x1,0xc(%ebp)
   117f9:	a1 9c c7 01 00       	mov    0x1c79c,%eax
   117fe:	89 45 08             	mov    %eax,0x8(%ebp)
   11801:	eb 04                	jmp    11807 <__c_do_printf+0x2a7>
   11803:	83 45 08 01          	addl   $0x1,0x8(%ebp)
   11807:	eb 10                	jmp    11819 <__c_do_printf+0x2b9>
   11809:	0f be 45 ef          	movsbl -0x11(%ebp),%eax
   1180d:	83 ec 0c             	sub    $0xc,%esp
   11810:	50                   	push   %eax
   11811:	e8 bd f6 ff ff       	call   10ed3 <c_putchar>
   11816:	83 c4 10             	add    $0x10,%esp
   11819:	8b 45 f4             	mov    -0xc(%ebp),%eax
   1181c:	8d 50 01             	lea    0x1(%eax),%edx
   1181f:	89 55 f4             	mov    %edx,-0xc(%ebp)
   11822:	0f b6 00             	movzbl (%eax),%eax
   11825:	88 45 ef             	mov    %al,-0x11(%ebp)
   11828:	80 7d ef 00          	cmpb   $0x0,-0x11(%ebp)
   1182c:	0f 85 4a fd ff ff    	jne    1157c <__c_do_printf+0x1c>
   11832:	90                   	nop
   11833:	c9                   	leave  
   11834:	c3                   	ret    

00011835 <c_printf_at>:
   11835:	55                   	push   %ebp
   11836:	89 e5                	mov    %esp,%ebp
   11838:	83 ec 08             	sub    $0x8,%esp
   1183b:	8b 55 0c             	mov    0xc(%ebp),%edx
   1183e:	8b 45 08             	mov    0x8(%ebp),%eax
   11841:	83 ec 04             	sub    $0x4,%esp
   11844:	8d 4d 10             	lea    0x10(%ebp),%ecx
   11847:	51                   	push   %ecx
   11848:	52                   	push   %edx
   11849:	50                   	push   %eax
   1184a:	e8 11 fd ff ff       	call   11560 <__c_do_printf>
   1184f:	83 c4 10             	add    $0x10,%esp
   11852:	90                   	nop
   11853:	c9                   	leave  
   11854:	c3                   	ret    

00011855 <c_printf>:
   11855:	55                   	push   %ebp
   11856:	89 e5                	mov    %esp,%ebp
   11858:	83 ec 08             	sub    $0x8,%esp
   1185b:	83 ec 04             	sub    $0x4,%esp
   1185e:	8d 45 08             	lea    0x8(%ebp),%eax
   11861:	50                   	push   %eax
   11862:	6a ff                	push   $0xffffffff
   11864:	6a ff                	push   $0xffffffff
   11866:	e8 f5 fc ff ff       	call   11560 <__c_do_printf>
   1186b:	83 c4 10             	add    $0x10,%esp
   1186e:	90                   	nop
   1186f:	c9                   	leave  
   11870:	c3                   	ret    

00011871 <__c_increment>:
   11871:	55                   	push   %ebp
   11872:	89 e5                	mov    %esp,%ebp
   11874:	83 45 08 01          	addl   $0x1,0x8(%ebp)
   11878:	b8 a8 b6 01 00       	mov    $0x1b6a8,%eax
   1187d:	39 45 08             	cmp    %eax,0x8(%ebp)
   11880:	72 07                	jb     11889 <__c_increment+0x18>
   11882:	c7 45 08 e0 b5 01 00 	movl   $0x1b5e0,0x8(%ebp)
   11889:	8b 45 08             	mov    0x8(%ebp),%eax
   1188c:	5d                   	pop    %ebp
   1188d:	c3                   	ret    

0001188e <__c_input_scan_code>:
   1188e:	55                   	push   %ebp
   1188f:	89 e5                	mov    %esp,%ebp
   11891:	83 ec 10             	sub    $0x10,%esp
   11894:	81 65 08 ff 00 00 00 	andl   $0xff,0x8(%ebp)
   1189b:	8b 45 08             	mov    0x8(%ebp),%eax
   1189e:	83 f8 36             	cmp    $0x36,%eax
   118a1:	74 28                	je     118cb <__c_input_scan_code+0x3d>
   118a3:	83 f8 36             	cmp    $0x36,%eax
   118a6:	7f 0c                	jg     118b4 <__c_input_scan_code+0x26>
   118a8:	83 f8 1d             	cmp    $0x1d,%eax
   118ab:	74 3c                	je     118e9 <__c_input_scan_code+0x5b>
   118ad:	83 f8 2a             	cmp    $0x2a,%eax
   118b0:	74 19                	je     118cb <__c_input_scan_code+0x3d>
   118b2:	eb 4d                	jmp    11901 <__c_input_scan_code+0x73>
   118b4:	3d aa 00 00 00       	cmp    $0xaa,%eax
   118b9:	74 1f                	je     118da <__c_input_scan_code+0x4c>
   118bb:	3d b6 00 00 00       	cmp    $0xb6,%eax
   118c0:	74 18                	je     118da <__c_input_scan_code+0x4c>
   118c2:	3d 9d 00 00 00       	cmp    $0x9d,%eax
   118c7:	74 2c                	je     118f5 <__c_input_scan_code+0x67>
   118c9:	eb 36                	jmp    11901 <__c_input_scan_code+0x73>
   118cb:	c7 05 a8 b6 01 00 01 	movl   $0x1,0x1b6a8
   118d2:	00 00 00 
   118d5:	e9 8f 00 00 00       	jmp    11969 <__c_input_scan_code+0xdb>
   118da:	c7 05 a8 b6 01 00 00 	movl   $0x0,0x1b6a8
   118e1:	00 00 00 
   118e4:	e9 80 00 00 00       	jmp    11969 <__c_input_scan_code+0xdb>
   118e9:	c7 05 88 b5 01 00 1f 	movl   $0x1f,0x1b588
   118f0:	00 00 00 
   118f3:	eb 74                	jmp    11969 <__c_input_scan_code+0xdb>
   118f5:	c7 05 88 b5 01 00 ff 	movl   $0xff,0x1b588
   118fc:	00 00 00 
   118ff:	eb 68                	jmp    11969 <__c_input_scan_code+0xdb>
   11901:	8b 45 08             	mov    0x8(%ebp),%eax
   11904:	25 80 00 00 00       	and    $0x80,%eax
   11909:	85 c0                	test   %eax,%eax
   1190b:	75 5c                	jne    11969 <__c_input_scan_code+0xdb>
   1190d:	a1 a8 b6 01 00       	mov    0x1b6a8,%eax
   11912:	c1 e0 07             	shl    $0x7,%eax
   11915:	89 c2                	mov    %eax,%edx
   11917:	8b 45 08             	mov    0x8(%ebp),%eax
   1191a:	01 d0                	add    %edx,%eax
   1191c:	05 80 b4 01 00       	add    $0x1b480,%eax
   11921:	0f b6 00             	movzbl (%eax),%eax
   11924:	0f b6 c0             	movzbl %al,%eax
   11927:	89 45 08             	mov    %eax,0x8(%ebp)
   1192a:	83 7d 08 ff          	cmpl   $0xffffffff,0x8(%ebp)
   1192e:	74 39                	je     11969 <__c_input_scan_code+0xdb>
   11930:	a1 84 b5 01 00       	mov    0x1b584,%eax
   11935:	50                   	push   %eax
   11936:	e8 36 ff ff ff       	call   11871 <__c_increment>
   1193b:	83 c4 04             	add    $0x4,%esp
   1193e:	89 45 fc             	mov    %eax,-0x4(%ebp)
   11941:	a1 80 b5 01 00       	mov    0x1b580,%eax
   11946:	39 45 fc             	cmp    %eax,-0x4(%ebp)
   11949:	74 1e                	je     11969 <__c_input_scan_code+0xdb>
   1194b:	a1 84 b5 01 00       	mov    0x1b584,%eax
   11950:	8b 55 08             	mov    0x8(%ebp),%edx
   11953:	89 d1                	mov    %edx,%ecx
   11955:	8b 15 88 b5 01 00    	mov    0x1b588,%edx
   1195b:	21 ca                	and    %ecx,%edx
   1195d:	88 10                	mov    %dl,(%eax)
   1195f:	8b 45 fc             	mov    -0x4(%ebp),%eax
   11962:	a3 84 b5 01 00       	mov    %eax,0x1b584
   11967:	eb 00                	jmp    11969 <__c_input_scan_code+0xdb>
   11969:	90                   	nop
   1196a:	c9                   	leave  
   1196b:	c3                   	ret    

0001196c <__c_keyboard_isr>:
   1196c:	55                   	push   %ebp
   1196d:	89 e5                	mov    %esp,%ebp
   1196f:	83 ec 08             	sub    $0x8,%esp
   11972:	83 ec 0c             	sub    $0xc,%esp
   11975:	6a 60                	push   $0x60
   11977:	e8 c4 e6 ff ff       	call   10040 <__inb>
   1197c:	83 c4 10             	add    $0x10,%esp
   1197f:	83 ec 0c             	sub    $0xc,%esp
   11982:	50                   	push   %eax
   11983:	e8 06 ff ff ff       	call   1188e <__c_input_scan_code>
   11988:	83 c4 10             	add    $0x10,%esp
   1198b:	83 ec 08             	sub    $0x8,%esp
   1198e:	6a 20                	push   $0x20
   11990:	6a 20                	push   $0x20
   11992:	e8 ce e6 ff ff       	call   10065 <__outb>
   11997:	83 c4 10             	add    $0x10,%esp
   1199a:	90                   	nop
   1199b:	c9                   	leave  
   1199c:	c3                   	ret    

0001199d <c_getchar>:
   1199d:	55                   	push   %ebp
   1199e:	89 e5                	mov    %esp,%ebp
   119a0:	83 ec 18             	sub    $0x18,%esp
   119a3:	e8 e5 e6 ff ff       	call   1008d <__get_flags>
   119a8:	25 00 02 00 00       	and    $0x200,%eax
   119ad:	89 45 f4             	mov    %eax,-0xc(%ebp)
   119b0:	eb 34                	jmp    119e6 <c_getchar+0x49>
   119b2:	83 7d f4 00          	cmpl   $0x0,-0xc(%ebp)
   119b6:	75 2e                	jne    119e6 <c_getchar+0x49>
   119b8:	90                   	nop
   119b9:	83 ec 0c             	sub    $0xc,%esp
   119bc:	6a 64                	push   $0x64
   119be:	e8 7d e6 ff ff       	call   10040 <__inb>
   119c3:	83 c4 10             	add    $0x10,%esp
   119c6:	83 e0 01             	and    $0x1,%eax
   119c9:	85 c0                	test   %eax,%eax
   119cb:	74 ec                	je     119b9 <c_getchar+0x1c>
   119cd:	83 ec 0c             	sub    $0xc,%esp
   119d0:	6a 60                	push   $0x60
   119d2:	e8 69 e6 ff ff       	call   10040 <__inb>
   119d7:	83 c4 10             	add    $0x10,%esp
   119da:	83 ec 0c             	sub    $0xc,%esp
   119dd:	50                   	push   %eax
   119de:	e8 ab fe ff ff       	call   1188e <__c_input_scan_code>
   119e3:	83 c4 10             	add    $0x10,%esp
   119e6:	8b 15 80 b5 01 00    	mov    0x1b580,%edx
   119ec:	a1 84 b5 01 00       	mov    0x1b584,%eax
   119f1:	39 c2                	cmp    %eax,%edx
   119f3:	74 bd                	je     119b2 <c_getchar+0x15>
   119f5:	a1 80 b5 01 00       	mov    0x1b580,%eax
   119fa:	0f b6 00             	movzbl (%eax),%eax
   119fd:	88 45 f3             	mov    %al,-0xd(%ebp)
   11a00:	a1 80 b5 01 00       	mov    0x1b580,%eax
   11a05:	83 ec 0c             	sub    $0xc,%esp
   11a08:	50                   	push   %eax
   11a09:	e8 63 fe ff ff       	call   11871 <__c_increment>
   11a0e:	83 c4 10             	add    $0x10,%esp
   11a11:	a3 80 b5 01 00       	mov    %eax,0x1b580
   11a16:	80 7d f3 04          	cmpb   $0x4,-0xd(%ebp)
   11a1a:	74 10                	je     11a2c <c_getchar+0x8f>
   11a1c:	0f be 45 f3          	movsbl -0xd(%ebp),%eax
   11a20:	83 ec 0c             	sub    $0xc,%esp
   11a23:	50                   	push   %eax
   11a24:	e8 aa f4 ff ff       	call   10ed3 <c_putchar>
   11a29:	83 c4 10             	add    $0x10,%esp
   11a2c:	0f be 45 f3          	movsbl -0xd(%ebp),%eax
   11a30:	c9                   	leave  
   11a31:	c3                   	ret    

00011a32 <c_gets>:
   11a32:	55                   	push   %ebp
   11a33:	89 e5                	mov    %esp,%ebp
   11a35:	83 ec 18             	sub    $0x18,%esp
   11a38:	c7 45 f4 00 00 00 00 	movl   $0x0,-0xc(%ebp)
   11a3f:	eb 2b                	jmp    11a6c <c_gets+0x3a>
   11a41:	e8 57 ff ff ff       	call   1199d <c_getchar>
   11a46:	88 45 f3             	mov    %al,-0xd(%ebp)
   11a49:	80 7d f3 04          	cmpb   $0x4,-0xd(%ebp)
   11a4d:	74 25                	je     11a74 <c_gets+0x42>
   11a4f:	8b 45 08             	mov    0x8(%ebp),%eax
   11a52:	8d 50 01             	lea    0x1(%eax),%edx
   11a55:	89 55 08             	mov    %edx,0x8(%ebp)
   11a58:	0f b6 55 f3          	movzbl -0xd(%ebp),%edx
   11a5c:	88 10                	mov    %dl,(%eax)
   11a5e:	83 45 f4 01          	addl   $0x1,-0xc(%ebp)
   11a62:	83 6d 0c 01          	subl   $0x1,0xc(%ebp)
   11a66:	80 7d f3 0a          	cmpb   $0xa,-0xd(%ebp)
   11a6a:	74 0b                	je     11a77 <c_gets+0x45>
   11a6c:	83 7d 0c 01          	cmpl   $0x1,0xc(%ebp)
   11a70:	77 cf                	ja     11a41 <c_gets+0xf>
   11a72:	eb 04                	jmp    11a78 <c_gets+0x46>
   11a74:	90                   	nop
   11a75:	eb 01                	jmp    11a78 <c_gets+0x46>
   11a77:	90                   	nop
   11a78:	8b 45 08             	mov    0x8(%ebp),%eax
   11a7b:	c6 00 00             	movb   $0x0,(%eax)
   11a7e:	8b 45 f4             	mov    -0xc(%ebp),%eax
   11a81:	c9                   	leave  
   11a82:	c3                   	ret    

00011a83 <c_input_queue>:
   11a83:	55                   	push   %ebp
   11a84:	89 e5                	mov    %esp,%ebp
   11a86:	83 ec 10             	sub    $0x10,%esp
   11a89:	a1 84 b5 01 00       	mov    0x1b584,%eax
   11a8e:	89 c2                	mov    %eax,%edx
   11a90:	a1 80 b5 01 00       	mov    0x1b580,%eax
   11a95:	29 c2                	sub    %eax,%edx
   11a97:	89 d0                	mov    %edx,%eax
   11a99:	89 45 fc             	mov    %eax,-0x4(%ebp)
   11a9c:	83 7d fc 00          	cmpl   $0x0,-0x4(%ebp)
   11aa0:	79 07                	jns    11aa9 <c_input_queue+0x26>
   11aa2:	81 45 fc c8 00 00 00 	addl   $0xc8,-0x4(%ebp)
   11aa9:	8b 45 fc             	mov    -0x4(%ebp),%eax
   11aac:	c9                   	leave  
   11aad:	c3                   	ret    

00011aae <c_io_init>:
   11aae:	55                   	push   %ebp
   11aaf:	89 e5                	mov    %esp,%ebp
   11ab1:	83 ec 08             	sub    $0x8,%esp
   11ab4:	c7 05 90 c7 01 00 00 	movl   $0x0,0x1c790
   11abb:	00 00 00 
   11abe:	c7 05 84 c7 01 00 00 	movl   $0x0,0x1c784
   11ac5:	00 00 00 
   11ac8:	c7 05 7c c7 01 00 4f 	movl   $0x4f,0x1c77c
   11acf:	00 00 00 
   11ad2:	c7 05 98 c7 01 00 18 	movl   $0x18,0x1c798
   11ad9:	00 00 00 
   11adc:	c7 05 9c c7 01 00 00 	movl   $0x0,0x1c79c
   11ae3:	00 00 00 
   11ae6:	c7 05 8c c7 01 00 00 	movl   $0x0,0x1c78c
   11aed:	00 00 00 
   11af0:	c7 05 78 c7 01 00 4f 	movl   $0x4f,0x1c778
   11af7:	00 00 00 
   11afa:	c7 05 88 c7 01 00 18 	movl   $0x18,0x1c788
   11b01:	00 00 00 
   11b04:	a1 84 c7 01 00       	mov    0x1c784,%eax
   11b09:	a3 94 c7 01 00       	mov    %eax,0x1c794
   11b0e:	a1 90 c7 01 00       	mov    0x1c790,%eax
   11b13:	a3 80 c7 01 00       	mov    %eax,0x1c780
   11b18:	e8 36 f1 ff ff       	call   10c53 <__c_setcursor>
   11b1d:	83 ec 08             	sub    $0x8,%esp
   11b20:	68 6c 19 01 00       	push   $0x1196c
   11b25:	6a 21                	push   $0x21
   11b27:	e8 b7 02 00 00       	call   11de3 <__install_isr>
   11b2c:	83 c4 10             	add    $0x10,%esp
   11b2f:	90                   	nop
   11b30:	c9                   	leave  
   11b31:	c3                   	ret    

00011b32 <__default_unexpected_handler>:
   11b32:	55                   	push   %ebp
   11b33:	89 e5                	mov    %esp,%ebp
   11b35:	83 ec 18             	sub    $0x18,%esp
   11b38:	8b 45 08             	mov    0x8(%ebp),%eax
   11b3b:	83 ec 04             	sub    $0x4,%esp
   11b3e:	ff 75 0c             	pushl  0xc(%ebp)
   11b41:	50                   	push   %eax
   11b42:	68 60 7a 01 00       	push   $0x17a60
   11b47:	e8 09 fd ff ff       	call   11855 <c_printf>
   11b4c:	83 c4 10             	add    $0x10,%esp
   11b4f:	a1 64 cc 01 00       	mov    0x1cc64,%eax
   11b54:	85 c0                	test   %eax,%eax
   11b56:	74 4b                	je     11ba3 <__default_unexpected_handler+0x71>
   11b58:	a1 64 cc 01 00       	mov    0x1cc64,%eax
   11b5d:	83 ec 08             	sub    $0x8,%esp
   11b60:	50                   	push   %eax
   11b61:	68 79 7a 01 00       	push   $0x17a79
   11b66:	e8 ee 0e 00 00       	call   12a59 <_pcb_dump>
   11b6b:	83 c4 10             	add    $0x10,%esp
   11b6e:	a1 64 cc 01 00       	mov    0x1cc64,%eax
   11b73:	8b 00                	mov    (%eax),%eax
   11b75:	83 ec 08             	sub    $0x8,%esp
   11b78:	50                   	push   %eax
   11b79:	68 85 7a 01 00       	push   $0x17a85
   11b7e:	e8 e7 0f 00 00       	call   12b6a <_context_dump>
   11b83:	83 c4 10             	add    $0x10,%esp
   11b86:	a1 64 cc 01 00       	mov    0x1cc64,%eax
   11b8b:	8b 40 04             	mov    0x4(%eax),%eax
   11b8e:	83 ec 04             	sub    $0x4,%esp
   11b91:	6a 00                	push   $0x0
   11b93:	50                   	push   %eax
   11b94:	68 95 7a 01 00       	push   $0x17a95
   11b99:	e8 b9 24 00 00       	call   14057 <_stk_dump>
   11b9e:	83 c4 10             	add    $0x10,%esp
   11ba1:	eb 29                	jmp    11bcc <__default_unexpected_handler+0x9a>
   11ba3:	83 ec 0c             	sub    $0xc,%esp
   11ba6:	68 a4 7a 01 00       	push   $0x17aa4
   11bab:	e8 63 f4 ff ff       	call   11013 <c_puts>
   11bb0:	83 c4 10             	add    $0x10,%esp
   11bb3:	8d 45 10             	lea    0x10(%ebp),%eax
   11bb6:	89 45 f4             	mov    %eax,-0xc(%ebp)
   11bb9:	83 ec 08             	sub    $0x8,%esp
   11bbc:	ff 75 f4             	pushl  -0xc(%ebp)
   11bbf:	68 d2 7a 01 00       	push   $0x17ad2
   11bc4:	e8 a1 0f 00 00       	call   12b6a <_context_dump>
   11bc9:	83 c4 10             	add    $0x10,%esp
   11bcc:	83 ec 0c             	sub    $0xc,%esp
   11bcf:	68 e3 7a 01 00       	push   $0x17ae3
   11bd4:	e8 db 01 00 00       	call   11db4 <__panic>
   11bd9:	83 c4 10             	add    $0x10,%esp
   11bdc:	90                   	nop
   11bdd:	c9                   	leave  
   11bde:	c3                   	ret    

00011bdf <__default_expected_handler>:
   11bdf:	55                   	push   %ebp
   11be0:	89 e5                	mov    %esp,%ebp
   11be2:	83 ec 08             	sub    $0x8,%esp
   11be5:	83 7d 08 1f          	cmpl   $0x1f,0x8(%ebp)
   11be9:	7e 2f                	jle    11c1a <__default_expected_handler+0x3b>
   11beb:	83 7d 08 2f          	cmpl   $0x2f,0x8(%ebp)
   11bef:	7f 29                	jg     11c1a <__default_expected_handler+0x3b>
   11bf1:	83 ec 08             	sub    $0x8,%esp
   11bf4:	6a 20                	push   $0x20
   11bf6:	6a 20                	push   $0x20
   11bf8:	e8 68 e4 ff ff       	call   10065 <__outb>
   11bfd:	83 c4 10             	add    $0x10,%esp
   11c00:	83 7d 08 27          	cmpl   $0x27,0x8(%ebp)
   11c04:	7e 24                	jle    11c2a <__default_expected_handler+0x4b>
   11c06:	83 ec 08             	sub    $0x8,%esp
   11c09:	6a 20                	push   $0x20
   11c0b:	68 a0 00 00 00       	push   $0xa0
   11c10:	e8 50 e4 ff ff       	call   10065 <__outb>
   11c15:	83 c4 10             	add    $0x10,%esp
   11c18:	eb 10                	jmp    11c2a <__default_expected_handler+0x4b>
   11c1a:	83 ec 0c             	sub    $0xc,%esp
   11c1d:	68 f8 7a 01 00       	push   $0x17af8
   11c22:	e8 8d 01 00 00       	call   11db4 <__panic>
   11c27:	83 c4 10             	add    $0x10,%esp
   11c2a:	90                   	nop
   11c2b:	c9                   	leave  
   11c2c:	c3                   	ret    

00011c2d <__default_mystery_handler>:
   11c2d:	55                   	push   %ebp
   11c2e:	89 e5                	mov    %esp,%ebp
   11c30:	83 ec 08             	sub    $0x8,%esp
   11c33:	83 ec 08             	sub    $0x8,%esp
   11c36:	6a 20                	push   $0x20
   11c38:	6a 20                	push   $0x20
   11c3a:	e8 26 e4 ff ff       	call   10065 <__outb>
   11c3f:	83 c4 10             	add    $0x10,%esp
   11c42:	90                   	nop
   11c43:	c9                   	leave  
   11c44:	c3                   	ret    

00011c45 <init_pic>:
   11c45:	55                   	push   %ebp
   11c46:	89 e5                	mov    %esp,%ebp
   11c48:	83 ec 08             	sub    $0x8,%esp
   11c4b:	83 ec 08             	sub    $0x8,%esp
   11c4e:	6a 11                	push   $0x11
   11c50:	6a 20                	push   $0x20
   11c52:	e8 0e e4 ff ff       	call   10065 <__outb>
   11c57:	83 c4 10             	add    $0x10,%esp
   11c5a:	83 ec 08             	sub    $0x8,%esp
   11c5d:	6a 11                	push   $0x11
   11c5f:	68 a0 00 00 00       	push   $0xa0
   11c64:	e8 fc e3 ff ff       	call   10065 <__outb>
   11c69:	83 c4 10             	add    $0x10,%esp
   11c6c:	83 ec 08             	sub    $0x8,%esp
   11c6f:	6a 20                	push   $0x20
   11c71:	6a 21                	push   $0x21
   11c73:	e8 ed e3 ff ff       	call   10065 <__outb>
   11c78:	83 c4 10             	add    $0x10,%esp
   11c7b:	83 ec 08             	sub    $0x8,%esp
   11c7e:	6a 28                	push   $0x28
   11c80:	68 a1 00 00 00       	push   $0xa1
   11c85:	e8 db e3 ff ff       	call   10065 <__outb>
   11c8a:	83 c4 10             	add    $0x10,%esp
   11c8d:	83 ec 08             	sub    $0x8,%esp
   11c90:	6a 04                	push   $0x4
   11c92:	6a 21                	push   $0x21
   11c94:	e8 cc e3 ff ff       	call   10065 <__outb>
   11c99:	83 c4 10             	add    $0x10,%esp
   11c9c:	83 ec 08             	sub    $0x8,%esp
   11c9f:	6a 02                	push   $0x2
   11ca1:	68 a1 00 00 00       	push   $0xa1
   11ca6:	e8 ba e3 ff ff       	call   10065 <__outb>
   11cab:	83 c4 10             	add    $0x10,%esp
   11cae:	83 ec 08             	sub    $0x8,%esp
   11cb1:	6a 01                	push   $0x1
   11cb3:	6a 21                	push   $0x21
   11cb5:	e8 ab e3 ff ff       	call   10065 <__outb>
   11cba:	83 c4 10             	add    $0x10,%esp
   11cbd:	83 ec 08             	sub    $0x8,%esp
   11cc0:	6a 01                	push   $0x1
   11cc2:	68 a1 00 00 00       	push   $0xa1
   11cc7:	e8 99 e3 ff ff       	call   10065 <__outb>
   11ccc:	83 c4 10             	add    $0x10,%esp
   11ccf:	83 ec 08             	sub    $0x8,%esp
   11cd2:	6a 00                	push   $0x0
   11cd4:	6a 21                	push   $0x21
   11cd6:	e8 8a e3 ff ff       	call   10065 <__outb>
   11cdb:	83 c4 10             	add    $0x10,%esp
   11cde:	83 ec 08             	sub    $0x8,%esp
   11ce1:	6a 00                	push   $0x0
   11ce3:	68 a1 00 00 00       	push   $0xa1
   11ce8:	e8 78 e3 ff ff       	call   10065 <__outb>
   11ced:	83 c4 10             	add    $0x10,%esp
   11cf0:	90                   	nop
   11cf1:	c9                   	leave  
   11cf2:	c3                   	ret    

00011cf3 <set_idt_entry>:
   11cf3:	55                   	push   %ebp
   11cf4:	89 e5                	mov    %esp,%ebp
   11cf6:	83 ec 10             	sub    $0x10,%esp
   11cf9:	8b 45 08             	mov    0x8(%ebp),%eax
   11cfc:	c1 e0 03             	shl    $0x3,%eax
   11cff:	05 00 25 00 00       	add    $0x2500,%eax
   11d04:	89 45 fc             	mov    %eax,-0x4(%ebp)
   11d07:	8b 45 0c             	mov    0xc(%ebp),%eax
   11d0a:	89 c2                	mov    %eax,%edx
   11d0c:	8b 45 fc             	mov    -0x4(%ebp),%eax
   11d0f:	66 89 10             	mov    %dx,(%eax)
   11d12:	8b 45 fc             	mov    -0x4(%ebp),%eax
   11d15:	66 c7 40 02 10 00    	movw   $0x10,0x2(%eax)
   11d1b:	8b 45 fc             	mov    -0x4(%ebp),%eax
   11d1e:	66 c7 40 04 00 8e    	movw   $0x8e00,0x4(%eax)
   11d24:	8b 45 0c             	mov    0xc(%ebp),%eax
   11d27:	c1 e8 10             	shr    $0x10,%eax
   11d2a:	89 c2                	mov    %eax,%edx
   11d2c:	8b 45 fc             	mov    -0x4(%ebp),%eax
   11d2f:	66 89 50 06          	mov    %dx,0x6(%eax)
   11d33:	90                   	nop
   11d34:	c9                   	leave  
   11d35:	c3                   	ret    

00011d36 <init_idt>:
   11d36:	55                   	push   %ebp
   11d37:	89 e5                	mov    %esp,%ebp
   11d39:	83 ec 18             	sub    $0x18,%esp
   11d3c:	c7 45 f4 00 00 00 00 	movl   $0x0,-0xc(%ebp)
   11d43:	eb 2d                	jmp    11d72 <init_idt+0x3c>
   11d45:	8b 45 f4             	mov    -0xc(%ebp),%eax
   11d48:	8b 04 85 60 b0 01 00 	mov    0x1b060(,%eax,4),%eax
   11d4f:	50                   	push   %eax
   11d50:	ff 75 f4             	pushl  -0xc(%ebp)
   11d53:	e8 9b ff ff ff       	call   11cf3 <set_idt_entry>
   11d58:	83 c4 08             	add    $0x8,%esp
   11d5b:	83 ec 08             	sub    $0x8,%esp
   11d5e:	68 32 1b 01 00       	push   $0x11b32
   11d63:	ff 75 f4             	pushl  -0xc(%ebp)
   11d66:	e8 78 00 00 00       	call   11de3 <__install_isr>
   11d6b:	83 c4 10             	add    $0x10,%esp
   11d6e:	83 45 f4 01          	addl   $0x1,-0xc(%ebp)
   11d72:	81 7d f4 ff 00 00 00 	cmpl   $0xff,-0xc(%ebp)
   11d79:	7e ca                	jle    11d45 <init_idt+0xf>
   11d7b:	83 ec 08             	sub    $0x8,%esp
   11d7e:	68 df 1b 01 00       	push   $0x11bdf
   11d83:	6a 21                	push   $0x21
   11d85:	e8 59 00 00 00       	call   11de3 <__install_isr>
   11d8a:	83 c4 10             	add    $0x10,%esp
   11d8d:	83 ec 08             	sub    $0x8,%esp
   11d90:	68 df 1b 01 00       	push   $0x11bdf
   11d95:	6a 20                	push   $0x20
   11d97:	e8 47 00 00 00       	call   11de3 <__install_isr>
   11d9c:	83 c4 10             	add    $0x10,%esp
   11d9f:	83 ec 08             	sub    $0x8,%esp
   11da2:	68 2d 1c 01 00       	push   $0x11c2d
   11da7:	6a 27                	push   $0x27
   11da9:	e8 35 00 00 00       	call   11de3 <__install_isr>
   11dae:	83 c4 10             	add    $0x10,%esp
   11db1:	90                   	nop
   11db2:	c9                   	leave  
   11db3:	c3                   	ret    

00011db4 <__panic>:
   11db4:	55                   	push   %ebp
   11db5:	89 e5                	mov    %esp,%ebp
   11db7:	83 ec 08             	sub    $0x8,%esp
   11dba:	fa                   	cli    
   11dbb:	83 ec 08             	sub    $0x8,%esp
   11dbe:	ff 75 08             	pushl  0x8(%ebp)
   11dc1:	68 19 7b 01 00       	push   $0x17b19
   11dc6:	e8 8a fa ff ff       	call   11855 <c_printf>
   11dcb:	83 c4 10             	add    $0x10,%esp
   11dce:	eb fe                	jmp    11dce <__panic+0x1a>

00011dd0 <__init_interrupts>:
   11dd0:	55                   	push   %ebp
   11dd1:	89 e5                	mov    %esp,%ebp
   11dd3:	83 ec 08             	sub    $0x8,%esp
   11dd6:	e8 5b ff ff ff       	call   11d36 <init_idt>
   11ddb:	e8 65 fe ff ff       	call   11c45 <init_pic>
   11de0:	90                   	nop
   11de1:	c9                   	leave  
   11de2:	c3                   	ret    

00011de3 <__install_isr>:
   11de3:	55                   	push   %ebp
   11de4:	89 e5                	mov    %esp,%ebp
   11de6:	83 ec 10             	sub    $0x10,%esp
   11de9:	8b 45 08             	mov    0x8(%ebp),%eax
   11dec:	8b 04 85 a0 c7 01 00 	mov    0x1c7a0(,%eax,4),%eax
   11df3:	89 45 fc             	mov    %eax,-0x4(%ebp)
   11df6:	8b 45 08             	mov    0x8(%ebp),%eax
   11df9:	8b 55 0c             	mov    0xc(%ebp),%edx
   11dfc:	89 14 85 a0 c7 01 00 	mov    %edx,0x1c7a0(,%eax,4)
   11e03:	8b 45 fc             	mov    -0x4(%ebp),%eax
   11e06:	c9                   	leave  
   11e07:	c3                   	ret    

00011e08 <__delay>:
   11e08:	55                   	push   %ebp
   11e09:	89 e5                	mov    %esp,%ebp
   11e0b:	83 ec 10             	sub    $0x10,%esp
   11e0e:	eb 16                	jmp    11e26 <__delay+0x1e>
   11e10:	c7 45 fc 00 00 00 00 	movl   $0x0,-0x4(%ebp)
   11e17:	eb 04                	jmp    11e1d <__delay+0x15>
   11e19:	83 45 fc 01          	addl   $0x1,-0x4(%ebp)
   11e1d:	81 7d fc 7f 96 98 00 	cmpl   $0x98967f,-0x4(%ebp)
   11e24:	7e f3                	jle    11e19 <__delay+0x11>
   11e26:	83 6d 08 01          	subl   $0x1,0x8(%ebp)
   11e2a:	83 7d 08 00          	cmpl   $0x0,0x8(%ebp)
   11e2e:	79 e0                	jns    11e10 <__delay+0x8>
   11e30:	90                   	nop
   11e31:	c9                   	leave  
   11e32:	c3                   	ret    

00011e33 <_clk_isr>:
   11e33:	55                   	push   %ebp
   11e34:	89 e5                	mov    %esp,%ebp
   11e36:	57                   	push   %edi
   11e37:	56                   	push   %esi
   11e38:	53                   	push   %ebx
   11e39:	83 ec 1c             	sub    $0x1c,%esp
   11e3c:	a1 ac b6 01 00       	mov    0x1b6ac,%eax
   11e41:	83 c0 01             	add    $0x1,%eax
   11e44:	a3 ac b6 01 00       	mov    %eax,0x1b6ac
   11e49:	a1 ac b6 01 00       	mov    0x1b6ac,%eax
   11e4e:	83 f8 64             	cmp    $0x64,%eax
   11e51:	75 39                	jne    11e8c <_clk_isr+0x59>
   11e53:	c7 05 ac b6 01 00 00 	movl   $0x0,0x1b6ac
   11e5a:	00 00 00 
   11e5d:	a1 b0 b6 01 00       	mov    0x1b6b0,%eax
   11e62:	83 c0 01             	add    $0x1,%eax
   11e65:	a3 b0 b6 01 00       	mov    %eax,0x1b6b0
   11e6a:	a1 b0 b6 01 00       	mov    0x1b6b0,%eax
   11e6f:	83 e0 03             	and    $0x3,%eax
   11e72:	0f b6 80 a6 7b 01 00 	movzbl 0x17ba6(%eax),%eax
   11e79:	0f be c0             	movsbl %al,%eax
   11e7c:	83 ec 04             	sub    $0x4,%esp
   11e7f:	50                   	push   %eax
   11e80:	6a 00                	push   $0x0
   11e82:	6a 4f                	push   $0x4f
   11e84:	e8 d2 ef ff ff       	call   10e5b <c_putchar_at>
   11e89:	83 c4 10             	add    $0x10,%esp
   11e8c:	8b 0d a0 cb 01 00    	mov    0x1cba0,%ecx
   11e92:	ba 59 17 b7 d1       	mov    $0xd1b71759,%edx
   11e97:	89 c8                	mov    %ecx,%eax
   11e99:	f7 e2                	mul    %edx
   11e9b:	89 d0                	mov    %edx,%eax
   11e9d:	c1 e8 0d             	shr    $0xd,%eax
   11ea0:	69 c0 10 27 00 00    	imul   $0x2710,%eax,%eax
   11ea6:	29 c1                	sub    %eax,%ecx
   11ea8:	89 c8                	mov    %ecx,%eax
   11eaa:	85 c0                	test   %eax,%eax
   11eac:	0f 85 f8 00 00 00    	jne    11faa <_clk_isr+0x177>
   11eb2:	a1 a0 cb 01 00       	mov    0x1cba0,%eax
   11eb7:	83 ec 08             	sub    $0x8,%esp
   11eba:	50                   	push   %eax
   11ebb:	68 30 7b 01 00       	push   $0x17b30
   11ec0:	e8 90 f9 ff ff       	call   11855 <c_printf>
   11ec5:	83 c4 10             	add    $0x10,%esp
   11ec8:	a1 44 cc 01 00       	mov    0x1cc44,%eax
   11ecd:	83 ec 0c             	sub    $0xc,%esp
   11ed0:	50                   	push   %eax
   11ed1:	e8 24 11 00 00       	call   12ffa <_q_size>
   11ed6:	83 c4 10             	add    $0x10,%esp
   11ed9:	89 c7                	mov    %eax,%edi
   11edb:	a1 68 cc 01 00       	mov    0x1cc68,%eax
   11ee0:	83 ec 0c             	sub    $0xc,%esp
   11ee3:	50                   	push   %eax
   11ee4:	e8 11 11 00 00       	call   12ffa <_q_size>
   11ee9:	83 c4 10             	add    $0x10,%esp
   11eec:	89 c6                	mov    %eax,%esi
   11eee:	a1 4c cc 01 00       	mov    0x1cc4c,%eax
   11ef3:	83 ec 0c             	sub    $0xc,%esp
   11ef6:	50                   	push   %eax
   11ef7:	e8 fe 10 00 00       	call   12ffa <_q_size>
   11efc:	83 c4 10             	add    $0x10,%esp
   11eff:	89 c3                	mov    %eax,%ebx
   11f01:	a1 48 cc 01 00       	mov    0x1cc48,%eax
   11f06:	83 ec 0c             	sub    $0xc,%esp
   11f09:	50                   	push   %eax
   11f0a:	e8 eb 10 00 00       	call   12ffa <_q_size>
   11f0f:	83 c4 10             	add    $0x10,%esp
   11f12:	83 ec 0c             	sub    $0xc,%esp
   11f15:	57                   	push   %edi
   11f16:	56                   	push   %esi
   11f17:	53                   	push   %ebx
   11f18:	50                   	push   %eax
   11f19:	68 40 7b 01 00       	push   $0x17b40
   11f1e:	e8 32 f9 ff ff       	call   11855 <c_printf>
   11f23:	83 c4 20             	add    $0x20,%esp
   11f26:	83 ec 0c             	sub    $0xc,%esp
   11f29:	68 65 7b 01 00       	push   $0x17b65
   11f2e:	e8 e0 f0 ff ff       	call   11013 <c_puts>
   11f33:	83 c4 10             	add    $0x10,%esp
   11f36:	c7 45 e0 00 00 00 00 	movl   $0x0,-0x20(%ebp)
   11f3d:	eb 3e                	jmp    11f7d <_clk_isr+0x14a>
   11f3f:	8b 45 e0             	mov    -0x20(%ebp),%eax
   11f42:	8b 04 85 50 cc 01 00 	mov    0x1cc50(,%eax,4),%eax
   11f49:	83 ec 0c             	sub    $0xc,%esp
   11f4c:	50                   	push   %eax
   11f4d:	e8 a8 10 00 00       	call   12ffa <_q_size>
   11f52:	83 c4 10             	add    $0x10,%esp
   11f55:	83 ec 08             	sub    $0x8,%esp
   11f58:	50                   	push   %eax
   11f59:	68 6e 7b 01 00       	push   $0x17b6e
   11f5e:	e8 f2 f8 ff ff       	call   11855 <c_printf>
   11f63:	83 c4 10             	add    $0x10,%esp
   11f66:	83 7d e0 04          	cmpl   $0x4,-0x20(%ebp)
   11f6a:	74 0d                	je     11f79 <_clk_isr+0x146>
   11f6c:	83 ec 0c             	sub    $0xc,%esp
   11f6f:	6a 2c                	push   $0x2c
   11f71:	e8 5d ef ff ff       	call   10ed3 <c_putchar>
   11f76:	83 c4 10             	add    $0x10,%esp
   11f79:	83 45 e0 01          	addl   $0x1,-0x20(%ebp)
   11f7d:	83 7d e0 04          	cmpl   $0x4,-0x20(%ebp)
   11f81:	7e bc                	jle    11f3f <_clk_isr+0x10c>
   11f83:	83 ec 0c             	sub    $0xc,%esp
   11f86:	68 71 7b 01 00       	push   $0x17b71
   11f8b:	e8 83 f0 ff ff       	call   11013 <c_puts>
   11f90:	83 c4 10             	add    $0x10,%esp
   11f93:	e8 5b 1f 00 00       	call   13ef3 <_sio_dump>
   11f98:	83 ec 08             	sub    $0x8,%esp
   11f9b:	6a 00                	push   $0x0
   11f9d:	68 74 7b 01 00       	push   $0x17b74
   11fa2:	e8 ce 0c 00 00       	call   12c75 <_active_dump>
   11fa7:	83 c4 10             	add    $0x10,%esp
   11faa:	a1 a0 cb 01 00       	mov    0x1cba0,%eax
   11faf:	83 c0 01             	add    $0x1,%eax
   11fb2:	a3 a0 cb 01 00       	mov    %eax,0x1cba0
   11fb7:	a1 48 cc 01 00       	mov    0x1cc48,%eax
   11fbc:	83 ec 0c             	sub    $0xc,%esp
   11fbf:	50                   	push   %eax
   11fc0:	e8 7d 11 00 00       	call   13142 <_q_peek>
   11fc5:	83 c4 10             	add    $0x10,%esp
   11fc8:	89 45 e4             	mov    %eax,-0x1c(%ebp)
   11fcb:	eb 51                	jmp    1201e <_clk_isr+0x1eb>
   11fcd:	a1 48 cc 01 00       	mov    0x1cc48,%eax
   11fd2:	83 ec 0c             	sub    $0xc,%esp
   11fd5:	50                   	push   %eax
   11fd6:	e8 aa 11 00 00       	call   13185 <_q_remove>
   11fdb:	83 c4 10             	add    $0x10,%esp
   11fde:	89 45 e4             	mov    %eax,-0x1c(%ebp)
   11fe1:	83 7d e4 00          	cmpl   $0x0,-0x1c(%ebp)
   11fe5:	75 15                	jne    11ffc <_clk_isr+0x1c9>
   11fe7:	83 ec 08             	sub    $0x8,%esp
   11fea:	68 82 7b 01 00       	push   $0x17b82
   11fef:	68 9d 7b 01 00       	push   $0x17b9d
   11ff4:	e8 46 02 00 00       	call   1223f <_kpanic>
   11ff9:	83 c4 10             	add    $0x10,%esp
   11ffc:	83 ec 0c             	sub    $0xc,%esp
   11fff:	ff 75 e4             	pushl  -0x1c(%ebp)
   12002:	e8 c1 16 00 00       	call   136c8 <_schedule>
   12007:	83 c4 10             	add    $0x10,%esp
   1200a:	a1 48 cc 01 00       	mov    0x1cc48,%eax
   1200f:	83 ec 0c             	sub    $0xc,%esp
   12012:	50                   	push   %eax
   12013:	e8 2a 11 00 00       	call   13142 <_q_peek>
   12018:	83 c4 10             	add    $0x10,%esp
   1201b:	89 45 e4             	mov    %eax,-0x1c(%ebp)
   1201e:	83 7d e4 00          	cmpl   $0x0,-0x1c(%ebp)
   12022:	74 0f                	je     12033 <_clk_isr+0x200>
   12024:	8b 45 e4             	mov    -0x1c(%ebp),%eax
   12027:	8b 50 08             	mov    0x8(%eax),%edx
   1202a:	a1 a0 cb 01 00       	mov    0x1cba0,%eax
   1202f:	39 c2                	cmp    %eax,%edx
   12031:	76 9a                	jbe    11fcd <_clk_isr+0x19a>
   12033:	a1 64 cc 01 00       	mov    0x1cc64,%eax
   12038:	8b 15 64 cc 01 00    	mov    0x1cc64,%edx
   1203e:	0f b6 52 18          	movzbl 0x18(%edx),%edx
   12042:	83 ea 01             	sub    $0x1,%edx
   12045:	88 50 18             	mov    %dl,0x18(%eax)
   12048:	a1 64 cc 01 00       	mov    0x1cc64,%eax
   1204d:	0f b6 40 18          	movzbl 0x18(%eax),%eax
   12051:	84 c0                	test   %al,%al
   12053:	75 16                	jne    1206b <_clk_isr+0x238>
   12055:	a1 64 cc 01 00       	mov    0x1cc64,%eax
   1205a:	83 ec 0c             	sub    $0xc,%esp
   1205d:	50                   	push   %eax
   1205e:	e8 65 16 00 00       	call   136c8 <_schedule>
   12063:	83 c4 10             	add    $0x10,%esp
   12066:	e8 db 16 00 00       	call   13746 <_dispatch>
   1206b:	83 ec 08             	sub    $0x8,%esp
   1206e:	6a 20                	push   $0x20
   12070:	6a 20                	push   $0x20
   12072:	e8 ee df ff ff       	call   10065 <__outb>
   12077:	83 c4 10             	add    $0x10,%esp
   1207a:	90                   	nop
   1207b:	8d 65 f4             	lea    -0xc(%ebp),%esp
   1207e:	5b                   	pop    %ebx
   1207f:	5e                   	pop    %esi
   12080:	5f                   	pop    %edi
   12081:	5d                   	pop    %ebp
   12082:	c3                   	ret    

00012083 <_clk_init>:
   12083:	55                   	push   %ebp
   12084:	89 e5                	mov    %esp,%ebp
   12086:	83 ec 18             	sub    $0x18,%esp
   12089:	83 ec 0c             	sub    $0xc,%esp
   1208c:	68 ab 7b 01 00       	push   $0x17bab
   12091:	e8 7d ef ff ff       	call   11013 <c_puts>
   12096:	83 c4 10             	add    $0x10,%esp
   12099:	c7 05 ac b6 01 00 63 	movl   $0x63,0x1b6ac
   120a0:	00 00 00 
   120a3:	c7 05 b0 b6 01 00 00 	movl   $0x0,0x1b6b0
   120aa:	00 00 00 
   120ad:	c7 05 a0 cb 01 00 00 	movl   $0x0,0x1cba0
   120b4:	00 00 00 
   120b7:	c7 45 f4 a9 04 00 00 	movl   $0x4a9,-0xc(%ebp)
   120be:	83 ec 08             	sub    $0x8,%esp
   120c1:	6a 36                	push   $0x36
   120c3:	6a 43                	push   $0x43
   120c5:	e8 9b df ff ff       	call   10065 <__outb>
   120ca:	83 c4 10             	add    $0x10,%esp
   120cd:	8b 45 f4             	mov    -0xc(%ebp),%eax
   120d0:	0f b6 c0             	movzbl %al,%eax
   120d3:	83 ec 08             	sub    $0x8,%esp
   120d6:	50                   	push   %eax
   120d7:	6a 40                	push   $0x40
   120d9:	e8 87 df ff ff       	call   10065 <__outb>
   120de:	83 c4 10             	add    $0x10,%esp
   120e1:	8b 45 f4             	mov    -0xc(%ebp),%eax
   120e4:	c1 e8 08             	shr    $0x8,%eax
   120e7:	0f b6 c0             	movzbl %al,%eax
   120ea:	83 ec 08             	sub    $0x8,%esp
   120ed:	50                   	push   %eax
   120ee:	6a 40                	push   $0x40
   120f0:	e8 70 df ff ff       	call   10065 <__outb>
   120f5:	83 c4 10             	add    $0x10,%esp
   120f8:	83 ec 08             	sub    $0x8,%esp
   120fb:	68 33 1e 01 00       	push   $0x11e33
   12100:	6a 20                	push   $0x20
   12102:	e8 dc fc ff ff       	call   11de3 <__install_isr>
   12107:	83 c4 10             	add    $0x10,%esp
   1210a:	90                   	nop
   1210b:	c9                   	leave  
   1210c:	c3                   	ret    

0001210d <_put_char_or_code>:
   1210d:	55                   	push   %ebp
   1210e:	89 e5                	mov    %esp,%ebp
   12110:	83 ec 08             	sub    $0x8,%esp
   12113:	83 7d 08 1f          	cmpl   $0x1f,0x8(%ebp)
   12117:	7e 17                	jle    12130 <_put_char_or_code+0x23>
   12119:	83 7d 08 7e          	cmpl   $0x7e,0x8(%ebp)
   1211d:	7f 11                	jg     12130 <_put_char_or_code+0x23>
   1211f:	8b 45 08             	mov    0x8(%ebp),%eax
   12122:	83 ec 0c             	sub    $0xc,%esp
   12125:	50                   	push   %eax
   12126:	e8 a8 ed ff ff       	call   10ed3 <c_putchar>
   1212b:	83 c4 10             	add    $0x10,%esp
   1212e:	eb 13                	jmp    12143 <_put_char_or_code+0x36>
   12130:	83 ec 08             	sub    $0x8,%esp
   12133:	ff 75 08             	pushl  0x8(%ebp)
   12136:	68 b2 7b 01 00       	push   $0x17bb2
   1213b:	e8 15 f7 ff ff       	call   11855 <c_printf>
   12140:	83 c4 10             	add    $0x10,%esp
   12143:	90                   	nop
   12144:	c9                   	leave  
   12145:	c3                   	ret    

00012146 <_kmemset>:
   12146:	55                   	push   %ebp
   12147:	89 e5                	mov    %esp,%ebp
   12149:	53                   	push   %ebx
   1214a:	8b 5d 08             	mov    0x8(%ebp),%ebx
   1214d:	8b 4d 0c             	mov    0xc(%ebp),%ecx
   12150:	8b 45 10             	mov    0x10(%ebp),%eax
   12153:	89 c2                	mov    %eax,%edx
   12155:	eb 07                	jmp    1215e <_kmemset+0x18>
   12157:	89 d8                	mov    %ebx,%eax
   12159:	8d 58 01             	lea    0x1(%eax),%ebx
   1215c:	88 10                	mov    %dl,(%eax)
   1215e:	89 c8                	mov    %ecx,%eax
   12160:	8d 48 ff             	lea    -0x1(%eax),%ecx
   12163:	85 c0                	test   %eax,%eax
   12165:	75 f0                	jne    12157 <_kmemset+0x11>
   12167:	90                   	nop
   12168:	5b                   	pop    %ebx
   12169:	5d                   	pop    %ebp
   1216a:	c3                   	ret    

0001216b <_kmemclr>:
   1216b:	55                   	push   %ebp
   1216c:	89 e5                	mov    %esp,%ebp
   1216e:	8b 4d 08             	mov    0x8(%ebp),%ecx
   12171:	8b 55 0c             	mov    0xc(%ebp),%edx
   12174:	eb 08                	jmp    1217e <_kmemclr+0x13>
   12176:	89 c8                	mov    %ecx,%eax
   12178:	8d 48 01             	lea    0x1(%eax),%ecx
   1217b:	c6 00 00             	movb   $0x0,(%eax)
   1217e:	89 d0                	mov    %edx,%eax
   12180:	8d 50 ff             	lea    -0x1(%eax),%edx
   12183:	85 c0                	test   %eax,%eax
   12185:	75 ef                	jne    12176 <_kmemclr+0xb>
   12187:	90                   	nop
   12188:	5d                   	pop    %ebp
   12189:	c3                   	ret    

0001218a <_kmemcpy>:
   1218a:	55                   	push   %ebp
   1218b:	89 e5                	mov    %esp,%ebp
   1218d:	56                   	push   %esi
   1218e:	53                   	push   %ebx
   1218f:	8b 5d 08             	mov    0x8(%ebp),%ebx
   12192:	8b 75 0c             	mov    0xc(%ebp),%esi
   12195:	8b 4d 10             	mov    0x10(%ebp),%ecx
   12198:	eb 0f                	jmp    121a9 <_kmemcpy+0x1f>
   1219a:	89 d8                	mov    %ebx,%eax
   1219c:	8d 58 01             	lea    0x1(%eax),%ebx
   1219f:	89 f2                	mov    %esi,%edx
   121a1:	8d 72 01             	lea    0x1(%edx),%esi
   121a4:	0f b6 12             	movzbl (%edx),%edx
   121a7:	88 10                	mov    %dl,(%eax)
   121a9:	89 c8                	mov    %ecx,%eax
   121ab:	8d 48 ff             	lea    -0x1(%eax),%ecx
   121ae:	85 c0                	test   %eax,%eax
   121b0:	75 e8                	jne    1219a <_kmemcpy+0x10>
   121b2:	90                   	nop
   121b3:	5b                   	pop    %ebx
   121b4:	5e                   	pop    %esi
   121b5:	5d                   	pop    %ebp
   121b6:	c3                   	ret    

000121b7 <_kstrcpy>:
   121b7:	55                   	push   %ebp
   121b8:	89 e5                	mov    %esp,%ebp
   121ba:	53                   	push   %ebx
   121bb:	83 ec 10             	sub    $0x10,%esp
   121be:	8b 55 08             	mov    0x8(%ebp),%edx
   121c1:	8b 5d 0c             	mov    0xc(%ebp),%ebx
   121c4:	89 55 f8             	mov    %edx,-0x8(%ebp)
   121c7:	90                   	nop
   121c8:	89 d0                	mov    %edx,%eax
   121ca:	8d 50 01             	lea    0x1(%eax),%edx
   121cd:	89 d9                	mov    %ebx,%ecx
   121cf:	8d 59 01             	lea    0x1(%ecx),%ebx
   121d2:	0f b6 09             	movzbl (%ecx),%ecx
   121d5:	88 08                	mov    %cl,(%eax)
   121d7:	0f b6 00             	movzbl (%eax),%eax
   121da:	84 c0                	test   %al,%al
   121dc:	75 ea                	jne    121c8 <_kstrcpy+0x11>
   121de:	8b 45 f8             	mov    -0x8(%ebp),%eax
   121e1:	83 c4 10             	add    $0x10,%esp
   121e4:	5b                   	pop    %ebx
   121e5:	5d                   	pop    %ebp
   121e6:	c3                   	ret    

000121e7 <_kstrlen>:
   121e7:	55                   	push   %ebp
   121e8:	89 e5                	mov    %esp,%ebp
   121ea:	53                   	push   %ebx
   121eb:	8b 55 08             	mov    0x8(%ebp),%edx
   121ee:	bb 00 00 00 00       	mov    $0x0,%ebx
   121f3:	eb 03                	jmp    121f8 <_kstrlen+0x11>
   121f5:	83 c3 01             	add    $0x1,%ebx
   121f8:	89 d0                	mov    %edx,%eax
   121fa:	8d 50 01             	lea    0x1(%eax),%edx
   121fd:	0f b6 00             	movzbl (%eax),%eax
   12200:	84 c0                	test   %al,%al
   12202:	75 f1                	jne    121f5 <_kstrlen+0xe>
   12204:	89 d8                	mov    %ebx,%eax
   12206:	5b                   	pop    %ebx
   12207:	5d                   	pop    %ebp
   12208:	c3                   	ret    

00012209 <_kstrcmp>:
   12209:	55                   	push   %ebp
   1220a:	89 e5                	mov    %esp,%ebp
   1220c:	53                   	push   %ebx
   1220d:	8b 45 08             	mov    0x8(%ebp),%eax
   12210:	8b 55 0c             	mov    0xc(%ebp),%edx
   12213:	eb 06                	jmp    1221b <_kstrcmp+0x12>
   12215:	83 c0 01             	add    $0x1,%eax
   12218:	83 c2 01             	add    $0x1,%edx
   1221b:	0f b6 08             	movzbl (%eax),%ecx
   1221e:	84 c9                	test   %cl,%cl
   12220:	74 0a                	je     1222c <_kstrcmp+0x23>
   12222:	0f b6 18             	movzbl (%eax),%ebx
   12225:	0f b6 0a             	movzbl (%edx),%ecx
   12228:	38 cb                	cmp    %cl,%bl
   1222a:	74 e9                	je     12215 <_kstrcmp+0xc>
   1222c:	0f b6 00             	movzbl (%eax),%eax
   1222f:	0f b6 c8             	movzbl %al,%ecx
   12232:	0f b6 02             	movzbl (%edx),%eax
   12235:	0f b6 c0             	movzbl %al,%eax
   12238:	29 c1                	sub    %eax,%ecx
   1223a:	89 c8                	mov    %ecx,%eax
   1223c:	5b                   	pop    %ebx
   1223d:	5d                   	pop    %ebp
   1223e:	c3                   	ret    

0001223f <_kpanic>:
   1223f:	55                   	push   %ebp
   12240:	89 e5                	mov    %esp,%ebp
   12242:	57                   	push   %edi
   12243:	56                   	push   %esi
   12244:	53                   	push   %ebx
   12245:	83 ec 1c             	sub    $0x1c,%esp
   12248:	83 ec 0c             	sub    $0xc,%esp
   1224b:	68 b9 7b 01 00       	push   $0x17bb9
   12250:	e8 be ed ff ff       	call   11013 <c_puts>
   12255:	83 c4 10             	add    $0x10,%esp
   12258:	83 7d 0c 00          	cmpl   $0x0,0xc(%ebp)
   1225c:	74 05                	je     12263 <_kpanic+0x24>
   1225e:	8b 45 0c             	mov    0xc(%ebp),%eax
   12261:	eb 05                	jmp    12268 <_kpanic+0x29>
   12263:	b8 d6 7b 01 00       	mov    $0x17bd6,%eax
   12268:	83 ec 04             	sub    $0x4,%esp
   1226b:	50                   	push   %eax
   1226c:	ff 75 08             	pushl  0x8(%ebp)
   1226f:	68 dd 7b 01 00       	push   $0x17bdd
   12274:	e8 dc f5 ff ff       	call   11855 <c_printf>
   12279:	83 c4 10             	add    $0x10,%esp
   1227c:	a1 64 cc 01 00       	mov    0x1cc64,%eax
   12281:	83 ec 08             	sub    $0x8,%esp
   12284:	50                   	push   %eax
   12285:	68 f1 7b 01 00       	push   $0x17bf1
   1228a:	e8 ca 07 00 00       	call   12a59 <_pcb_dump>
   1228f:	83 c4 10             	add    $0x10,%esp
   12292:	a1 48 cc 01 00       	mov    0x1cc48,%eax
   12297:	83 ec 0c             	sub    $0xc,%esp
   1229a:	50                   	push   %eax
   1229b:	e8 5a 0d 00 00       	call   12ffa <_q_size>
   122a0:	83 c4 10             	add    $0x10,%esp
   122a3:	83 ec 08             	sub    $0x8,%esp
   122a6:	50                   	push   %eax
   122a7:	68 f9 7b 01 00       	push   $0x17bf9
   122ac:	e8 a4 f5 ff ff       	call   11855 <c_printf>
   122b1:	83 c4 10             	add    $0x10,%esp
   122b4:	a1 44 cc 01 00       	mov    0x1cc44,%eax
   122b9:	83 ec 0c             	sub    $0xc,%esp
   122bc:	50                   	push   %eax
   122bd:	e8 38 0d 00 00       	call   12ffa <_q_size>
   122c2:	83 c4 10             	add    $0x10,%esp
   122c5:	89 c6                	mov    %eax,%esi
   122c7:	a1 68 cc 01 00       	mov    0x1cc68,%eax
   122cc:	83 ec 0c             	sub    $0xc,%esp
   122cf:	50                   	push   %eax
   122d0:	e8 25 0d 00 00       	call   12ffa <_q_size>
   122d5:	83 c4 10             	add    $0x10,%esp
   122d8:	89 c3                	mov    %eax,%ebx
   122da:	a1 4c cc 01 00       	mov    0x1cc4c,%eax
   122df:	83 ec 0c             	sub    $0xc,%esp
   122e2:	50                   	push   %eax
   122e3:	e8 12 0d 00 00       	call   12ffa <_q_size>
   122e8:	83 c4 10             	add    $0x10,%esp
   122eb:	56                   	push   %esi
   122ec:	53                   	push   %ebx
   122ed:	50                   	push   %eax
   122ee:	68 10 7c 01 00       	push   $0x17c10
   122f3:	e8 5d f5 ff ff       	call   11855 <c_printf>
   122f8:	83 c4 10             	add    $0x10,%esp
   122fb:	a1 60 cc 01 00       	mov    0x1cc60,%eax
   12300:	83 ec 0c             	sub    $0xc,%esp
   12303:	50                   	push   %eax
   12304:	e8 f1 0c 00 00       	call   12ffa <_q_size>
   12309:	83 c4 10             	add    $0x10,%esp
   1230c:	89 45 e4             	mov    %eax,-0x1c(%ebp)
   1230f:	a1 5c cc 01 00       	mov    0x1cc5c,%eax
   12314:	83 ec 0c             	sub    $0xc,%esp
   12317:	50                   	push   %eax
   12318:	e8 dd 0c 00 00       	call   12ffa <_q_size>
   1231d:	83 c4 10             	add    $0x10,%esp
   12320:	89 c7                	mov    %eax,%edi
   12322:	a1 58 cc 01 00       	mov    0x1cc58,%eax
   12327:	83 ec 0c             	sub    $0xc,%esp
   1232a:	50                   	push   %eax
   1232b:	e8 ca 0c 00 00       	call   12ffa <_q_size>
   12330:	83 c4 10             	add    $0x10,%esp
   12333:	89 c6                	mov    %eax,%esi
   12335:	a1 54 cc 01 00       	mov    0x1cc54,%eax
   1233a:	83 ec 0c             	sub    $0xc,%esp
   1233d:	50                   	push   %eax
   1233e:	e8 b7 0c 00 00       	call   12ffa <_q_size>
   12343:	83 c4 10             	add    $0x10,%esp
   12346:	89 c3                	mov    %eax,%ebx
   12348:	a1 50 cc 01 00       	mov    0x1cc50,%eax
   1234d:	83 ec 0c             	sub    $0xc,%esp
   12350:	50                   	push   %eax
   12351:	e8 a4 0c 00 00       	call   12ffa <_q_size>
   12356:	83 c4 10             	add    $0x10,%esp
   12359:	83 ec 08             	sub    $0x8,%esp
   1235c:	ff 75 e4             	pushl  -0x1c(%ebp)
   1235f:	57                   	push   %edi
   12360:	56                   	push   %esi
   12361:	53                   	push   %ebx
   12362:	50                   	push   %eax
   12363:	68 2b 7c 01 00       	push   $0x17c2b
   12368:	e8 e8 f4 ff ff       	call   11855 <c_printf>
   1236d:	83 c4 20             	add    $0x20,%esp
   12370:	83 ec 08             	sub    $0x8,%esp
   12373:	6a 00                	push   $0x0
   12375:	68 44 7c 01 00       	push   $0x17c44
   1237a:	e8 f6 08 00 00       	call   12c75 <_active_dump>
   1237f:	83 c4 10             	add    $0x10,%esp
   12382:	83 ec 0c             	sub    $0xc,%esp
   12385:	68 4e 7c 01 00       	push   $0x17c4e
   1238a:	e8 25 fa ff ff       	call   11db4 <__panic>
   1238f:	83 c4 10             	add    $0x10,%esp
   12392:	90                   	nop
   12393:	8d 65 f4             	lea    -0xc(%ebp),%esp
   12396:	5b                   	pop    %ebx
   12397:	5e                   	pop    %esi
   12398:	5f                   	pop    %edi
   12399:	5d                   	pop    %ebp
   1239a:	c3                   	ret    

0001239b <_add_block>:
   1239b:	55                   	push   %ebp
   1239c:	89 e5                	mov    %esp,%ebp
   1239e:	83 ec 18             	sub    $0x18,%esp
   123a1:	8b 45 08             	mov    0x8(%ebp),%eax
   123a4:	89 45 ec             	mov    %eax,-0x14(%ebp)
   123a7:	8b 55 08             	mov    0x8(%ebp),%edx
   123aa:	8b 45 0c             	mov    0xc(%ebp),%eax
   123ad:	01 d0                	add    %edx,%eax
   123af:	89 c2                	mov    %eax,%edx
   123b1:	8b 45 ec             	mov    -0x14(%ebp),%eax
   123b4:	83 c0 04             	add    $0x4,%eax
   123b7:	29 c2                	sub    %eax,%edx
   123b9:	89 d0                	mov    %edx,%eax
   123bb:	c1 f8 02             	sar    $0x2,%eax
   123be:	89 c2                	mov    %eax,%edx
   123c0:	8b 45 ec             	mov    -0x14(%ebp),%eax
   123c3:	89 10                	mov    %edx,(%eax)
   123c5:	8b 45 ec             	mov    -0x14(%ebp),%eax
   123c8:	c7 40 04 00 00 00 00 	movl   $0x0,0x4(%eax)
   123cf:	a1 b4 b6 01 00       	mov    0x1b6b4,%eax
   123d4:	85 c0                	test   %eax,%eax
   123d6:	75 0a                	jne    123e2 <_add_block+0x47>
   123d8:	8b 45 ec             	mov    -0x14(%ebp),%eax
   123db:	a3 b4 b6 01 00       	mov    %eax,0x1b6b4
   123e0:	eb 6b                	jmp    1244d <_add_block+0xb2>
   123e2:	c7 45 f4 00 00 00 00 	movl   $0x0,-0xc(%ebp)
   123e9:	a1 b4 b6 01 00       	mov    0x1b6b4,%eax
   123ee:	89 45 f0             	mov    %eax,-0x10(%ebp)
   123f1:	eb 0f                	jmp    12402 <_add_block+0x67>
   123f3:	8b 45 f0             	mov    -0x10(%ebp),%eax
   123f6:	89 45 f4             	mov    %eax,-0xc(%ebp)
   123f9:	8b 45 f0             	mov    -0x10(%ebp),%eax
   123fc:	8b 40 04             	mov    0x4(%eax),%eax
   123ff:	89 45 f0             	mov    %eax,-0x10(%ebp)
   12402:	83 7d f0 00          	cmpl   $0x0,-0x10(%ebp)
   12406:	74 08                	je     12410 <_add_block+0x75>
   12408:	8b 45 f0             	mov    -0x10(%ebp),%eax
   1240b:	3b 45 ec             	cmp    -0x14(%ebp),%eax
   1240e:	72 e3                	jb     123f3 <_add_block+0x58>
   12410:	8b 45 ec             	mov    -0x14(%ebp),%eax
   12413:	8b 55 f0             	mov    -0x10(%ebp),%edx
   12416:	89 50 04             	mov    %edx,0x4(%eax)
   12419:	83 7d f4 00          	cmpl   $0x0,-0xc(%ebp)
   1241d:	75 25                	jne    12444 <_add_block+0xa9>
   1241f:	83 7d f0 00          	cmpl   $0x0,-0x10(%ebp)
   12423:	75 15                	jne    1243a <_add_block+0x9f>
   12425:	83 ec 08             	sub    $0x8,%esp
   12428:	68 5c 7c 01 00       	push   $0x17c5c
   1242d:	68 77 7c 01 00       	push   $0x17c77
   12432:	e8 08 fe ff ff       	call   1223f <_kpanic>
   12437:	83 c4 10             	add    $0x10,%esp
   1243a:	8b 45 ec             	mov    -0x14(%ebp),%eax
   1243d:	a3 b4 b6 01 00       	mov    %eax,0x1b6b4
   12442:	eb 09                	jmp    1244d <_add_block+0xb2>
   12444:	8b 45 f4             	mov    -0xc(%ebp),%eax
   12447:	8b 55 ec             	mov    -0x14(%ebp),%edx
   1244a:	89 50 04             	mov    %edx,0x4(%eax)
   1244d:	c9                   	leave  
   1244e:	c3                   	ret    

0001244f <_dump_freelist>:
   1244f:	55                   	push   %ebp
   12450:	89 e5                	mov    %esp,%ebp
   12452:	83 ec 18             	sub    $0x18,%esp
   12455:	83 ec 08             	sub    $0x8,%esp
   12458:	68 b4 b6 01 00       	push   $0x1b6b4
   1245d:	68 82 7c 01 00       	push   $0x17c82
   12462:	e8 ee f3 ff ff       	call   11855 <c_printf>
   12467:	83 c4 10             	add    $0x10,%esp
   1246a:	a1 b4 b6 01 00       	mov    0x1b6b4,%eax
   1246f:	89 45 f4             	mov    %eax,-0xc(%ebp)
   12472:	eb 3e                	jmp    124b2 <_dump_freelist+0x63>
   12474:	8b 45 f4             	mov    -0xc(%ebp),%eax
   12477:	8b 50 04             	mov    0x4(%eax),%edx
   1247a:	8b 45 f4             	mov    -0xc(%ebp),%eax
   1247d:	8b 00                	mov    (%eax),%eax
   1247f:	83 c0 01             	add    $0x1,%eax
   12482:	8d 0c 85 00 00 00 00 	lea    0x0(,%eax,4),%ecx
   12489:	8b 45 f4             	mov    -0xc(%ebp),%eax
   1248c:	01 c1                	add    %eax,%ecx
   1248e:	8b 45 f4             	mov    -0xc(%ebp),%eax
   12491:	8b 00                	mov    (%eax),%eax
   12493:	83 ec 0c             	sub    $0xc,%esp
   12496:	52                   	push   %edx
   12497:	51                   	push   %ecx
   12498:	50                   	push   %eax
   12499:	ff 75 f4             	pushl  -0xc(%ebp)
   1249c:	68 94 7c 01 00       	push   $0x17c94
   124a1:	e8 af f3 ff ff       	call   11855 <c_printf>
   124a6:	83 c4 20             	add    $0x20,%esp
   124a9:	8b 45 f4             	mov    -0xc(%ebp),%eax
   124ac:	8b 40 04             	mov    0x4(%eax),%eax
   124af:	89 45 f4             	mov    %eax,-0xc(%ebp)
   124b2:	83 7d f4 00          	cmpl   $0x0,-0xc(%ebp)
   124b6:	75 bc                	jne    12474 <_dump_freelist+0x25>
   124b8:	90                   	nop
   124b9:	c9                   	leave  
   124ba:	c3                   	ret    

000124bb <_kmalloc>:
   124bb:	55                   	push   %ebp
   124bc:	89 e5                	mov    %esp,%ebp
   124be:	83 ec 10             	sub    $0x10,%esp
   124c1:	83 45 08 03          	addl   $0x3,0x8(%ebp)
   124c5:	c1 6d 08 02          	shrl   $0x2,0x8(%ebp)
   124c9:	c7 45 f8 b4 b6 01 00 	movl   $0x1b6b4,-0x8(%ebp)
   124d0:	a1 b4 b6 01 00       	mov    0x1b6b4,%eax
   124d5:	89 45 fc             	mov    %eax,-0x4(%ebp)
   124d8:	eb 11                	jmp    124eb <_kmalloc+0x30>
   124da:	8b 45 fc             	mov    -0x4(%ebp),%eax
   124dd:	83 c0 04             	add    $0x4,%eax
   124e0:	89 45 f8             	mov    %eax,-0x8(%ebp)
   124e3:	8b 45 f8             	mov    -0x8(%ebp),%eax
   124e6:	8b 00                	mov    (%eax),%eax
   124e8:	89 45 fc             	mov    %eax,-0x4(%ebp)
   124eb:	83 7d fc 00          	cmpl   $0x0,-0x4(%ebp)
   124ef:	74 0a                	je     124fb <_kmalloc+0x40>
   124f1:	8b 45 fc             	mov    -0x4(%ebp),%eax
   124f4:	8b 00                	mov    (%eax),%eax
   124f6:	3b 45 08             	cmp    0x8(%ebp),%eax
   124f9:	72 df                	jb     124da <_kmalloc+0x1f>
   124fb:	83 7d fc 00          	cmpl   $0x0,-0x4(%ebp)
   124ff:	75 07                	jne    12508 <_kmalloc+0x4d>
   12501:	b8 00 00 00 00       	mov    $0x0,%eax
   12506:	eb 62                	jmp    1256a <_kmalloc+0xaf>
   12508:	8b 45 fc             	mov    -0x4(%ebp),%eax
   1250b:	8b 00                	mov    (%eax),%eax
   1250d:	8b 55 08             	mov    0x8(%ebp),%edx
   12510:	83 c2 02             	add    $0x2,%edx
   12513:	39 d0                	cmp    %edx,%eax
   12515:	76 42                	jbe    12559 <_kmalloc+0x9e>
   12517:	8b 45 08             	mov    0x8(%ebp),%eax
   1251a:	83 c0 01             	add    $0x1,%eax
   1251d:	89 45 f4             	mov    %eax,-0xc(%ebp)
   12520:	8b 45 fc             	mov    -0x4(%ebp),%eax
   12523:	8d 48 04             	lea    0x4(%eax),%ecx
   12526:	8b 45 fc             	mov    -0x4(%ebp),%eax
   12529:	8b 10                	mov    (%eax),%edx
   1252b:	8b 45 f4             	mov    -0xc(%ebp),%eax
   1252e:	29 c2                	sub    %eax,%edx
   12530:	89 d0                	mov    %edx,%eax
   12532:	c1 e0 02             	shl    $0x2,%eax
   12535:	01 c8                	add    %ecx,%eax
   12537:	89 45 f0             	mov    %eax,-0x10(%ebp)
   1253a:	8b 45 f0             	mov    -0x10(%ebp),%eax
   1253d:	8b 55 08             	mov    0x8(%ebp),%edx
   12540:	89 10                	mov    %edx,(%eax)
   12542:	8b 45 fc             	mov    -0x4(%ebp),%eax
   12545:	8b 10                	mov    (%eax),%edx
   12547:	8b 45 f4             	mov    -0xc(%ebp),%eax
   1254a:	29 c2                	sub    %eax,%edx
   1254c:	8b 45 fc             	mov    -0x4(%ebp),%eax
   1254f:	89 10                	mov    %edx,(%eax)
   12551:	8b 45 f0             	mov    -0x10(%ebp),%eax
   12554:	89 45 fc             	mov    %eax,-0x4(%ebp)
   12557:	eb 0b                	jmp    12564 <_kmalloc+0xa9>
   12559:	8b 45 fc             	mov    -0x4(%ebp),%eax
   1255c:	8b 50 04             	mov    0x4(%eax),%edx
   1255f:	8b 45 f8             	mov    -0x8(%ebp),%eax
   12562:	89 10                	mov    %edx,(%eax)
   12564:	8b 45 fc             	mov    -0x4(%ebp),%eax
   12567:	83 c0 04             	add    $0x4,%eax
   1256a:	c9                   	leave  
   1256b:	c3                   	ret    

0001256c <_kfree>:
   1256c:	55                   	push   %ebp
   1256d:	89 e5                	mov    %esp,%ebp
   1256f:	83 ec 10             	sub    $0x10,%esp
   12572:	83 7d 08 00          	cmpl   $0x0,0x8(%ebp)
   12576:	0f 84 d6 00 00 00    	je     12652 <_kfree+0xe6>
   1257c:	8b 45 08             	mov    0x8(%ebp),%eax
   1257f:	83 e8 04             	sub    $0x4,%eax
   12582:	89 45 fc             	mov    %eax,-0x4(%ebp)
   12585:	a1 b4 b6 01 00       	mov    0x1b6b4,%eax
   1258a:	89 45 f8             	mov    %eax,-0x8(%ebp)
   1258d:	c7 45 f4 00 00 00 00 	movl   $0x0,-0xc(%ebp)
   12594:	eb 0f                	jmp    125a5 <_kfree+0x39>
   12596:	8b 45 f8             	mov    -0x8(%ebp),%eax
   12599:	89 45 f4             	mov    %eax,-0xc(%ebp)
   1259c:	8b 45 f8             	mov    -0x8(%ebp),%eax
   1259f:	8b 40 04             	mov    0x4(%eax),%eax
   125a2:	89 45 f8             	mov    %eax,-0x8(%ebp)
   125a5:	83 7d f8 00          	cmpl   $0x0,-0x8(%ebp)
   125a9:	74 08                	je     125b3 <_kfree+0x47>
   125ab:	8b 45 f8             	mov    -0x8(%ebp),%eax
   125ae:	3b 45 fc             	cmp    -0x4(%ebp),%eax
   125b1:	72 e3                	jb     12596 <_kfree+0x2a>
   125b3:	83 7d f4 00          	cmpl   $0x0,-0xc(%ebp)
   125b7:	74 48                	je     12601 <_kfree+0x95>
   125b9:	8b 45 f4             	mov    -0xc(%ebp),%eax
   125bc:	8d 50 04             	lea    0x4(%eax),%edx
   125bf:	8b 45 f4             	mov    -0xc(%ebp),%eax
   125c2:	8b 00                	mov    (%eax),%eax
   125c4:	c1 e0 02             	shl    $0x2,%eax
   125c7:	01 d0                	add    %edx,%eax
   125c9:	3b 45 fc             	cmp    -0x4(%ebp),%eax
   125cc:	75 1c                	jne    125ea <_kfree+0x7e>
   125ce:	8b 45 f4             	mov    -0xc(%ebp),%eax
   125d1:	8b 10                	mov    (%eax),%edx
   125d3:	8b 45 fc             	mov    -0x4(%ebp),%eax
   125d6:	8b 00                	mov    (%eax),%eax
   125d8:	01 d0                	add    %edx,%eax
   125da:	8d 50 01             	lea    0x1(%eax),%edx
   125dd:	8b 45 f4             	mov    -0xc(%ebp),%eax
   125e0:	89 10                	mov    %edx,(%eax)
   125e2:	8b 45 f4             	mov    -0xc(%ebp),%eax
   125e5:	89 45 fc             	mov    %eax,-0x4(%ebp)
   125e8:	eb 2b                	jmp    12615 <_kfree+0xa9>
   125ea:	8b 45 f4             	mov    -0xc(%ebp),%eax
   125ed:	8b 50 04             	mov    0x4(%eax),%edx
   125f0:	8b 45 fc             	mov    -0x4(%ebp),%eax
   125f3:	89 50 04             	mov    %edx,0x4(%eax)
   125f6:	8b 45 f4             	mov    -0xc(%ebp),%eax
   125f9:	8b 55 fc             	mov    -0x4(%ebp),%edx
   125fc:	89 50 04             	mov    %edx,0x4(%eax)
   125ff:	eb 14                	jmp    12615 <_kfree+0xa9>
   12601:	8b 15 b4 b6 01 00    	mov    0x1b6b4,%edx
   12607:	8b 45 fc             	mov    -0x4(%ebp),%eax
   1260a:	89 50 04             	mov    %edx,0x4(%eax)
   1260d:	8b 45 fc             	mov    -0x4(%ebp),%eax
   12610:	a3 b4 b6 01 00       	mov    %eax,0x1b6b4
   12615:	83 7d f8 00          	cmpl   $0x0,-0x8(%ebp)
   12619:	74 38                	je     12653 <_kfree+0xe7>
   1261b:	8b 45 fc             	mov    -0x4(%ebp),%eax
   1261e:	8d 50 04             	lea    0x4(%eax),%edx
   12621:	8b 45 fc             	mov    -0x4(%ebp),%eax
   12624:	8b 00                	mov    (%eax),%eax
   12626:	c1 e0 02             	shl    $0x2,%eax
   12629:	01 d0                	add    %edx,%eax
   1262b:	3b 45 f8             	cmp    -0x8(%ebp),%eax
   1262e:	75 23                	jne    12653 <_kfree+0xe7>
   12630:	8b 45 f8             	mov    -0x8(%ebp),%eax
   12633:	8b 50 04             	mov    0x4(%eax),%edx
   12636:	8b 45 fc             	mov    -0x4(%ebp),%eax
   12639:	89 50 04             	mov    %edx,0x4(%eax)
   1263c:	8b 45 fc             	mov    -0x4(%ebp),%eax
   1263f:	8b 10                	mov    (%eax),%edx
   12641:	8b 45 f8             	mov    -0x8(%ebp),%eax
   12644:	8b 00                	mov    (%eax),%eax
   12646:	01 d0                	add    %edx,%eax
   12648:	8d 50 01             	lea    0x1(%eax),%edx
   1264b:	8b 45 fc             	mov    -0x4(%ebp),%eax
   1264e:	89 10                	mov    %edx,(%eax)
   12650:	eb 01                	jmp    12653 <_kfree+0xe7>
   12652:	90                   	nop
   12653:	c9                   	leave  
   12654:	c3                   	ret    

00012655 <_km_init>:
   12655:	55                   	push   %ebp
   12656:	89 e5                	mov    %esp,%ebp
   12658:	83 ec 38             	sub    $0x38,%esp
   1265b:	c7 05 b4 b6 01 00 00 	movl   $0x0,0x1b6b4
   12662:	00 00 00 
   12665:	b9 88 dc 01 00       	mov    $0x1dc88,%ecx
   1266a:	89 4d e8             	mov    %ecx,-0x18(%ebp)
   1266d:	c7 45 ec 00 00 00 00 	movl   $0x0,-0x14(%ebp)
   12674:	8b 4d e8             	mov    -0x18(%ebp),%ecx
   12677:	0f b7 c1             	movzwl %cx,%eax
   1267a:	8b 4d ec             	mov    -0x14(%ebp),%ecx
   1267d:	83 e1 00             	and    $0x0,%ecx
   12680:	89 ca                	mov    %ecx,%edx
   12682:	09 d0                	or     %edx,%eax
   12684:	85 c0                	test   %eax,%eax
   12686:	74 16                	je     1269e <_km_init+0x49>
   12688:	81 65 e8 00 00 ff ff 	andl   $0xffff0000,-0x18(%ebp)
   1268f:	83 65 ec 00          	andl   $0x0,-0x14(%ebp)
   12693:	81 45 e8 00 00 01 00 	addl   $0x10000,-0x18(%ebp)
   1269a:	83 55 ec 00          	adcl   $0x0,-0x14(%ebp)
   1269e:	b8 00 2d 00 00       	mov    $0x2d00,%eax
   126a3:	8b 00                	mov    (%eax),%eax
   126a5:	89 45 d8             	mov    %eax,-0x28(%ebp)
   126a8:	83 7d d8 00          	cmpl   $0x0,-0x28(%ebp)
   126ac:	0f 8e e3 00 00 00    	jle    12795 <_km_init+0x140>
   126b2:	c7 45 f4 04 2d 00 00 	movl   $0x2d04,-0xc(%ebp)
   126b9:	c7 45 e4 00 00 00 00 	movl   $0x0,-0x1c(%ebp)
   126c0:	e9 b2 00 00 00       	jmp    12777 <_km_init+0x122>
   126c5:	8b 45 f4             	mov    -0xc(%ebp),%eax
   126c8:	8b 40 14             	mov    0x14(%eax),%eax
   126cb:	83 e0 01             	and    $0x1,%eax
   126ce:	85 c0                	test   %eax,%eax
   126d0:	0f 84 8f 00 00 00    	je     12765 <_km_init+0x110>
   126d6:	8b 45 f4             	mov    -0xc(%ebp),%eax
   126d9:	8b 40 10             	mov    0x10(%eax),%eax
   126dc:	83 f8 01             	cmp    $0x1,%eax
   126df:	0f 85 83 00 00 00    	jne    12768 <_km_init+0x113>
   126e5:	8b 45 f4             	mov    -0xc(%ebp),%eax
   126e8:	8b 40 04             	mov    0x4(%eax),%eax
   126eb:	85 c0                	test   %eax,%eax
   126ed:	75 7c                	jne    1276b <_km_init+0x116>
   126ef:	8b 45 f4             	mov    -0xc(%ebp),%eax
   126f2:	8b 40 0c             	mov    0xc(%eax),%eax
   126f5:	85 c0                	test   %eax,%eax
   126f7:	75 72                	jne    1276b <_km_init+0x116>
   126f9:	8b 45 f4             	mov    -0xc(%ebp),%eax
   126fc:	8b 00                	mov    (%eax),%eax
   126fe:	89 45 e0             	mov    %eax,-0x20(%ebp)
   12701:	8b 45 f4             	mov    -0xc(%ebp),%eax
   12704:	8b 40 08             	mov    0x8(%eax),%eax
   12707:	89 45 dc             	mov    %eax,-0x24(%ebp)
   1270a:	8b 45 e0             	mov    -0x20(%ebp),%eax
   1270d:	ba 00 00 00 00       	mov    $0x0,%edx
   12712:	3b 55 ec             	cmp    -0x14(%ebp),%edx
   12715:	77 3b                	ja     12752 <_km_init+0xfd>
   12717:	3b 55 ec             	cmp    -0x14(%ebp),%edx
   1271a:	72 05                	jb     12721 <_km_init+0xcc>
   1271c:	3b 45 e8             	cmp    -0x18(%ebp),%eax
   1271f:	73 31                	jae    12752 <_km_init+0xfd>
   12721:	8b 55 e0             	mov    -0x20(%ebp),%edx
   12724:	8b 45 dc             	mov    -0x24(%ebp),%eax
   12727:	01 d0                	add    %edx,%eax
   12729:	ba 00 00 00 00       	mov    $0x0,%edx
   1272e:	3b 55 ec             	cmp    -0x14(%ebp),%edx
   12731:	77 0a                	ja     1273d <_km_init+0xe8>
   12733:	3b 55 ec             	cmp    -0x14(%ebp),%edx
   12736:	72 36                	jb     1276e <_km_init+0x119>
   12738:	3b 45 e8             	cmp    -0x18(%ebp),%eax
   1273b:	72 31                	jb     1276e <_km_init+0x119>
   1273d:	8b 45 e8             	mov    -0x18(%ebp),%eax
   12740:	2b 45 e0             	sub    -0x20(%ebp),%eax
   12743:	89 45 d4             	mov    %eax,-0x2c(%ebp)
   12746:	8b 45 d4             	mov    -0x2c(%ebp),%eax
   12749:	29 45 dc             	sub    %eax,-0x24(%ebp)
   1274c:	8b 45 e8             	mov    -0x18(%ebp),%eax
   1274f:	89 45 e0             	mov    %eax,-0x20(%ebp)
   12752:	83 ec 08             	sub    $0x8,%esp
   12755:	ff 75 dc             	pushl  -0x24(%ebp)
   12758:	ff 75 e0             	pushl  -0x20(%ebp)
   1275b:	e8 3b fc ff ff       	call   1239b <_add_block>
   12760:	83 c4 10             	add    $0x10,%esp
   12763:	eb 0a                	jmp    1276f <_km_init+0x11a>
   12765:	90                   	nop
   12766:	eb 07                	jmp    1276f <_km_init+0x11a>
   12768:	90                   	nop
   12769:	eb 04                	jmp    1276f <_km_init+0x11a>
   1276b:	90                   	nop
   1276c:	eb 01                	jmp    1276f <_km_init+0x11a>
   1276e:	90                   	nop
   1276f:	83 45 e4 01          	addl   $0x1,-0x1c(%ebp)
   12773:	83 45 f4 18          	addl   $0x18,-0xc(%ebp)
   12777:	8b 45 e4             	mov    -0x1c(%ebp),%eax
   1277a:	3b 45 d8             	cmp    -0x28(%ebp),%eax
   1277d:	0f 8c 42 ff ff ff    	jl     126c5 <_km_init+0x70>
   12783:	83 ec 0c             	sub    $0xc,%esp
   12786:	68 c5 7c 01 00       	push   $0x17cc5
   1278b:	e8 83 e8 ff ff       	call   11013 <c_puts>
   12790:	83 c4 10             	add    $0x10,%esp
   12793:	eb 01                	jmp    12796 <_km_init+0x141>
   12795:	90                   	nop
   12796:	c9                   	leave  
   12797:	c3                   	ret    

00012798 <_pcb_init>:
   12798:	55                   	push   %ebp
   12799:	89 e5                	mov    %esp,%ebp
   1279b:	83 ec 18             	sub    $0x18,%esp
   1279e:	83 ec 0c             	sub    $0xc,%esp
   127a1:	68 cc 7c 01 00       	push   $0x17ccc
   127a6:	e8 68 e8 ff ff       	call   11013 <c_puts>
   127ab:	83 c4 10             	add    $0x10,%esp
   127ae:	66 c7 05 c8 cb 01 00 	movw   $0x64,0x1cbc8
   127b5:	64 00 
   127b7:	83 ec 0c             	sub    $0xc,%esp
   127ba:	6a 00                	push   $0x0
   127bc:	e8 30 07 00 00       	call   12ef1 <_q_alloc>
   127c1:	83 c4 10             	add    $0x10,%esp
   127c4:	a3 cc cb 01 00       	mov    %eax,0x1cbcc
   127c9:	a1 cc cb 01 00       	mov    0x1cbcc,%eax
   127ce:	85 c0                	test   %eax,%eax
   127d0:	75 15                	jne    127e7 <_pcb_init+0x4f>
   127d2:	83 ec 08             	sub    $0x8,%esp
   127d5:	68 d1 7c 01 00       	push   $0x17cd1
   127da:	68 e7 7c 01 00       	push   $0x17ce7
   127df:	e8 5b fa ff ff       	call   1223f <_kpanic>
   127e4:	83 c4 10             	add    $0x10,%esp
   127e7:	c7 45 f4 00 00 00 00 	movl   $0x0,-0xc(%ebp)
   127ee:	eb 12                	jmp    12802 <_pcb_init+0x6a>
   127f0:	8b 45 f4             	mov    -0xc(%ebp),%eax
   127f3:	c7 04 85 e0 cb 01 00 	movl   $0x0,0x1cbe0(,%eax,4)
   127fa:	00 00 00 00 
   127fe:	83 45 f4 01          	addl   $0x1,-0xc(%ebp)
   12802:	83 7d f4 18          	cmpl   $0x18,-0xc(%ebp)
   12806:	7e e8                	jle    127f0 <_pcb_init+0x58>
   12808:	c7 05 c0 cb 01 00 00 	movl   $0x0,0x1cbc0
   1280f:	00 00 00 
   12812:	90                   	nop
   12813:	c9                   	leave  
   12814:	c3                   	ret    

00012815 <_pcb_prune>:
   12815:	55                   	push   %ebp
   12816:	89 e5                	mov    %esp,%ebp
   12818:	83 ec 18             	sub    $0x18,%esp
   1281b:	c7 45 f4 00 00 00 00 	movl   $0x0,-0xc(%ebp)
   12822:	eb 26                	jmp    1284a <_pcb_prune+0x35>
   12824:	83 45 f4 01          	addl   $0x1,-0xc(%ebp)
   12828:	a1 cc cb 01 00       	mov    0x1cbcc,%eax
   1282d:	83 ec 0c             	sub    $0xc,%esp
   12830:	50                   	push   %eax
   12831:	e8 4f 09 00 00       	call   13185 <_q_remove>
   12836:	83 c4 10             	add    $0x10,%esp
   12839:	89 45 f0             	mov    %eax,-0x10(%ebp)
   1283c:	83 ec 0c             	sub    $0xc,%esp
   1283f:	ff 75 f0             	pushl  -0x10(%ebp)
   12842:	e8 25 fd ff ff       	call   1256c <_kfree>
   12847:	83 c4 10             	add    $0x10,%esp
   1284a:	a1 cc cb 01 00       	mov    0x1cbcc,%eax
   1284f:	83 ec 0c             	sub    $0xc,%esp
   12852:	50                   	push   %eax
   12853:	e8 a2 07 00 00       	call   12ffa <_q_size>
   12858:	83 c4 10             	add    $0x10,%esp
   1285b:	85 c0                	test   %eax,%eax
   1285d:	75 c5                	jne    12824 <_pcb_prune+0xf>
   1285f:	8b 45 f4             	mov    -0xc(%ebp),%eax
   12862:	c1 e0 02             	shl    $0x2,%eax
   12865:	8d 14 c5 00 00 00 00 	lea    0x0(,%eax,8),%edx
   1286c:	29 c2                	sub    %eax,%edx
   1286e:	89 d0                	mov    %edx,%eax
   12870:	c9                   	leave  
   12871:	c3                   	ret    

00012872 <_pcb_alloc>:
   12872:	55                   	push   %ebp
   12873:	89 e5                	mov    %esp,%ebp
   12875:	83 ec 18             	sub    $0x18,%esp
   12878:	a1 cc cb 01 00       	mov    0x1cbcc,%eax
   1287d:	83 ec 0c             	sub    $0xc,%esp
   12880:	50                   	push   %eax
   12881:	e8 74 07 00 00       	call   12ffa <_q_size>
   12886:	83 c4 10             	add    $0x10,%esp
   12889:	85 c0                	test   %eax,%eax
   1288b:	74 17                	je     128a4 <_pcb_alloc+0x32>
   1288d:	a1 cc cb 01 00       	mov    0x1cbcc,%eax
   12892:	83 ec 0c             	sub    $0xc,%esp
   12895:	50                   	push   %eax
   12896:	e8 ea 08 00 00       	call   13185 <_q_remove>
   1289b:	83 c4 10             	add    $0x10,%esp
   1289e:	89 45 f4             	mov    %eax,-0xc(%ebp)
   128a1:	eb 11                	jmp    128b4 <_pcb_alloc+0x42>
   128a3:	90                   	nop
   128a4:	83 ec 0c             	sub    $0xc,%esp
   128a7:	6a 1c                	push   $0x1c
   128a9:	e8 0d fc ff ff       	call   124bb <_kmalloc>
   128ae:	83 c4 10             	add    $0x10,%esp
   128b1:	89 45 f4             	mov    %eax,-0xc(%ebp)
   128b4:	83 7d f4 00          	cmpl   $0x0,-0xc(%ebp)
   128b8:	75 20                	jne    128da <_pcb_alloc+0x68>
   128ba:	e8 61 2a 00 00       	call   15320 <_prune>
   128bf:	85 c0                	test   %eax,%eax
   128c1:	75 e0                	jne    128a3 <_pcb_alloc+0x31>
   128c3:	83 ec 08             	sub    $0x8,%esp
   128c6:	68 f1 7c 01 00       	push   $0x17cf1
   128cb:	68 fe 7c 01 00       	push   $0x17cfe
   128d0:	e8 6a f9 ff ff       	call   1223f <_kpanic>
   128d5:	83 c4 10             	add    $0x10,%esp
   128d8:	eb c9                	jmp    128a3 <_pcb_alloc+0x31>
   128da:	83 ec 08             	sub    $0x8,%esp
   128dd:	6a 1c                	push   $0x1c
   128df:	ff 75 f4             	pushl  -0xc(%ebp)
   128e2:	e8 84 f8 ff ff       	call   1216b <_kmemclr>
   128e7:	83 c4 10             	add    $0x10,%esp
   128ea:	8b 45 f4             	mov    -0xc(%ebp),%eax
   128ed:	c6 40 16 01          	movb   $0x1,0x16(%eax)
   128f1:	8b 45 f4             	mov    -0xc(%ebp),%eax
   128f4:	c9                   	leave  
   128f5:	c3                   	ret    

000128f6 <_pcb_free>:
   128f6:	55                   	push   %ebp
   128f7:	89 e5                	mov    %esp,%ebp
   128f9:	83 ec 08             	sub    $0x8,%esp
   128fc:	83 7d 08 00          	cmpl   $0x0,0x8(%ebp)
   12900:	75 15                	jne    12917 <_pcb_free+0x21>
   12902:	83 ec 08             	sub    $0x8,%esp
   12905:	68 09 7d 01 00       	push   $0x17d09
   1290a:	68 17 7d 01 00       	push   $0x17d17
   1290f:	e8 2b f9 ff ff       	call   1223f <_kpanic>
   12914:	83 c4 10             	add    $0x10,%esp
   12917:	8b 45 08             	mov    0x8(%ebp),%eax
   1291a:	c6 40 16 00          	movb   $0x0,0x16(%eax)
   1291e:	8b 45 08             	mov    0x8(%ebp),%eax
   12921:	66 c7 40 10 ff ff    	movw   $0xffff,0x10(%eax)
   12927:	8b 45 08             	mov    0x8(%ebp),%eax
   1292a:	66 c7 40 12 ff ff    	movw   $0xffff,0x12(%eax)
   12930:	a1 cc cb 01 00       	mov    0x1cbcc,%eax
   12935:	83 ec 08             	sub    $0x8,%esp
   12938:	ff 75 08             	pushl  0x8(%ebp)
   1293b:	50                   	push   %eax
   1293c:	e8 c4 06 00 00       	call   13005 <_q_insert>
   12941:	83 c4 10             	add    $0x10,%esp
   12944:	90                   	nop
   12945:	c9                   	leave  
   12946:	c3                   	ret    

00012947 <_pcb_find>:
   12947:	55                   	push   %ebp
   12948:	89 e5                	mov    %esp,%ebp
   1294a:	83 ec 14             	sub    $0x14,%esp
   1294d:	8b 45 08             	mov    0x8(%ebp),%eax
   12950:	66 89 45 ec          	mov    %ax,-0x14(%ebp)
   12954:	c7 45 fc 00 00 00 00 	movl   $0x0,-0x4(%ebp)
   1295b:	eb 32                	jmp    1298f <_pcb_find+0x48>
   1295d:	8b 45 fc             	mov    -0x4(%ebp),%eax
   12960:	8b 04 85 e0 cb 01 00 	mov    0x1cbe0(,%eax,4),%eax
   12967:	85 c0                	test   %eax,%eax
   12969:	74 20                	je     1298b <_pcb_find+0x44>
   1296b:	8b 45 fc             	mov    -0x4(%ebp),%eax
   1296e:	8b 04 85 e0 cb 01 00 	mov    0x1cbe0(,%eax,4),%eax
   12975:	0f b7 40 10          	movzwl 0x10(%eax),%eax
   12979:	66 3b 45 ec          	cmp    -0x14(%ebp),%ax
   1297d:	75 0c                	jne    1298b <_pcb_find+0x44>
   1297f:	8b 45 fc             	mov    -0x4(%ebp),%eax
   12982:	8b 04 85 e0 cb 01 00 	mov    0x1cbe0(,%eax,4),%eax
   12989:	eb 0f                	jmp    1299a <_pcb_find+0x53>
   1298b:	83 45 fc 01          	addl   $0x1,-0x4(%ebp)
   1298f:	83 7d fc 18          	cmpl   $0x18,-0x4(%ebp)
   12993:	7e c8                	jle    1295d <_pcb_find+0x16>
   12995:	b8 00 00 00 00       	mov    $0x0,%eax
   1299a:	c9                   	leave  
   1299b:	c3                   	ret    

0001299c <_pcb_find_parent>:
   1299c:	55                   	push   %ebp
   1299d:	89 e5                	mov    %esp,%ebp
   1299f:	83 ec 14             	sub    $0x14,%esp
   129a2:	8b 45 08             	mov    0x8(%ebp),%eax
   129a5:	66 89 45 ec          	mov    %ax,-0x14(%ebp)
   129a9:	c7 45 fc 00 00 00 00 	movl   $0x0,-0x4(%ebp)
   129b0:	eb 32                	jmp    129e4 <_pcb_find_parent+0x48>
   129b2:	8b 45 fc             	mov    -0x4(%ebp),%eax
   129b5:	8b 04 85 e0 cb 01 00 	mov    0x1cbe0(,%eax,4),%eax
   129bc:	85 c0                	test   %eax,%eax
   129be:	74 20                	je     129e0 <_pcb_find_parent+0x44>
   129c0:	8b 45 fc             	mov    -0x4(%ebp),%eax
   129c3:	8b 04 85 e0 cb 01 00 	mov    0x1cbe0(,%eax,4),%eax
   129ca:	0f b7 40 12          	movzwl 0x12(%eax),%eax
   129ce:	66 3b 45 ec          	cmp    -0x14(%ebp),%ax
   129d2:	75 0c                	jne    129e0 <_pcb_find_parent+0x44>
   129d4:	8b 45 fc             	mov    -0x4(%ebp),%eax
   129d7:	8b 04 85 e0 cb 01 00 	mov    0x1cbe0(,%eax,4),%eax
   129de:	eb 0f                	jmp    129ef <_pcb_find_parent+0x53>
   129e0:	83 45 fc 01          	addl   $0x1,-0x4(%ebp)
   129e4:	83 7d fc 18          	cmpl   $0x18,-0x4(%ebp)
   129e8:	7e c8                	jle    129b2 <_pcb_find_parent+0x16>
   129ea:	b8 00 00 00 00       	mov    $0x0,%eax
   129ef:	c9                   	leave  
   129f0:	c3                   	ret    

000129f1 <_pcb_cleanup>:
   129f1:	55                   	push   %ebp
   129f2:	89 e5                	mov    %esp,%ebp
   129f4:	83 ec 18             	sub    $0x18,%esp
   129f7:	8b 45 08             	mov    0x8(%ebp),%eax
   129fa:	8b 40 04             	mov    0x4(%eax),%eax
   129fd:	83 ec 0c             	sub    $0xc,%esp
   12a00:	50                   	push   %eax
   12a01:	e8 32 16 00 00       	call   14038 <_stk_free>
   12a06:	83 c4 10             	add    $0x10,%esp
   12a09:	c7 45 f4 00 00 00 00 	movl   $0x0,-0xc(%ebp)
   12a10:	eb 23                	jmp    12a35 <_pcb_cleanup+0x44>
   12a12:	8b 45 f4             	mov    -0xc(%ebp),%eax
   12a15:	8b 04 85 e0 cb 01 00 	mov    0x1cbe0(,%eax,4),%eax
   12a1c:	3b 45 08             	cmp    0x8(%ebp),%eax
   12a1f:	75 10                	jne    12a31 <_pcb_cleanup+0x40>
   12a21:	8b 45 f4             	mov    -0xc(%ebp),%eax
   12a24:	c7 04 85 e0 cb 01 00 	movl   $0x0,0x1cbe0(,%eax,4)
   12a2b:	00 00 00 00 
   12a2f:	eb 0a                	jmp    12a3b <_pcb_cleanup+0x4a>
   12a31:	83 45 f4 01          	addl   $0x1,-0xc(%ebp)
   12a35:	83 7d f4 18          	cmpl   $0x18,-0xc(%ebp)
   12a39:	7e d7                	jle    12a12 <_pcb_cleanup+0x21>
   12a3b:	a1 c0 cb 01 00       	mov    0x1cbc0,%eax
   12a40:	83 e8 01             	sub    $0x1,%eax
   12a43:	a3 c0 cb 01 00       	mov    %eax,0x1cbc0
   12a48:	83 ec 0c             	sub    $0xc,%esp
   12a4b:	ff 75 08             	pushl  0x8(%ebp)
   12a4e:	e8 a3 fe ff ff       	call   128f6 <_pcb_free>
   12a53:	83 c4 10             	add    $0x10,%esp
   12a56:	90                   	nop
   12a57:	c9                   	leave  
   12a58:	c3                   	ret    

00012a59 <_pcb_dump>:
   12a59:	55                   	push   %ebp
   12a5a:	89 e5                	mov    %esp,%ebp
   12a5c:	83 ec 08             	sub    $0x8,%esp
   12a5f:	8b 45 0c             	mov    0xc(%ebp),%eax
   12a62:	83 ec 04             	sub    $0x4,%esp
   12a65:	50                   	push   %eax
   12a66:	ff 75 08             	pushl  0x8(%ebp)
   12a69:	68 21 7d 01 00       	push   $0x17d21
   12a6e:	e8 e2 ed ff ff       	call   11855 <c_printf>
   12a73:	83 c4 10             	add    $0x10,%esp
   12a76:	83 7d 0c 00          	cmpl   $0x0,0xc(%ebp)
   12a7a:	75 15                	jne    12a91 <_pcb_dump+0x38>
   12a7c:	83 ec 0c             	sub    $0xc,%esp
   12a7f:	68 2d 7d 01 00       	push   $0x17d2d
   12a84:	e8 8a e5 ff ff       	call   11013 <c_puts>
   12a89:	83 c4 10             	add    $0x10,%esp
   12a8c:	e9 d7 00 00 00       	jmp    12b68 <_pcb_dump+0x10f>
   12a91:	8b 45 0c             	mov    0xc(%ebp),%eax
   12a94:	0f b7 40 12          	movzwl 0x12(%eax),%eax
   12a98:	0f b7 d0             	movzwl %ax,%edx
   12a9b:	8b 45 0c             	mov    0xc(%ebp),%eax
   12a9e:	0f b7 40 10          	movzwl 0x10(%eax),%eax
   12aa2:	0f b7 c0             	movzwl %ax,%eax
   12aa5:	83 ec 04             	sub    $0x4,%esp
   12aa8:	52                   	push   %edx
   12aa9:	50                   	push   %eax
   12aaa:	68 37 7d 01 00       	push   $0x17d37
   12aaf:	e8 a1 ed ff ff       	call   11855 <c_printf>
   12ab4:	83 c4 10             	add    $0x10,%esp
   12ab7:	8b 45 0c             	mov    0xc(%ebp),%eax
   12aba:	0f b6 40 16          	movzbl 0x16(%eax),%eax
   12abe:	3c 08                	cmp    $0x8,%al
   12ac0:	77 20                	ja     12ae2 <_pcb_dump+0x89>
   12ac2:	8b 45 0c             	mov    0xc(%ebp),%eax
   12ac5:	0f b6 40 16          	movzbl 0x16(%eax),%eax
   12ac9:	0f b6 c0             	movzbl %al,%eax
   12acc:	c1 e0 02             	shl    $0x2,%eax
   12acf:	05 a0 b5 01 00       	add    $0x1b5a0,%eax
   12ad4:	83 ec 0c             	sub    $0xc,%esp
   12ad7:	50                   	push   %eax
   12ad8:	e8 36 e5 ff ff       	call   11013 <c_puts>
   12add:	83 c4 10             	add    $0x10,%esp
   12ae0:	eb 1b                	jmp    12afd <_pcb_dump+0xa4>
   12ae2:	8b 45 0c             	mov    0xc(%ebp),%eax
   12ae5:	0f b6 40 16          	movzbl 0x16(%eax),%eax
   12ae9:	0f b6 c0             	movzbl %al,%eax
   12aec:	83 ec 08             	sub    $0x8,%esp
   12aef:	50                   	push   %eax
   12af0:	68 4a 7d 01 00       	push   $0x17d4a
   12af5:	e8 5b ed ff ff       	call   11855 <c_printf>
   12afa:	83 c4 10             	add    $0x10,%esp
   12afd:	8b 45 0c             	mov    0xc(%ebp),%eax
   12b00:	8b 50 0c             	mov    0xc(%eax),%edx
   12b03:	8b 45 0c             	mov    0xc(%ebp),%eax
   12b06:	8b 40 08             	mov    0x8(%eax),%eax
   12b09:	83 ec 04             	sub    $0x4,%esp
   12b0c:	52                   	push   %edx
   12b0d:	50                   	push   %eax
   12b0e:	68 51 7d 01 00       	push   $0x17d51
   12b13:	e8 3d ed ff ff       	call   11855 <c_printf>
   12b18:	83 c4 10             	add    $0x10,%esp
   12b1b:	8b 45 0c             	mov    0xc(%ebp),%eax
   12b1e:	0f b6 40 18          	movzbl 0x18(%eax),%eax
   12b22:	0f b6 c8             	movzbl %al,%ecx
   12b25:	8b 45 0c             	mov    0xc(%ebp),%eax
   12b28:	0f b6 40 17          	movzbl 0x17(%eax),%eax
   12b2c:	0f b6 d0             	movzbl %al,%edx
   12b2f:	8b 45 0c             	mov    0xc(%ebp),%eax
   12b32:	0f b7 40 14          	movzwl 0x14(%eax),%eax
   12b36:	0f b7 c0             	movzwl %ax,%eax
   12b39:	51                   	push   %ecx
   12b3a:	52                   	push   %edx
   12b3b:	50                   	push   %eax
   12b3c:	68 63 7d 01 00       	push   $0x17d63
   12b41:	e8 0f ed ff ff       	call   11855 <c_printf>
   12b46:	83 c4 10             	add    $0x10,%esp
   12b49:	8b 45 0c             	mov    0xc(%ebp),%eax
   12b4c:	8b 40 04             	mov    0x4(%eax),%eax
   12b4f:	89 c2                	mov    %eax,%edx
   12b51:	8b 45 0c             	mov    0xc(%ebp),%eax
   12b54:	8b 00                	mov    (%eax),%eax
   12b56:	83 ec 04             	sub    $0x4,%esp
   12b59:	52                   	push   %edx
   12b5a:	50                   	push   %eax
   12b5b:	68 7d 7d 01 00       	push   $0x17d7d
   12b60:	e8 f0 ec ff ff       	call   11855 <c_printf>
   12b65:	83 c4 10             	add    $0x10,%esp
   12b68:	c9                   	leave  
   12b69:	c3                   	ret    

00012b6a <_context_dump>:
   12b6a:	55                   	push   %ebp
   12b6b:	89 e5                	mov    %esp,%ebp
   12b6d:	53                   	push   %ebx
   12b6e:	83 ec 04             	sub    $0x4,%esp
   12b71:	8b 45 0c             	mov    0xc(%ebp),%eax
   12b74:	83 ec 04             	sub    $0x4,%esp
   12b77:	50                   	push   %eax
   12b78:	ff 75 08             	pushl  0x8(%ebp)
   12b7b:	68 21 7d 01 00       	push   $0x17d21
   12b80:	e8 d0 ec ff ff       	call   11855 <c_printf>
   12b85:	83 c4 10             	add    $0x10,%esp
   12b88:	83 7d 0c 00          	cmpl   $0x0,0xc(%ebp)
   12b8c:	75 15                	jne    12ba3 <_context_dump+0x39>
   12b8e:	83 ec 0c             	sub    $0xc,%esp
   12b91:	68 2d 7d 01 00       	push   $0x17d2d
   12b96:	e8 78 e4 ff ff       	call   11013 <c_puts>
   12b9b:	83 c4 10             	add    $0x10,%esp
   12b9e:	e9 cd 00 00 00       	jmp    12c70 <_context_dump+0x106>
   12ba3:	8b 45 0c             	mov    0xc(%ebp),%eax
   12ba6:	8b 58 0c             	mov    0xc(%eax),%ebx
   12ba9:	8b 45 0c             	mov    0xc(%ebp),%eax
   12bac:	8b 48 08             	mov    0x8(%eax),%ecx
   12baf:	8b 45 0c             	mov    0xc(%ebp),%eax
   12bb2:	8b 50 04             	mov    0x4(%eax),%edx
   12bb5:	8b 45 0c             	mov    0xc(%ebp),%eax
   12bb8:	8b 00                	mov    (%eax),%eax
   12bba:	83 ec 0c             	sub    $0xc,%esp
   12bbd:	53                   	push   %ebx
   12bbe:	51                   	push   %ecx
   12bbf:	52                   	push   %edx
   12bc0:	50                   	push   %eax
   12bc1:	68 98 7d 01 00       	push   $0x17d98
   12bc6:	e8 8a ec ff ff       	call   11855 <c_printf>
   12bcb:	83 c4 20             	add    $0x20,%esp
   12bce:	8b 45 0c             	mov    0xc(%ebp),%eax
   12bd1:	8b 58 1c             	mov    0x1c(%eax),%ebx
   12bd4:	8b 45 0c             	mov    0xc(%ebp),%eax
   12bd7:	8b 48 18             	mov    0x18(%eax),%ecx
   12bda:	8b 45 0c             	mov    0xc(%ebp),%eax
   12bdd:	8b 50 14             	mov    0x14(%eax),%edx
   12be0:	8b 45 0c             	mov    0xc(%ebp),%eax
   12be3:	8b 40 10             	mov    0x10(%eax),%eax
   12be6:	83 ec 0c             	sub    $0xc,%esp
   12be9:	53                   	push   %ebx
   12bea:	51                   	push   %ecx
   12beb:	52                   	push   %edx
   12bec:	50                   	push   %eax
   12bed:	68 c4 7d 01 00       	push   $0x17dc4
   12bf2:	e8 5e ec ff ff       	call   11855 <c_printf>
   12bf7:	83 c4 20             	add    $0x20,%esp
   12bfa:	8b 45 0c             	mov    0xc(%ebp),%eax
   12bfd:	8b 58 2c             	mov    0x2c(%eax),%ebx
   12c00:	8b 45 0c             	mov    0xc(%ebp),%eax
   12c03:	8b 48 28             	mov    0x28(%eax),%ecx
   12c06:	8b 45 0c             	mov    0xc(%ebp),%eax
   12c09:	8b 50 24             	mov    0x24(%eax),%edx
   12c0c:	8b 45 0c             	mov    0xc(%ebp),%eax
   12c0f:	8b 40 20             	mov    0x20(%eax),%eax
   12c12:	83 ec 0c             	sub    $0xc,%esp
   12c15:	53                   	push   %ebx
   12c16:	51                   	push   %ecx
   12c17:	52                   	push   %edx
   12c18:	50                   	push   %eax
   12c19:	68 f0 7d 01 00       	push   $0x17df0
   12c1e:	e8 32 ec ff ff       	call   11855 <c_printf>
   12c23:	83 c4 20             	add    $0x20,%esp
   12c26:	8b 45 0c             	mov    0xc(%ebp),%eax
   12c29:	8b 58 3c             	mov    0x3c(%eax),%ebx
   12c2c:	8b 45 0c             	mov    0xc(%ebp),%eax
   12c2f:	8b 48 38             	mov    0x38(%eax),%ecx
   12c32:	8b 45 0c             	mov    0xc(%ebp),%eax
   12c35:	8b 50 34             	mov    0x34(%eax),%edx
   12c38:	8b 45 0c             	mov    0xc(%ebp),%eax
   12c3b:	8b 40 30             	mov    0x30(%eax),%eax
   12c3e:	83 ec 0c             	sub    $0xc,%esp
   12c41:	53                   	push   %ebx
   12c42:	51                   	push   %ecx
   12c43:	52                   	push   %edx
   12c44:	50                   	push   %eax
   12c45:	68 1c 7e 01 00       	push   $0x17e1c
   12c4a:	e8 06 ec ff ff       	call   11855 <c_printf>
   12c4f:	83 c4 20             	add    $0x20,%esp
   12c52:	8b 45 0c             	mov    0xc(%ebp),%eax
   12c55:	8b 50 44             	mov    0x44(%eax),%edx
   12c58:	8b 45 0c             	mov    0xc(%ebp),%eax
   12c5b:	8b 40 40             	mov    0x40(%eax),%eax
   12c5e:	83 ec 04             	sub    $0x4,%esp
   12c61:	52                   	push   %edx
   12c62:	50                   	push   %eax
   12c63:	68 45 7e 01 00       	push   $0x17e45
   12c68:	e8 e8 eb ff ff       	call   11855 <c_printf>
   12c6d:	83 c4 10             	add    $0x10,%esp
   12c70:	8b 5d fc             	mov    -0x4(%ebp),%ebx
   12c73:	c9                   	leave  
   12c74:	c3                   	ret    

00012c75 <_active_dump>:
   12c75:	55                   	push   %ebp
   12c76:	89 e5                	mov    %esp,%ebp
   12c78:	83 ec 18             	sub    $0x18,%esp
   12c7b:	83 7d 08 00          	cmpl   $0x0,0x8(%ebp)
   12c7f:	74 13                	je     12c94 <_active_dump+0x1f>
   12c81:	83 ec 08             	sub    $0x8,%esp
   12c84:	ff 75 08             	pushl  0x8(%ebp)
   12c87:	68 5c 7e 01 00       	push   $0x17e5c
   12c8c:	e8 c4 eb ff ff       	call   11855 <c_printf>
   12c91:	83 c4 10             	add    $0x10,%esp
   12c94:	c7 45 f4 00 00 00 00 	movl   $0x0,-0xc(%ebp)
   12c9b:	c7 45 f0 00 00 00 00 	movl   $0x0,-0x10(%ebp)
   12ca2:	c7 45 ec 00 00 00 00 	movl   $0x0,-0x14(%ebp)
   12ca9:	e9 41 01 00 00       	jmp    12def <_active_dump+0x17a>
   12cae:	8b 45 ec             	mov    -0x14(%ebp),%eax
   12cb1:	8b 04 85 e0 cb 01 00 	mov    0x1cbe0(,%eax,4),%eax
   12cb8:	85 c0                	test   %eax,%eax
   12cba:	0f 84 27 01 00 00    	je     12de7 <_active_dump+0x172>
   12cc0:	83 7d 0c 00          	cmpl   $0x0,0xc(%ebp)
   12cc4:	75 13                	jne    12cd9 <_active_dump+0x64>
   12cc6:	83 7d f4 00          	cmpl   $0x0,-0xc(%ebp)
   12cca:	74 0d                	je     12cd9 <_active_dump+0x64>
   12ccc:	83 ec 0c             	sub    $0xc,%esp
   12ccf:	6a 2c                	push   $0x2c
   12cd1:	e8 fd e1 ff ff       	call   10ed3 <c_putchar>
   12cd6:	83 c4 10             	add    $0x10,%esp
   12cd9:	8b 45 ec             	mov    -0x14(%ebp),%eax
   12cdc:	8b 04 85 e0 cb 01 00 	mov    0x1cbe0(,%eax,4),%eax
   12ce3:	0f b7 40 12          	movzwl 0x12(%eax),%eax
   12ce7:	0f b7 d0             	movzwl %ax,%edx
   12cea:	8b 45 ec             	mov    -0x14(%ebp),%eax
   12ced:	8b 04 85 e0 cb 01 00 	mov    0x1cbe0(,%eax,4),%eax
   12cf4:	0f b7 40 10          	movzwl 0x10(%eax),%eax
   12cf8:	0f b7 c0             	movzwl %ax,%eax
   12cfb:	52                   	push   %edx
   12cfc:	50                   	push   %eax
   12cfd:	ff 75 ec             	pushl  -0x14(%ebp)
   12d00:	68 61 7e 01 00       	push   $0x17e61
   12d05:	e8 4b eb ff ff       	call   11855 <c_printf>
   12d0a:	83 c4 10             	add    $0x10,%esp
   12d0d:	8b 45 ec             	mov    -0x14(%ebp),%eax
   12d10:	8b 04 85 e0 cb 01 00 	mov    0x1cbe0(,%eax,4),%eax
   12d17:	0f b6 40 16          	movzbl 0x16(%eax),%eax
   12d1b:	3c 08                	cmp    $0x8,%al
   12d1d:	77 2c                	ja     12d4b <_active_dump+0xd6>
   12d1f:	8b 45 ec             	mov    -0x14(%ebp),%eax
   12d22:	8b 04 85 e0 cb 01 00 	mov    0x1cbe0(,%eax,4),%eax
   12d29:	0f b6 40 16          	movzbl 0x16(%eax),%eax
   12d2d:	0f b6 c0             	movzbl %al,%eax
   12d30:	c1 e0 02             	shl    $0x2,%eax
   12d33:	05 a0 b5 01 00       	add    $0x1b5a0,%eax
   12d38:	83 ec 08             	sub    $0x8,%esp
   12d3b:	50                   	push   %eax
   12d3c:	68 6d 7e 01 00       	push   $0x17e6d
   12d41:	e8 0f eb ff ff       	call   11855 <c_printf>
   12d46:	83 c4 10             	add    $0x10,%esp
   12d49:	eb 22                	jmp    12d6d <_active_dump+0xf8>
   12d4b:	8b 45 ec             	mov    -0x14(%ebp),%eax
   12d4e:	8b 04 85 e0 cb 01 00 	mov    0x1cbe0(,%eax,4),%eax
   12d55:	0f b6 40 16          	movzbl 0x16(%eax),%eax
   12d59:	0f b6 c0             	movzbl %al,%eax
   12d5c:	83 ec 08             	sub    $0x8,%esp
   12d5f:	50                   	push   %eax
   12d60:	68 71 7e 01 00       	push   $0x17e71
   12d65:	e8 eb ea ff ff       	call   11855 <c_printf>
   12d6a:	83 c4 10             	add    $0x10,%esp
   12d6d:	8b 45 ec             	mov    -0x14(%ebp),%eax
   12d70:	8b 04 85 e0 cb 01 00 	mov    0x1cbe0(,%eax,4),%eax
   12d77:	0f b6 40 17          	movzbl 0x17(%eax),%eax
   12d7b:	0f b6 c0             	movzbl %al,%eax
   12d7e:	8b 55 ec             	mov    -0x14(%ebp),%edx
   12d81:	8b 14 95 e0 cb 01 00 	mov    0x1cbe0(,%edx,4),%edx
   12d88:	0f b6 52 17          	movzbl 0x17(%edx),%edx
   12d8c:	80 fa 04             	cmp    $0x4,%dl
   12d8f:	77 07                	ja     12d98 <_active_dump+0x123>
   12d91:	ba 78 7e 01 00       	mov    $0x17e78,%edx
   12d96:	eb 05                	jmp    12d9d <_active_dump+0x128>
   12d98:	ba 7f 7e 01 00       	mov    $0x17e7f,%edx
   12d9d:	83 ec 08             	sub    $0x8,%esp
   12da0:	50                   	push   %eax
   12da1:	52                   	push   %edx
   12da2:	e8 ae ea ff ff       	call   11855 <c_printf>
   12da7:	83 c4 10             	add    $0x10,%esp
   12daa:	83 7d 0c 00          	cmpl   $0x0,0xc(%ebp)
   12dae:	74 31                	je     12de1 <_active_dump+0x16c>
   12db0:	8b 45 ec             	mov    -0x14(%ebp),%eax
   12db3:	8b 04 85 e0 cb 01 00 	mov    0x1cbe0(,%eax,4),%eax
   12dba:	8b 40 04             	mov    0x4(%eax),%eax
   12dbd:	83 e8 04             	sub    $0x4,%eax
   12dc0:	8b 00                	mov    (%eax),%eax
   12dc2:	8b 55 ec             	mov    -0x14(%ebp),%edx
   12dc5:	8b 14 95 e0 cb 01 00 	mov    0x1cbe0(,%edx,4),%edx
   12dcc:	8b 52 04             	mov    0x4(%edx),%edx
   12dcf:	83 ec 04             	sub    $0x4,%esp
   12dd2:	50                   	push   %eax
   12dd3:	52                   	push   %edx
   12dd4:	68 89 7e 01 00       	push   $0x17e89
   12dd9:	e8 77 ea ff ff       	call   11855 <c_printf>
   12dde:	83 c4 10             	add    $0x10,%esp
   12de1:	83 45 f4 01          	addl   $0x1,-0xc(%ebp)
   12de5:	eb 04                	jmp    12deb <_active_dump+0x176>
   12de7:	83 45 f0 01          	addl   $0x1,-0x10(%ebp)
   12deb:	83 45 ec 01          	addl   $0x1,-0x14(%ebp)
   12def:	83 7d ec 18          	cmpl   $0x18,-0x14(%ebp)
   12df3:	0f 8e b5 fe ff ff    	jle    12cae <_active_dump+0x39>
   12df9:	83 7d 0c 00          	cmpl   $0x0,0xc(%ebp)
   12dfd:	75 0d                	jne    12e0c <_active_dump+0x197>
   12dff:	83 ec 0c             	sub    $0xc,%esp
   12e02:	6a 0a                	push   $0xa
   12e04:	e8 ca e0 ff ff       	call   10ed3 <c_putchar>
   12e09:	83 c4 10             	add    $0x10,%esp
   12e0c:	8b 55 f4             	mov    -0xc(%ebp),%edx
   12e0f:	8b 45 f0             	mov    -0x10(%ebp),%eax
   12e12:	01 d0                	add    %edx,%eax
   12e14:	83 f8 19             	cmp    $0x19,%eax
   12e17:	74 21                	je     12e3a <_active_dump+0x1c5>
   12e19:	8b 55 f4             	mov    -0xc(%ebp),%edx
   12e1c:	8b 45 f0             	mov    -0x10(%ebp),%eax
   12e1f:	01 d0                	add    %edx,%eax
   12e21:	83 ec 0c             	sub    $0xc,%esp
   12e24:	50                   	push   %eax
   12e25:	ff 75 f0             	pushl  -0x10(%ebp)
   12e28:	ff 75 f4             	pushl  -0xc(%ebp)
   12e2b:	6a 19                	push   $0x19
   12e2d:	68 9c 7e 01 00       	push   $0x17e9c
   12e32:	e8 1e ea ff ff       	call   11855 <c_printf>
   12e37:	83 c4 20             	add    $0x20,%esp
   12e3a:	90                   	nop
   12e3b:	c9                   	leave  
   12e3c:	c3                   	ret    

00012e3d <_qnode_alloc>:
   12e3d:	55                   	push   %ebp
   12e3e:	89 e5                	mov    %esp,%ebp
   12e40:	83 ec 18             	sub    $0x18,%esp
   12e43:	a1 b8 b6 01 00       	mov    0x1b6b8,%eax
   12e48:	85 c0                	test   %eax,%eax
   12e4a:	74 16                	je     12e62 <_qnode_alloc+0x25>
   12e4c:	a1 b8 b6 01 00       	mov    0x1b6b8,%eax
   12e51:	89 45 f4             	mov    %eax,-0xc(%ebp)
   12e54:	8b 45 f4             	mov    -0xc(%ebp),%eax
   12e57:	8b 40 04             	mov    0x4(%eax),%eax
   12e5a:	a3 b8 b6 01 00       	mov    %eax,0x1b6b8
   12e5f:	eb 11                	jmp    12e72 <_qnode_alloc+0x35>
   12e61:	90                   	nop
   12e62:	83 ec 0c             	sub    $0xc,%esp
   12e65:	6a 08                	push   $0x8
   12e67:	e8 4f f6 ff ff       	call   124bb <_kmalloc>
   12e6c:	83 c4 10             	add    $0x10,%esp
   12e6f:	89 45 f4             	mov    %eax,-0xc(%ebp)
   12e72:	83 7d f4 00          	cmpl   $0x0,-0xc(%ebp)
   12e76:	75 20                	jne    12e98 <_qnode_alloc+0x5b>
   12e78:	e8 a3 24 00 00       	call   15320 <_prune>
   12e7d:	85 c0                	test   %eax,%eax
   12e7f:	75 e0                	jne    12e61 <_qnode_alloc+0x24>
   12e81:	83 ec 08             	sub    $0x8,%esp
   12e84:	68 c7 7e 01 00       	push   $0x17ec7
   12e89:	68 d4 7e 01 00       	push   $0x17ed4
   12e8e:	e8 ac f3 ff ff       	call   1223f <_kpanic>
   12e93:	83 c4 10             	add    $0x10,%esp
   12e96:	eb c9                	jmp    12e61 <_qnode_alloc+0x24>
   12e98:	8b 45 f4             	mov    -0xc(%ebp),%eax
   12e9b:	c7 00 00 00 00 00    	movl   $0x0,(%eax)
   12ea1:	8b 45 f4             	mov    -0xc(%ebp),%eax
   12ea4:	c7 40 04 00 00 00 00 	movl   $0x0,0x4(%eax)
   12eab:	8b 45 f4             	mov    -0xc(%ebp),%eax
   12eae:	c9                   	leave  
   12eaf:	c3                   	ret    

00012eb0 <_qnode_free>:
   12eb0:	55                   	push   %ebp
   12eb1:	89 e5                	mov    %esp,%ebp
   12eb3:	83 ec 08             	sub    $0x8,%esp
   12eb6:	83 7d 08 00          	cmpl   $0x0,0x8(%ebp)
   12eba:	75 15                	jne    12ed1 <_qnode_free+0x21>
   12ebc:	83 ec 08             	sub    $0x8,%esp
   12ebf:	68 e1 7e 01 00       	push   $0x17ee1
   12ec4:	68 ef 7e 01 00       	push   $0x17eef
   12ec9:	e8 71 f3 ff ff       	call   1223f <_kpanic>
   12ece:	83 c4 10             	add    $0x10,%esp
   12ed1:	8b 45 08             	mov    0x8(%ebp),%eax
   12ed4:	c7 00 00 00 00 00    	movl   $0x0,(%eax)
   12eda:	8b 15 b8 b6 01 00    	mov    0x1b6b8,%edx
   12ee0:	8b 45 08             	mov    0x8(%ebp),%eax
   12ee3:	89 50 04             	mov    %edx,0x4(%eax)
   12ee6:	8b 45 08             	mov    0x8(%ebp),%eax
   12ee9:	a3 b8 b6 01 00       	mov    %eax,0x1b6b8
   12eee:	90                   	nop
   12eef:	c9                   	leave  
   12ef0:	c3                   	ret    

00012ef1 <_q_alloc>:
   12ef1:	55                   	push   %ebp
   12ef2:	89 e5                	mov    %esp,%ebp
   12ef4:	83 ec 18             	sub    $0x18,%esp
   12ef7:	83 ec 0c             	sub    $0xc,%esp
   12efa:	6a 10                	push   $0x10
   12efc:	e8 ba f5 ff ff       	call   124bb <_kmalloc>
   12f01:	83 c4 10             	add    $0x10,%esp
   12f04:	89 45 f4             	mov    %eax,-0xc(%ebp)
   12f07:	83 7d f4 00          	cmpl   $0x0,-0xc(%ebp)
   12f0b:	74 26                	je     12f33 <_q_alloc+0x42>
   12f0d:	8b 45 f4             	mov    -0xc(%ebp),%eax
   12f10:	c7 00 00 00 00 00    	movl   $0x0,(%eax)
   12f16:	8b 45 f4             	mov    -0xc(%ebp),%eax
   12f19:	c7 40 04 00 00 00 00 	movl   $0x0,0x4(%eax)
   12f20:	8b 45 f4             	mov    -0xc(%ebp),%eax
   12f23:	c7 40 08 00 00 00 00 	movl   $0x0,0x8(%eax)
   12f2a:	8b 45 f4             	mov    -0xc(%ebp),%eax
   12f2d:	8b 55 08             	mov    0x8(%ebp),%edx
   12f30:	89 50 0c             	mov    %edx,0xc(%eax)
   12f33:	8b 45 f4             	mov    -0xc(%ebp),%eax
   12f36:	c9                   	leave  
   12f37:	c3                   	ret    

00012f38 <_q_free>:
   12f38:	55                   	push   %ebp
   12f39:	89 e5                	mov    %esp,%ebp
   12f3b:	83 ec 08             	sub    $0x8,%esp
   12f3e:	83 7d 08 00          	cmpl   $0x0,0x8(%ebp)
   12f42:	75 15                	jne    12f59 <_q_free+0x21>
   12f44:	83 ec 08             	sub    $0x8,%esp
   12f47:	68 e1 7e 01 00       	push   $0x17ee1
   12f4c:	68 fb 7e 01 00       	push   $0x17efb
   12f51:	e8 e9 f2 ff ff       	call   1223f <_kpanic>
   12f56:	83 c4 10             	add    $0x10,%esp
   12f59:	83 ec 0c             	sub    $0xc,%esp
   12f5c:	ff 75 08             	pushl  0x8(%ebp)
   12f5f:	e8 96 00 00 00       	call   12ffa <_q_size>
   12f64:	83 c4 10             	add    $0x10,%esp
   12f67:	85 c0                	test   %eax,%eax
   12f69:	74 0e                	je     12f79 <_q_free+0x41>
   12f6b:	83 ec 0c             	sub    $0xc,%esp
   12f6e:	ff 75 08             	pushl  0x8(%ebp)
   12f71:	e8 14 00 00 00       	call   12f8a <_q_empty>
   12f76:	83 c4 10             	add    $0x10,%esp
   12f79:	83 ec 0c             	sub    $0xc,%esp
   12f7c:	ff 75 08             	pushl  0x8(%ebp)
   12f7f:	e8 e8 f5 ff ff       	call   1256c <_kfree>
   12f84:	83 c4 10             	add    $0x10,%esp
   12f87:	90                   	nop
   12f88:	c9                   	leave  
   12f89:	c3                   	ret    

00012f8a <_q_empty>:
   12f8a:	55                   	push   %ebp
   12f8b:	89 e5                	mov    %esp,%ebp
   12f8d:	83 ec 18             	sub    $0x18,%esp
   12f90:	83 7d 08 00          	cmpl   $0x0,0x8(%ebp)
   12f94:	75 15                	jne    12fab <_q_empty+0x21>
   12f96:	83 ec 08             	sub    $0x8,%esp
   12f99:	68 e1 7e 01 00       	push   $0x17ee1
   12f9e:	68 fb 7e 01 00       	push   $0x17efb
   12fa3:	e8 97 f2 ff ff       	call   1223f <_kpanic>
   12fa8:	83 c4 10             	add    $0x10,%esp
   12fab:	8b 45 08             	mov    0x8(%ebp),%eax
   12fae:	8b 00                	mov    (%eax),%eax
   12fb0:	89 45 f4             	mov    %eax,-0xc(%ebp)
   12fb3:	eb 1d                	jmp    12fd2 <_q_empty+0x48>
   12fb5:	8b 45 f4             	mov    -0xc(%ebp),%eax
   12fb8:	89 45 f0             	mov    %eax,-0x10(%ebp)
   12fbb:	8b 45 f0             	mov    -0x10(%ebp),%eax
   12fbe:	8b 40 04             	mov    0x4(%eax),%eax
   12fc1:	89 45 f4             	mov    %eax,-0xc(%ebp)
   12fc4:	83 ec 0c             	sub    $0xc,%esp
   12fc7:	ff 75 f0             	pushl  -0x10(%ebp)
   12fca:	e8 e1 fe ff ff       	call   12eb0 <_qnode_free>
   12fcf:	83 c4 10             	add    $0x10,%esp
   12fd2:	83 7d f4 00          	cmpl   $0x0,-0xc(%ebp)
   12fd6:	75 dd                	jne    12fb5 <_q_empty+0x2b>
   12fd8:	8b 45 08             	mov    0x8(%ebp),%eax
   12fdb:	c7 40 04 00 00 00 00 	movl   $0x0,0x4(%eax)
   12fe2:	8b 45 08             	mov    0x8(%ebp),%eax
   12fe5:	8b 50 04             	mov    0x4(%eax),%edx
   12fe8:	8b 45 08             	mov    0x8(%ebp),%eax
   12feb:	89 10                	mov    %edx,(%eax)
   12fed:	8b 45 08             	mov    0x8(%ebp),%eax
   12ff0:	c7 40 08 00 00 00 00 	movl   $0x0,0x8(%eax)
   12ff7:	90                   	nop
   12ff8:	c9                   	leave  
   12ff9:	c3                   	ret    

00012ffa <_q_size>:
   12ffa:	55                   	push   %ebp
   12ffb:	89 e5                	mov    %esp,%ebp
   12ffd:	8b 45 08             	mov    0x8(%ebp),%eax
   13000:	8b 40 08             	mov    0x8(%eax),%eax
   13003:	5d                   	pop    %ebp
   13004:	c3                   	ret    

00013005 <_q_insert>:
   13005:	55                   	push   %ebp
   13006:	89 e5                	mov    %esp,%ebp
   13008:	83 ec 18             	sub    $0x18,%esp
   1300b:	83 7d 08 00          	cmpl   $0x0,0x8(%ebp)
   1300f:	75 15                	jne    13026 <_q_insert+0x21>
   13011:	83 ec 08             	sub    $0x8,%esp
   13014:	68 03 7f 01 00       	push   $0x17f03
   13019:	68 18 7f 01 00       	push   $0x17f18
   1301e:	e8 1c f2 ff ff       	call   1223f <_kpanic>
   13023:	83 c4 10             	add    $0x10,%esp
   13026:	e8 12 fe ff ff       	call   12e3d <_qnode_alloc>
   1302b:	89 45 ec             	mov    %eax,-0x14(%ebp)
   1302e:	8b 45 ec             	mov    -0x14(%ebp),%eax
   13031:	8b 55 0c             	mov    0xc(%ebp),%edx
   13034:	89 10                	mov    %edx,(%eax)
   13036:	83 ec 0c             	sub    $0xc,%esp
   13039:	ff 75 08             	pushl  0x8(%ebp)
   1303c:	e8 b9 ff ff ff       	call   12ffa <_q_size>
   13041:	83 c4 10             	add    $0x10,%esp
   13044:	85 c0                	test   %eax,%eax
   13046:	75 23                	jne    1306b <_q_insert+0x66>
   13048:	8b 45 08             	mov    0x8(%ebp),%eax
   1304b:	8b 55 ec             	mov    -0x14(%ebp),%edx
   1304e:	89 50 04             	mov    %edx,0x4(%eax)
   13051:	8b 45 08             	mov    0x8(%ebp),%eax
   13054:	8b 50 04             	mov    0x4(%eax),%edx
   13057:	8b 45 08             	mov    0x8(%ebp),%eax
   1305a:	89 10                	mov    %edx,(%eax)
   1305c:	8b 45 08             	mov    0x8(%ebp),%eax
   1305f:	c7 40 08 01 00 00 00 	movl   $0x1,0x8(%eax)
   13066:	e9 d5 00 00 00       	jmp    13140 <_q_insert+0x13b>
   1306b:	8b 45 08             	mov    0x8(%ebp),%eax
   1306e:	8b 40 0c             	mov    0xc(%eax),%eax
   13071:	85 c0                	test   %eax,%eax
   13073:	75 29                	jne    1309e <_q_insert+0x99>
   13075:	8b 45 08             	mov    0x8(%ebp),%eax
   13078:	8b 40 04             	mov    0x4(%eax),%eax
   1307b:	8b 55 ec             	mov    -0x14(%ebp),%edx
   1307e:	89 50 04             	mov    %edx,0x4(%eax)
   13081:	8b 45 08             	mov    0x8(%ebp),%eax
   13084:	8b 55 ec             	mov    -0x14(%ebp),%edx
   13087:	89 50 04             	mov    %edx,0x4(%eax)
   1308a:	8b 45 08             	mov    0x8(%ebp),%eax
   1308d:	8b 40 08             	mov    0x8(%eax),%eax
   13090:	8d 50 01             	lea    0x1(%eax),%edx
   13093:	8b 45 08             	mov    0x8(%ebp),%eax
   13096:	89 50 08             	mov    %edx,0x8(%eax)
   13099:	e9 a2 00 00 00       	jmp    13140 <_q_insert+0x13b>
   1309e:	8b 45 08             	mov    0x8(%ebp),%eax
   130a1:	8b 40 0c             	mov    0xc(%eax),%eax
   130a4:	89 45 e8             	mov    %eax,-0x18(%ebp)
   130a7:	c7 45 f4 00 00 00 00 	movl   $0x0,-0xc(%ebp)
   130ae:	8b 45 08             	mov    0x8(%ebp),%eax
   130b1:	8b 00                	mov    (%eax),%eax
   130b3:	89 45 f0             	mov    %eax,-0x10(%ebp)
   130b6:	eb 0f                	jmp    130c7 <_q_insert+0xc2>
   130b8:	8b 45 f0             	mov    -0x10(%ebp),%eax
   130bb:	89 45 f4             	mov    %eax,-0xc(%ebp)
   130be:	8b 45 f0             	mov    -0x10(%ebp),%eax
   130c1:	8b 40 04             	mov    0x4(%eax),%eax
   130c4:	89 45 f0             	mov    %eax,-0x10(%ebp)
   130c7:	83 7d f0 00          	cmpl   $0x0,-0x10(%ebp)
   130cb:	74 18                	je     130e5 <_q_insert+0xe0>
   130cd:	8b 45 f0             	mov    -0x10(%ebp),%eax
   130d0:	8b 00                	mov    (%eax),%eax
   130d2:	83 ec 08             	sub    $0x8,%esp
   130d5:	ff 75 0c             	pushl  0xc(%ebp)
   130d8:	50                   	push   %eax
   130d9:	8b 45 e8             	mov    -0x18(%ebp),%eax
   130dc:	ff d0                	call   *%eax
   130de:	83 c4 10             	add    $0x10,%esp
   130e1:	85 c0                	test   %eax,%eax
   130e3:	7e d3                	jle    130b8 <_q_insert+0xb3>
   130e5:	8b 45 ec             	mov    -0x14(%ebp),%eax
   130e8:	8b 55 f0             	mov    -0x10(%ebp),%edx
   130eb:	89 50 04             	mov    %edx,0x4(%eax)
   130ee:	83 7d f4 00          	cmpl   $0x0,-0xc(%ebp)
   130f2:	75 25                	jne    13119 <_q_insert+0x114>
   130f4:	83 7d f0 00          	cmpl   $0x0,-0x10(%ebp)
   130f8:	75 15                	jne    1310f <_q_insert+0x10a>
   130fa:	83 ec 08             	sub    $0x8,%esp
   130fd:	68 22 7f 01 00       	push   $0x17f22
   13102:	68 18 7f 01 00       	push   $0x17f18
   13107:	e8 33 f1 ff ff       	call   1223f <_kpanic>
   1310c:	83 c4 10             	add    $0x10,%esp
   1310f:	8b 45 08             	mov    0x8(%ebp),%eax
   13112:	8b 55 ec             	mov    -0x14(%ebp),%edx
   13115:	89 10                	mov    %edx,(%eax)
   13117:	eb 18                	jmp    13131 <_q_insert+0x12c>
   13119:	8b 45 f4             	mov    -0xc(%ebp),%eax
   1311c:	8b 55 ec             	mov    -0x14(%ebp),%edx
   1311f:	89 50 04             	mov    %edx,0x4(%eax)
   13122:	83 7d f0 00          	cmpl   $0x0,-0x10(%ebp)
   13126:	75 09                	jne    13131 <_q_insert+0x12c>
   13128:	8b 45 08             	mov    0x8(%ebp),%eax
   1312b:	8b 55 ec             	mov    -0x14(%ebp),%edx
   1312e:	89 50 04             	mov    %edx,0x4(%eax)
   13131:	8b 45 08             	mov    0x8(%ebp),%eax
   13134:	8b 40 08             	mov    0x8(%eax),%eax
   13137:	8d 50 01             	lea    0x1(%eax),%edx
   1313a:	8b 45 08             	mov    0x8(%ebp),%eax
   1313d:	89 50 08             	mov    %edx,0x8(%eax)
   13140:	c9                   	leave  
   13141:	c3                   	ret    

00013142 <_q_peek>:
   13142:	55                   	push   %ebp
   13143:	89 e5                	mov    %esp,%ebp
   13145:	83 ec 08             	sub    $0x8,%esp
   13148:	83 7d 08 00          	cmpl   $0x0,0x8(%ebp)
   1314c:	75 15                	jne    13163 <_q_peek+0x21>
   1314e:	83 ec 08             	sub    $0x8,%esp
   13151:	68 e1 7e 01 00       	push   $0x17ee1
   13156:	68 3b 7f 01 00       	push   $0x17f3b
   1315b:	e8 df f0 ff ff       	call   1223f <_kpanic>
   13160:	83 c4 10             	add    $0x10,%esp
   13163:	83 ec 0c             	sub    $0xc,%esp
   13166:	ff 75 08             	pushl  0x8(%ebp)
   13169:	e8 8c fe ff ff       	call   12ffa <_q_size>
   1316e:	83 c4 10             	add    $0x10,%esp
   13171:	85 c0                	test   %eax,%eax
   13173:	75 07                	jne    1317c <_q_peek+0x3a>
   13175:	b8 00 00 00 00       	mov    $0x0,%eax
   1317a:	eb 07                	jmp    13183 <_q_peek+0x41>
   1317c:	8b 45 08             	mov    0x8(%ebp),%eax
   1317f:	8b 00                	mov    (%eax),%eax
   13181:	8b 00                	mov    (%eax),%eax
   13183:	c9                   	leave  
   13184:	c3                   	ret    

00013185 <_q_remove>:
   13185:	55                   	push   %ebp
   13186:	89 e5                	mov    %esp,%ebp
   13188:	83 ec 18             	sub    $0x18,%esp
   1318b:	83 7d 08 00          	cmpl   $0x0,0x8(%ebp)
   1318f:	75 15                	jne    131a6 <_q_remove+0x21>
   13191:	83 ec 08             	sub    $0x8,%esp
   13194:	68 e1 7e 01 00       	push   $0x17ee1
   13199:	68 43 7f 01 00       	push   $0x17f43
   1319e:	e8 9c f0 ff ff       	call   1223f <_kpanic>
   131a3:	83 c4 10             	add    $0x10,%esp
   131a6:	83 ec 0c             	sub    $0xc,%esp
   131a9:	ff 75 08             	pushl  0x8(%ebp)
   131ac:	e8 49 fe ff ff       	call   12ffa <_q_size>
   131b1:	83 c4 10             	add    $0x10,%esp
   131b4:	85 c0                	test   %eax,%eax
   131b6:	75 07                	jne    131bf <_q_remove+0x3a>
   131b8:	b8 00 00 00 00       	mov    $0x0,%eax
   131bd:	eb 58                	jmp    13217 <_q_remove+0x92>
   131bf:	83 ec 0c             	sub    $0xc,%esp
   131c2:	ff 75 08             	pushl  0x8(%ebp)
   131c5:	e8 78 ff ff ff       	call   13142 <_q_peek>
   131ca:	83 c4 10             	add    $0x10,%esp
   131cd:	89 45 f4             	mov    %eax,-0xc(%ebp)
   131d0:	8b 45 08             	mov    0x8(%ebp),%eax
   131d3:	8b 00                	mov    (%eax),%eax
   131d5:	89 45 f0             	mov    %eax,-0x10(%ebp)
   131d8:	8b 45 f0             	mov    -0x10(%ebp),%eax
   131db:	8b 50 04             	mov    0x4(%eax),%edx
   131de:	8b 45 08             	mov    0x8(%ebp),%eax
   131e1:	89 10                	mov    %edx,(%eax)
   131e3:	8b 45 08             	mov    0x8(%ebp),%eax
   131e6:	8b 40 08             	mov    0x8(%eax),%eax
   131e9:	8d 50 ff             	lea    -0x1(%eax),%edx
   131ec:	8b 45 08             	mov    0x8(%ebp),%eax
   131ef:	89 50 08             	mov    %edx,0x8(%eax)
   131f2:	8b 45 08             	mov    0x8(%ebp),%eax
   131f5:	8b 40 08             	mov    0x8(%eax),%eax
   131f8:	85 c0                	test   %eax,%eax
   131fa:	75 0a                	jne    13206 <_q_remove+0x81>
   131fc:	8b 45 08             	mov    0x8(%ebp),%eax
   131ff:	c7 40 04 00 00 00 00 	movl   $0x0,0x4(%eax)
   13206:	83 ec 0c             	sub    $0xc,%esp
   13209:	ff 75 f0             	pushl  -0x10(%ebp)
   1320c:	e8 9f fc ff ff       	call   12eb0 <_qnode_free>
   13211:	83 c4 10             	add    $0x10,%esp
   13214:	8b 45 f4             	mov    -0xc(%ebp),%eax
   13217:	c9                   	leave  
   13218:	c3                   	ret    

00013219 <_q_remove_by>:
   13219:	55                   	push   %ebp
   1321a:	89 e5                	mov    %esp,%ebp
   1321c:	83 ec 18             	sub    $0x18,%esp
   1321f:	83 7d 08 00          	cmpl   $0x0,0x8(%ebp)
   13223:	75 15                	jne    1323a <_q_remove_by+0x21>
   13225:	83 ec 08             	sub    $0x8,%esp
   13228:	68 e1 7e 01 00       	push   $0x17ee1
   1322d:	68 4d 7f 01 00       	push   $0x17f4d
   13232:	e8 08 f0 ff ff       	call   1223f <_kpanic>
   13237:	83 c4 10             	add    $0x10,%esp
   1323a:	c7 45 f4 00 00 00 00 	movl   $0x0,-0xc(%ebp)
   13241:	8b 45 08             	mov    0x8(%ebp),%eax
   13244:	8b 00                	mov    (%eax),%eax
   13246:	89 45 f0             	mov    %eax,-0x10(%ebp)
   13249:	e9 83 00 00 00       	jmp    132d1 <_q_remove_by+0xb8>
   1324e:	8b 45 f0             	mov    -0x10(%ebp),%eax
   13251:	8b 00                	mov    (%eax),%eax
   13253:	83 ec 08             	sub    $0x8,%esp
   13256:	50                   	push   %eax
   13257:	ff 75 0c             	pushl  0xc(%ebp)
   1325a:	8b 45 10             	mov    0x10(%ebp),%eax
   1325d:	ff d0                	call   *%eax
   1325f:	83 c4 10             	add    $0x10,%esp
   13262:	85 c0                	test   %eax,%eax
   13264:	74 5c                	je     132c2 <_q_remove_by+0xa9>
   13266:	8b 45 f0             	mov    -0x10(%ebp),%eax
   13269:	8b 00                	mov    (%eax),%eax
   1326b:	89 45 ec             	mov    %eax,-0x14(%ebp)
   1326e:	83 7d f4 00          	cmpl   $0x0,-0xc(%ebp)
   13272:	74 0e                	je     13282 <_q_remove_by+0x69>
   13274:	8b 45 f0             	mov    -0x10(%ebp),%eax
   13277:	8b 50 04             	mov    0x4(%eax),%edx
   1327a:	8b 45 f4             	mov    -0xc(%ebp),%eax
   1327d:	89 50 04             	mov    %edx,0x4(%eax)
   13280:	eb 0b                	jmp    1328d <_q_remove_by+0x74>
   13282:	8b 45 f0             	mov    -0x10(%ebp),%eax
   13285:	8b 50 04             	mov    0x4(%eax),%edx
   13288:	8b 45 08             	mov    0x8(%ebp),%eax
   1328b:	89 10                	mov    %edx,(%eax)
   1328d:	8b 45 f0             	mov    -0x10(%ebp),%eax
   13290:	8b 40 04             	mov    0x4(%eax),%eax
   13293:	85 c0                	test   %eax,%eax
   13295:	75 09                	jne    132a0 <_q_remove_by+0x87>
   13297:	8b 45 08             	mov    0x8(%ebp),%eax
   1329a:	8b 55 f4             	mov    -0xc(%ebp),%edx
   1329d:	89 50 04             	mov    %edx,0x4(%eax)
   132a0:	8b 45 08             	mov    0x8(%ebp),%eax
   132a3:	8b 40 08             	mov    0x8(%eax),%eax
   132a6:	8d 50 ff             	lea    -0x1(%eax),%edx
   132a9:	8b 45 08             	mov    0x8(%ebp),%eax
   132ac:	89 50 08             	mov    %edx,0x8(%eax)
   132af:	83 ec 0c             	sub    $0xc,%esp
   132b2:	ff 75 f0             	pushl  -0x10(%ebp)
   132b5:	e8 f6 fb ff ff       	call   12eb0 <_qnode_free>
   132ba:	83 c4 10             	add    $0x10,%esp
   132bd:	8b 45 ec             	mov    -0x14(%ebp),%eax
   132c0:	eb 1e                	jmp    132e0 <_q_remove_by+0xc7>
   132c2:	8b 45 f0             	mov    -0x10(%ebp),%eax
   132c5:	89 45 f4             	mov    %eax,-0xc(%ebp)
   132c8:	8b 45 f0             	mov    -0x10(%ebp),%eax
   132cb:	8b 40 04             	mov    0x4(%eax),%eax
   132ce:	89 45 f0             	mov    %eax,-0x10(%ebp)
   132d1:	83 7d f0 00          	cmpl   $0x0,-0x10(%ebp)
   132d5:	0f 85 73 ff ff ff    	jne    1324e <_q_remove_by+0x35>
   132db:	b8 00 00 00 00       	mov    $0x0,%eax
   132e0:	c9                   	leave  
   132e1:	c3                   	ret    

000132e2 <_q_init>:
   132e2:	55                   	push   %ebp
   132e3:	89 e5                	mov    %esp,%ebp
   132e5:	83 ec 08             	sub    $0x8,%esp
   132e8:	83 ec 0c             	sub    $0xc,%esp
   132eb:	68 5a 7f 01 00       	push   $0x17f5a
   132f0:	e8 1e dd ff ff       	call   11013 <c_puts>
   132f5:	83 c4 10             	add    $0x10,%esp
   132f8:	c7 05 b8 b6 01 00 00 	movl   $0x0,0x1b6b8
   132ff:	00 00 00 
   13302:	83 ec 0c             	sub    $0xc,%esp
   13305:	6a 00                	push   $0x0
   13307:	e8 e5 fb ff ff       	call   12ef1 <_q_alloc>
   1330c:	83 c4 10             	add    $0x10,%esp
   1330f:	a3 48 cc 01 00       	mov    %eax,0x1cc48
   13314:	a1 48 cc 01 00       	mov    0x1cc48,%eax
   13319:	85 c0                	test   %eax,%eax
   1331b:	75 15                	jne    13332 <_q_init+0x50>
   1331d:	83 ec 08             	sub    $0x8,%esp
   13320:	68 61 7f 01 00       	push   $0x17f61
   13325:	68 78 7f 01 00       	push   $0x17f78
   1332a:	e8 10 ef ff ff       	call   1223f <_kpanic>
   1332f:	83 c4 10             	add    $0x10,%esp
   13332:	83 ec 0c             	sub    $0xc,%esp
   13335:	6a 00                	push   $0x0
   13337:	e8 b5 fb ff ff       	call   12ef1 <_q_alloc>
   1333c:	83 c4 10             	add    $0x10,%esp
   1333f:	a3 44 cc 01 00       	mov    %eax,0x1cc44
   13344:	a1 44 cc 01 00       	mov    0x1cc44,%eax
   13349:	85 c0                	test   %eax,%eax
   1334b:	75 15                	jne    13362 <_q_init+0x80>
   1334d:	83 ec 08             	sub    $0x8,%esp
   13350:	68 80 7f 01 00       	push   $0x17f80
   13355:	68 78 7f 01 00       	push   $0x17f78
   1335a:	e8 e0 ee ff ff       	call   1223f <_kpanic>
   1335f:	83 c4 10             	add    $0x10,%esp
   13362:	83 ec 0c             	sub    $0xc,%esp
   13365:	6a 00                	push   $0x0
   13367:	e8 85 fb ff ff       	call   12ef1 <_q_alloc>
   1336c:	83 c4 10             	add    $0x10,%esp
   1336f:	a3 4c cc 01 00       	mov    %eax,0x1cc4c
   13374:	a1 4c cc 01 00       	mov    0x1cc4c,%eax
   13379:	85 c0                	test   %eax,%eax
   1337b:	75 15                	jne    13392 <_q_init+0xb0>
   1337d:	83 ec 08             	sub    $0x8,%esp
   13380:	68 95 7f 01 00       	push   $0x17f95
   13385:	68 78 7f 01 00       	push   $0x17f78
   1338a:	e8 b0 ee ff ff       	call   1223f <_kpanic>
   1338f:	83 c4 10             	add    $0x10,%esp
   13392:	90                   	nop
   13393:	c9                   	leave  
   13394:	c3                   	ret    

00013395 <_q_prune>:
   13395:	55                   	push   %ebp
   13396:	89 e5                	mov    %esp,%ebp
   13398:	83 ec 18             	sub    $0x18,%esp
   1339b:	c7 45 f4 00 00 00 00 	movl   $0x0,-0xc(%ebp)
   133a2:	eb 25                	jmp    133c9 <_q_prune+0x34>
   133a4:	a1 b8 b6 01 00       	mov    0x1b6b8,%eax
   133a9:	89 45 f0             	mov    %eax,-0x10(%ebp)
   133ac:	8b 45 f0             	mov    -0x10(%ebp),%eax
   133af:	8b 40 04             	mov    0x4(%eax),%eax
   133b2:	a3 b8 b6 01 00       	mov    %eax,0x1b6b8
   133b7:	83 ec 0c             	sub    $0xc,%esp
   133ba:	ff 75 f0             	pushl  -0x10(%ebp)
   133bd:	e8 aa f1 ff ff       	call   1256c <_kfree>
   133c2:	83 c4 10             	add    $0x10,%esp
   133c5:	83 45 f4 01          	addl   $0x1,-0xc(%ebp)
   133c9:	a1 b8 b6 01 00       	mov    0x1b6b8,%eax
   133ce:	85 c0                	test   %eax,%eax
   133d0:	75 d2                	jne    133a4 <_q_prune+0xf>
   133d2:	8b 45 f4             	mov    -0xc(%ebp),%eax
   133d5:	c1 e0 03             	shl    $0x3,%eax
   133d8:	c9                   	leave  
   133d9:	c3                   	ret    

000133da <_q_dump>:
   133da:	55                   	push   %ebp
   133db:	89 e5                	mov    %esp,%ebp
   133dd:	83 ec 18             	sub    $0x18,%esp
   133e0:	83 ec 08             	sub    $0x8,%esp
   133e3:	ff 75 08             	pushl  0x8(%ebp)
   133e6:	68 ab 7f 01 00       	push   $0x17fab
   133eb:	e8 65 e4 ff ff       	call   11855 <c_printf>
   133f0:	83 c4 10             	add    $0x10,%esp
   133f3:	83 7d 0c 00          	cmpl   $0x0,0xc(%ebp)
   133f7:	75 15                	jne    1340e <_q_dump+0x34>
   133f9:	83 ec 0c             	sub    $0xc,%esp
   133fc:	68 b0 7f 01 00       	push   $0x17fb0
   13401:	e8 0d dc ff ff       	call   11013 <c_puts>
   13406:	83 c4 10             	add    $0x10,%esp
   13409:	e9 d6 00 00 00       	jmp    134e4 <_q_dump+0x10a>
   1340e:	8b 45 0c             	mov    0xc(%ebp),%eax
   13411:	8b 40 08             	mov    0x8(%eax),%eax
   13414:	8b 55 0c             	mov    0xc(%ebp),%edx
   13417:	8b 52 04             	mov    0x4(%edx),%edx
   1341a:	89 d1                	mov    %edx,%ecx
   1341c:	8b 55 0c             	mov    0xc(%ebp),%edx
   1341f:	8b 12                	mov    (%edx),%edx
   13421:	50                   	push   %eax
   13422:	51                   	push   %ecx
   13423:	52                   	push   %edx
   13424:	68 b9 7f 01 00       	push   $0x17fb9
   13429:	e8 27 e4 ff ff       	call   11855 <c_printf>
   1342e:	83 c4 10             	add    $0x10,%esp
   13431:	8b 45 0c             	mov    0xc(%ebp),%eax
   13434:	8b 40 0c             	mov    0xc(%eax),%eax
   13437:	85 c0                	test   %eax,%eax
   13439:	74 19                	je     13454 <_q_dump+0x7a>
   1343b:	8b 45 0c             	mov    0xc(%ebp),%eax
   1343e:	8b 40 0c             	mov    0xc(%eax),%eax
   13441:	83 ec 08             	sub    $0x8,%esp
   13444:	50                   	push   %eax
   13445:	68 d6 7f 01 00       	push   $0x17fd6
   1344a:	e8 06 e4 ff ff       	call   11855 <c_printf>
   1344f:	83 c4 10             	add    $0x10,%esp
   13452:	eb 10                	jmp    13464 <_q_dump+0x8a>
   13454:	83 ec 0c             	sub    $0xc,%esp
   13457:	68 e1 7f 01 00       	push   $0x17fe1
   1345c:	e8 b2 db ff ff       	call   11013 <c_puts>
   13461:	83 c4 10             	add    $0x10,%esp
   13464:	8b 45 0c             	mov    0xc(%ebp),%eax
   13467:	8b 40 08             	mov    0x8(%eax),%eax
   1346a:	85 c0                	test   %eax,%eax
   1346c:	74 76                	je     134e4 <_q_dump+0x10a>
   1346e:	83 ec 0c             	sub    $0xc,%esp
   13471:	68 e8 7f 01 00       	push   $0x17fe8
   13476:	e8 98 db ff ff       	call   11013 <c_puts>
   1347b:	83 c4 10             	add    $0x10,%esp
   1347e:	c7 45 f0 00 00 00 00 	movl   $0x0,-0x10(%ebp)
   13485:	8b 45 0c             	mov    0xc(%ebp),%eax
   13488:	8b 00                	mov    (%eax),%eax
   1348a:	89 45 f4             	mov    %eax,-0xc(%ebp)
   1348d:	eb 23                	jmp    134b2 <_q_dump+0xd8>
   1348f:	8b 45 f4             	mov    -0xc(%ebp),%eax
   13492:	8b 00                	mov    (%eax),%eax
   13494:	83 ec 08             	sub    $0x8,%esp
   13497:	50                   	push   %eax
   13498:	68 f0 7f 01 00       	push   $0x17ff0
   1349d:	e8 b3 e3 ff ff       	call   11855 <c_printf>
   134a2:	83 c4 10             	add    $0x10,%esp
   134a5:	83 45 f0 01          	addl   $0x1,-0x10(%ebp)
   134a9:	8b 45 f4             	mov    -0xc(%ebp),%eax
   134ac:	8b 40 04             	mov    0x4(%eax),%eax
   134af:	89 45 f4             	mov    %eax,-0xc(%ebp)
   134b2:	83 7d f0 04          	cmpl   $0x4,-0x10(%ebp)
   134b6:	7f 06                	jg     134be <_q_dump+0xe4>
   134b8:	83 7d f4 00          	cmpl   $0x0,-0xc(%ebp)
   134bc:	75 d1                	jne    1348f <_q_dump+0xb5>
   134be:	83 7d f4 00          	cmpl   $0x0,-0xc(%ebp)
   134c2:	74 10                	je     134d4 <_q_dump+0xfa>
   134c4:	83 ec 0c             	sub    $0xc,%esp
   134c7:	68 f8 7f 01 00       	push   $0x17ff8
   134cc:	e8 42 db ff ff       	call   11013 <c_puts>
   134d1:	83 c4 10             	add    $0x10,%esp
   134d4:	83 ec 0c             	sub    $0xc,%esp
   134d7:	68 fd 7f 01 00       	push   $0x17ffd
   134dc:	e8 32 db ff ff       	call   11013 <c_puts>
   134e1:	83 c4 10             	add    $0x10,%esp
   134e4:	c9                   	leave  
   134e5:	c3                   	ret    

000134e6 <_q_dump_all>:
   134e6:	55                   	push   %ebp
   134e7:	89 e5                	mov    %esp,%ebp
   134e9:	83 ec 28             	sub    $0x28,%esp
   134ec:	83 7d 08 00          	cmpl   $0x0,0x8(%ebp)
   134f0:	74 0e                	je     13500 <_q_dump_all+0x1a>
   134f2:	83 ec 0c             	sub    $0xc,%esp
   134f5:	ff 75 08             	pushl  0x8(%ebp)
   134f8:	e8 16 db ff ff       	call   11013 <c_puts>
   134fd:	83 c4 10             	add    $0x10,%esp
   13500:	83 ec 08             	sub    $0x8,%esp
   13503:	68 ff 7f 01 00       	push   $0x17fff
   13508:	8d 45 e0             	lea    -0x20(%ebp),%eax
   1350b:	50                   	push   %eax
   1350c:	e8 a6 ec ff ff       	call   121b7 <_kstrcpy>
   13511:	83 c4 10             	add    $0x10,%esp
   13514:	c7 45 f0 05 00 00 00 	movl   $0x5,-0x10(%ebp)
   1351b:	c7 45 f4 00 00 00 00 	movl   $0x0,-0xc(%ebp)
   13522:	eb 27                	jmp    1354b <_q_dump_all+0x65>
   13524:	8b 45 f4             	mov    -0xc(%ebp),%eax
   13527:	83 c0 30             	add    $0x30,%eax
   1352a:	88 45 e6             	mov    %al,-0x1a(%ebp)
   1352d:	8b 45 f4             	mov    -0xc(%ebp),%eax
   13530:	8b 04 85 50 cc 01 00 	mov    0x1cc50(,%eax,4),%eax
   13537:	83 ec 08             	sub    $0x8,%esp
   1353a:	50                   	push   %eax
   1353b:	8d 45 e0             	lea    -0x20(%ebp),%eax
   1353e:	50                   	push   %eax
   1353f:	e8 96 fe ff ff       	call   133da <_q_dump>
   13544:	83 c4 10             	add    $0x10,%esp
   13547:	83 45 f4 01          	addl   $0x1,-0xc(%ebp)
   1354b:	8b 45 f4             	mov    -0xc(%ebp),%eax
   1354e:	3b 45 f0             	cmp    -0x10(%ebp),%eax
   13551:	7c d1                	jl     13524 <_q_dump_all+0x3e>
   13553:	a1 48 cc 01 00       	mov    0x1cc48,%eax
   13558:	83 ec 08             	sub    $0x8,%esp
   1355b:	50                   	push   %eax
   1355c:	68 08 80 01 00       	push   $0x18008
   13561:	e8 74 fe ff ff       	call   133da <_q_dump>
   13566:	83 c4 10             	add    $0x10,%esp
   13569:	a1 4c cc 01 00       	mov    0x1cc4c,%eax
   1356e:	83 ec 08             	sub    $0x8,%esp
   13571:	50                   	push   %eax
   13572:	68 11 80 01 00       	push   $0x18011
   13577:	e8 5e fe ff ff       	call   133da <_q_dump>
   1357c:	83 c4 10             	add    $0x10,%esp
   1357f:	a1 44 cc 01 00       	mov    0x1cc44,%eax
   13584:	83 ec 08             	sub    $0x8,%esp
   13587:	50                   	push   %eax
   13588:	68 19 80 01 00       	push   $0x18019
   1358d:	e8 48 fe ff ff       	call   133da <_q_dump>
   13592:	83 c4 10             	add    $0x10,%esp
   13595:	a1 68 cc 01 00       	mov    0x1cc68,%eax
   1359a:	83 ec 08             	sub    $0x8,%esp
   1359d:	50                   	push   %eax
   1359e:	68 20 80 01 00       	push   $0x18020
   135a3:	e8 32 fe ff ff       	call   133da <_q_dump>
   135a8:	83 c4 10             	add    $0x10,%esp
   135ab:	90                   	nop
   135ac:	c9                   	leave  
   135ad:	c3                   	ret    

000135ae <_q_order_wakeup>:
   135ae:	55                   	push   %ebp
   135af:	89 e5                	mov    %esp,%ebp
   135b1:	83 ec 10             	sub    $0x10,%esp
   135b4:	8b 45 08             	mov    0x8(%ebp),%eax
   135b7:	89 45 fc             	mov    %eax,-0x4(%ebp)
   135ba:	8b 45 0c             	mov    0xc(%ebp),%eax
   135bd:	89 45 f8             	mov    %eax,-0x8(%ebp)
   135c0:	8b 45 fc             	mov    -0x4(%ebp),%eax
   135c3:	8b 50 08             	mov    0x8(%eax),%edx
   135c6:	8b 45 f8             	mov    -0x8(%ebp),%eax
   135c9:	8b 40 08             	mov    0x8(%eax),%eax
   135cc:	39 c2                	cmp    %eax,%edx
   135ce:	73 07                	jae    135d7 <_q_order_wakeup+0x29>
   135d0:	b8 ff ff ff ff       	mov    $0xffffffff,%eax
   135d5:	eb 1c                	jmp    135f3 <_q_order_wakeup+0x45>
   135d7:	8b 45 fc             	mov    -0x4(%ebp),%eax
   135da:	8b 50 08             	mov    0x8(%eax),%edx
   135dd:	8b 45 f8             	mov    -0x8(%ebp),%eax
   135e0:	8b 40 08             	mov    0x8(%eax),%eax
   135e3:	39 c2                	cmp    %eax,%edx
   135e5:	75 07                	jne    135ee <_q_order_wakeup+0x40>
   135e7:	b8 00 00 00 00       	mov    $0x0,%eax
   135ec:	eb 05                	jmp    135f3 <_q_order_wakeup+0x45>
   135ee:	b8 01 00 00 00       	mov    $0x1,%eax
   135f3:	c9                   	leave  
   135f4:	c3                   	ret    

000135f5 <_q_find_pid>:
   135f5:	55                   	push   %ebp
   135f6:	89 e5                	mov    %esp,%ebp
   135f8:	83 ec 10             	sub    $0x10,%esp
   135fb:	8b 45 0c             	mov    0xc(%ebp),%eax
   135fe:	89 45 fc             	mov    %eax,-0x4(%ebp)
   13601:	8b 45 08             	mov    0x8(%ebp),%eax
   13604:	25 ff ff 00 00       	and    $0xffff,%eax
   13609:	89 45 f8             	mov    %eax,-0x8(%ebp)
   1360c:	8b 45 fc             	mov    -0x4(%ebp),%eax
   1360f:	0f b7 40 10          	movzwl 0x10(%eax),%eax
   13613:	0f b7 c0             	movzwl %ax,%eax
   13616:	3b 45 f8             	cmp    -0x8(%ebp),%eax
   13619:	0f 94 c0             	sete   %al
   1361c:	0f b6 c0             	movzbl %al,%eax
   1361f:	c9                   	leave  
   13620:	c3                   	ret    

00013621 <_q_find_ppid>:
   13621:	55                   	push   %ebp
   13622:	89 e5                	mov    %esp,%ebp
   13624:	83 ec 10             	sub    $0x10,%esp
   13627:	8b 45 0c             	mov    0xc(%ebp),%eax
   1362a:	89 45 fc             	mov    %eax,-0x4(%ebp)
   1362d:	8b 45 08             	mov    0x8(%ebp),%eax
   13630:	25 ff ff 00 00       	and    $0xffff,%eax
   13635:	89 45 f8             	mov    %eax,-0x8(%ebp)
   13638:	8b 45 fc             	mov    -0x4(%ebp),%eax
   1363b:	0f b7 40 12          	movzwl 0x12(%eax),%eax
   1363f:	0f b7 c0             	movzwl %ax,%eax
   13642:	3b 45 f8             	cmp    -0x8(%ebp),%eax
   13645:	0f 94 c0             	sete   %al
   13648:	0f b6 c0             	movzbl %al,%eax
   1364b:	c9                   	leave  
   1364c:	c3                   	ret    

0001364d <_sched_init>:
   1364d:	55                   	push   %ebp
   1364e:	89 e5                	mov    %esp,%ebp
   13650:	83 ec 18             	sub    $0x18,%esp
   13653:	83 ec 0c             	sub    $0xc,%esp
   13656:	68 28 80 01 00       	push   $0x18028
   1365b:	e8 b3 d9 ff ff       	call   11013 <c_puts>
   13660:	83 c4 10             	add    $0x10,%esp
   13663:	c7 45 f4 00 00 00 00 	movl   $0x0,-0xc(%ebp)
   1366a:	eb 53                	jmp    136bf <_sched_init+0x72>
   1366c:	83 ec 0c             	sub    $0xc,%esp
   1366f:	6a 00                	push   $0x0
   13671:	e8 7b f8 ff ff       	call   12ef1 <_q_alloc>
   13676:	83 c4 10             	add    $0x10,%esp
   13679:	89 c2                	mov    %eax,%edx
   1367b:	8b 45 f4             	mov    -0xc(%ebp),%eax
   1367e:	89 14 85 50 cc 01 00 	mov    %edx,0x1cc50(,%eax,4)
   13685:	8b 45 f4             	mov    -0xc(%ebp),%eax
   13688:	8b 04 85 50 cc 01 00 	mov    0x1cc50(,%eax,4),%eax
   1368f:	85 c0                	test   %eax,%eax
   13691:	75 28                	jne    136bb <_sched_init+0x6e>
   13693:	83 ec 08             	sub    $0x8,%esp
   13696:	ff 75 f4             	pushl  -0xc(%ebp)
   13699:	68 30 80 01 00       	push   $0x18030
   1369e:	e8 b2 e1 ff ff       	call   11855 <c_printf>
   136a3:	83 c4 10             	add    $0x10,%esp
   136a6:	83 ec 08             	sub    $0x8,%esp
   136a9:	68 51 80 01 00       	push   $0x18051
   136ae:	68 63 80 01 00       	push   $0x18063
   136b3:	e8 87 eb ff ff       	call   1223f <_kpanic>
   136b8:	83 c4 10             	add    $0x10,%esp
   136bb:	83 45 f4 01          	addl   $0x1,-0xc(%ebp)
   136bf:	83 7d f4 04          	cmpl   $0x4,-0xc(%ebp)
   136c3:	7e a7                	jle    1366c <_sched_init+0x1f>
   136c5:	90                   	nop
   136c6:	c9                   	leave  
   136c7:	c3                   	ret    

000136c8 <_schedule>:
   136c8:	55                   	push   %ebp
   136c9:	89 e5                	mov    %esp,%ebp
   136cb:	83 ec 08             	sub    $0x8,%esp
   136ce:	83 7d 08 00          	cmpl   $0x0,0x8(%ebp)
   136d2:	74 6f                	je     13743 <_schedule+0x7b>
   136d4:	8b 45 08             	mov    0x8(%ebp),%eax
   136d7:	0f b6 40 17          	movzbl 0x17(%eax),%eax
   136db:	3c 04                	cmp    $0x4,%al
   136dd:	76 3b                	jbe    1371a <_schedule+0x52>
   136df:	8b 45 08             	mov    0x8(%ebp),%eax
   136e2:	0f b6 40 17          	movzbl 0x17(%eax),%eax
   136e6:	0f b6 d0             	movzbl %al,%edx
   136e9:	8b 45 08             	mov    0x8(%ebp),%eax
   136ec:	0f b7 40 10          	movzwl 0x10(%eax),%eax
   136f0:	0f b7 c0             	movzwl %ax,%eax
   136f3:	83 ec 04             	sub    $0x4,%esp
   136f6:	52                   	push   %edx
   136f7:	50                   	push   %eax
   136f8:	68 6f 80 01 00       	push   $0x1806f
   136fd:	e8 53 e1 ff ff       	call   11855 <c_printf>
   13702:	83 c4 10             	add    $0x10,%esp
   13705:	83 ec 08             	sub    $0x8,%esp
   13708:	68 8a 80 01 00       	push   $0x1808a
   1370d:	68 a5 80 01 00       	push   $0x180a5
   13712:	e8 28 eb ff ff       	call   1223f <_kpanic>
   13717:	83 c4 10             	add    $0x10,%esp
   1371a:	8b 45 08             	mov    0x8(%ebp),%eax
   1371d:	c6 40 16 08          	movb   $0x8,0x16(%eax)
   13721:	8b 45 08             	mov    0x8(%ebp),%eax
   13724:	0f b6 40 17          	movzbl 0x17(%eax),%eax
   13728:	0f b6 c0             	movzbl %al,%eax
   1372b:	8b 04 85 50 cc 01 00 	mov    0x1cc50(,%eax,4),%eax
   13732:	83 ec 08             	sub    $0x8,%esp
   13735:	ff 75 08             	pushl  0x8(%ebp)
   13738:	50                   	push   %eax
   13739:	e8 c7 f8 ff ff       	call   13005 <_q_insert>
   1373e:	83 c4 10             	add    $0x10,%esp
   13741:	eb 01                	jmp    13744 <_schedule+0x7c>
   13743:	90                   	nop
   13744:	c9                   	leave  
   13745:	c3                   	ret    

00013746 <_dispatch>:
   13746:	55                   	push   %ebp
   13747:	89 e5                	mov    %esp,%ebp
   13749:	83 ec 18             	sub    $0x18,%esp
   1374c:	c7 45 f4 00 00 00 00 	movl   $0x0,-0xc(%ebp)
   13753:	c7 45 f0 00 00 00 00 	movl   $0x0,-0x10(%ebp)
   1375a:	eb 39                	jmp    13795 <_dispatch+0x4f>
   1375c:	8b 45 f0             	mov    -0x10(%ebp),%eax
   1375f:	8b 04 85 50 cc 01 00 	mov    0x1cc50(,%eax,4),%eax
   13766:	83 ec 0c             	sub    $0xc,%esp
   13769:	50                   	push   %eax
   1376a:	e8 8b f8 ff ff       	call   12ffa <_q_size>
   1376f:	83 c4 10             	add    $0x10,%esp
   13772:	85 c0                	test   %eax,%eax
   13774:	74 1b                	je     13791 <_dispatch+0x4b>
   13776:	8b 45 f0             	mov    -0x10(%ebp),%eax
   13779:	8b 04 85 50 cc 01 00 	mov    0x1cc50(,%eax,4),%eax
   13780:	83 ec 0c             	sub    $0xc,%esp
   13783:	50                   	push   %eax
   13784:	e8 fc f9 ff ff       	call   13185 <_q_remove>
   13789:	83 c4 10             	add    $0x10,%esp
   1378c:	89 45 f4             	mov    %eax,-0xc(%ebp)
   1378f:	eb 0a                	jmp    1379b <_dispatch+0x55>
   13791:	83 45 f0 01          	addl   $0x1,-0x10(%ebp)
   13795:	83 7d f0 04          	cmpl   $0x4,-0x10(%ebp)
   13799:	7e c1                	jle    1375c <_dispatch+0x16>
   1379b:	83 7d f4 00          	cmpl   $0x0,-0xc(%ebp)
   1379f:	75 15                	jne    137b6 <_dispatch+0x70>
   137a1:	83 ec 08             	sub    $0x8,%esp
   137a4:	68 af 80 01 00       	push   $0x180af
   137a9:	68 c0 80 01 00       	push   $0x180c0
   137ae:	e8 8c ea ff ff       	call   1223f <_kpanic>
   137b3:	83 c4 10             	add    $0x10,%esp
   137b6:	8b 45 f4             	mov    -0xc(%ebp),%eax
   137b9:	c6 40 16 02          	movb   $0x2,0x16(%eax)
   137bd:	8b 45 f4             	mov    -0xc(%ebp),%eax
   137c0:	c6 40 18 05          	movb   $0x5,0x18(%eax)
   137c4:	8b 45 f4             	mov    -0xc(%ebp),%eax
   137c7:	a3 64 cc 01 00       	mov    %eax,0x1cc64
   137cc:	90                   	nop
   137cd:	c9                   	leave  
   137ce:	c3                   	ret    

000137cf <_sio_isr>:
   137cf:	55                   	push   %ebp
   137d0:	89 e5                	mov    %esp,%ebp
   137d2:	83 ec 28             	sub    $0x28,%esp
   137d5:	83 ec 0c             	sub    $0xc,%esp
   137d8:	68 fa 03 00 00       	push   $0x3fa
   137dd:	e8 5e c8 ff ff       	call   10040 <__inb>
   137e2:	83 c4 10             	add    $0x10,%esp
   137e5:	83 e0 0f             	and    $0xf,%eax
   137e8:	89 45 f0             	mov    %eax,-0x10(%ebp)
   137eb:	83 7d f0 0c          	cmpl   $0xc,-0x10(%ebp)
   137ef:	0f 87 f4 01 00 00    	ja     139e9 <_sio_isr+0x21a>
   137f5:	8b 45 f0             	mov    -0x10(%ebp),%eax
   137f8:	c1 e0 02             	shl    $0x2,%eax
   137fb:	05 6c 81 01 00       	add    $0x1816c,%eax
   13800:	8b 00                	mov    (%eax),%eax
   13802:	ff e0                	jmp    *%eax
   13804:	83 ec 0c             	sub    $0xc,%esp
   13807:	68 fd 03 00 00       	push   $0x3fd
   1380c:	e8 2f c8 ff ff       	call   10040 <__inb>
   13811:	83 c4 10             	add    $0x10,%esp
   13814:	89 45 ec             	mov    %eax,-0x14(%ebp)
   13817:	83 ec 08             	sub    $0x8,%esp
   1381a:	ff 75 ec             	pushl  -0x14(%ebp)
   1381d:	68 cc 80 01 00       	push   $0x180cc
   13822:	e8 2e e0 ff ff       	call   11855 <c_printf>
   13827:	83 c4 10             	add    $0x10,%esp
   1382a:	e9 d5 01 00 00       	jmp    13a04 <_sio_isr+0x235>
   1382f:	83 ec 0c             	sub    $0xc,%esp
   13832:	68 f8 03 00 00       	push   $0x3f8
   13837:	e8 04 c8 ff ff       	call   10040 <__inb>
   1383c:	83 c4 10             	add    $0x10,%esp
   1383f:	89 45 f4             	mov    %eax,-0xc(%ebp)
   13842:	83 7d f4 0d          	cmpl   $0xd,-0xc(%ebp)
   13846:	75 07                	jne    1384f <_sio_isr+0x80>
   13848:	c7 45 f4 0a 00 00 00 	movl   $0xa,-0xc(%ebp)
   1384f:	a1 68 cc 01 00       	mov    0x1cc68,%eax
   13854:	83 ec 0c             	sub    $0xc,%esp
   13857:	50                   	push   %eax
   13858:	e8 9d f7 ff ff       	call   12ffa <_q_size>
   1385d:	83 c4 10             	add    $0x10,%esp
   13860:	85 c0                	test   %eax,%eax
   13862:	74 50                	je     138b4 <_sio_isr+0xe5>
   13864:	a1 68 cc 01 00       	mov    0x1cc68,%eax
   13869:	83 ec 0c             	sub    $0xc,%esp
   1386c:	50                   	push   %eax
   1386d:	e8 13 f9 ff ff       	call   13185 <_q_remove>
   13872:	83 c4 10             	add    $0x10,%esp
   13875:	89 45 e8             	mov    %eax,-0x18(%ebp)
   13878:	83 7d e8 00          	cmpl   $0x0,-0x18(%ebp)
   1387c:	75 15                	jne    13893 <_sio_isr+0xc4>
   1387e:	83 ec 08             	sub    $0x8,%esp
   13881:	68 ec 80 01 00       	push   $0x180ec
   13886:	68 05 81 01 00       	push   $0x18105
   1388b:	e8 af e9 ff ff       	call   1223f <_kpanic>
   13890:	83 c4 10             	add    $0x10,%esp
   13893:	8b 45 e8             	mov    -0x18(%ebp),%eax
   13896:	8b 00                	mov    (%eax),%eax
   13898:	8b 55 f4             	mov    -0xc(%ebp),%edx
   1389b:	0f b6 d2             	movzbl %dl,%edx
   1389e:	89 50 30             	mov    %edx,0x30(%eax)
   138a1:	83 ec 0c             	sub    $0xc,%esp
   138a4:	ff 75 e8             	pushl  -0x18(%ebp)
   138a7:	e8 1c fe ff ff       	call   136c8 <_schedule>
   138ac:	83 c4 10             	add    $0x10,%esp
   138af:	e9 4f 01 00 00       	jmp    13a03 <_sio_isr+0x234>
   138b4:	a1 c8 be 01 00       	mov    0x1bec8,%eax
   138b9:	3d ff 07 00 00       	cmp    $0x7ff,%eax
   138be:	0f 87 3f 01 00 00    	ja     13a03 <_sio_isr+0x234>
   138c4:	a1 c0 be 01 00       	mov    0x1bec0,%eax
   138c9:	8d 50 01             	lea    0x1(%eax),%edx
   138cc:	89 15 c0 be 01 00    	mov    %edx,0x1bec0
   138d2:	8b 55 f4             	mov    -0xc(%ebp),%edx
   138d5:	88 10                	mov    %dl,(%eax)
   138d7:	a1 c8 be 01 00       	mov    0x1bec8,%eax
   138dc:	83 c0 01             	add    $0x1,%eax
   138df:	a3 c8 be 01 00       	mov    %eax,0x1bec8
   138e4:	e9 1a 01 00 00       	jmp    13a03 <_sio_isr+0x234>
   138e9:	83 ec 0c             	sub    $0xc,%esp
   138ec:	68 f8 03 00 00       	push   $0x3f8
   138f1:	e8 4a c7 ff ff       	call   10040 <__inb>
   138f6:	83 c4 10             	add    $0x10,%esp
   138f9:	89 45 f4             	mov    %eax,-0xc(%ebp)
   138fc:	83 ec 08             	sub    $0x8,%esp
   138ff:	ff 75 f4             	pushl  -0xc(%ebp)
   13902:	68 10 81 01 00       	push   $0x18110
   13907:	e8 49 df ff ff       	call   11855 <c_printf>
   1390c:	83 c4 10             	add    $0x10,%esp
   1390f:	e9 f0 00 00 00       	jmp    13a04 <_sio_isr+0x235>
   13914:	a1 ec c6 01 00       	mov    0x1c6ec,%eax
   13919:	85 c0                	test   %eax,%eax
   1391b:	74 5c                	je     13979 <_sio_isr+0x1aa>
   1391d:	a1 e8 c6 01 00       	mov    0x1c6e8,%eax
   13922:	85 c0                	test   %eax,%eax
   13924:	74 53                	je     13979 <_sio_isr+0x1aa>
   13926:	a1 e4 c6 01 00       	mov    0x1c6e4,%eax
   1392b:	0f b6 00             	movzbl (%eax),%eax
   1392e:	0f be c0             	movsbl %al,%eax
   13931:	83 ec 08             	sub    $0x8,%esp
   13934:	50                   	push   %eax
   13935:	68 f8 03 00 00       	push   $0x3f8
   1393a:	e8 26 c7 ff ff       	call   10065 <__outb>
   1393f:	83 c4 10             	add    $0x10,%esp
   13942:	a1 e4 c6 01 00       	mov    0x1c6e4,%eax
   13947:	83 c0 01             	add    $0x1,%eax
   1394a:	a3 e4 c6 01 00       	mov    %eax,0x1c6e4
   1394f:	a1 e4 c6 01 00       	mov    0x1c6e4,%eax
   13954:	ba e0 c6 01 00       	mov    $0x1c6e0,%edx
   13959:	39 d0                	cmp    %edx,%eax
   1395b:	72 0a                	jb     13967 <_sio_isr+0x198>
   1395d:	c7 05 e4 c6 01 00 e0 	movl   $0x1bee0,0x1c6e4
   13964:	be 01 00 
   13967:	a1 e8 c6 01 00       	mov    0x1c6e8,%eax
   1396c:	83 e8 01             	sub    $0x1,%eax
   1396f:	a3 e8 c6 01 00       	mov    %eax,0x1c6e8
   13974:	e9 8b 00 00 00       	jmp    13a04 <_sio_isr+0x235>
   13979:	c7 05 e8 c6 01 00 00 	movl   $0x0,0x1c6e8
   13980:	00 00 00 
   13983:	c7 05 e4 c6 01 00 e0 	movl   $0x1bee0,0x1c6e4
   1398a:	be 01 00 
   1398d:	a1 e4 c6 01 00       	mov    0x1c6e4,%eax
   13992:	a3 e0 c6 01 00       	mov    %eax,0x1c6e0
   13997:	c7 05 ec c6 01 00 00 	movl   $0x0,0x1c6ec
   1399e:	00 00 00 
   139a1:	83 ec 0c             	sub    $0xc,%esp
   139a4:	6a 01                	push   $0x1
   139a6:	e8 76 02 00 00       	call   13c21 <_sio_disable>
   139ab:	83 c4 10             	add    $0x10,%esp
   139ae:	eb 54                	jmp    13a04 <_sio_isr+0x235>
   139b0:	83 ec 08             	sub    $0x8,%esp
   139b3:	6a 20                	push   $0x20
   139b5:	6a 20                	push   $0x20
   139b7:	e8 a9 c6 ff ff       	call   10065 <__outb>
   139bc:	83 c4 10             	add    $0x10,%esp
   139bf:	eb 48                	jmp    13a09 <_sio_isr+0x23a>
   139c1:	83 ec 0c             	sub    $0xc,%esp
   139c4:	68 fe 03 00 00       	push   $0x3fe
   139c9:	e8 72 c6 ff ff       	call   10040 <__inb>
   139ce:	83 c4 10             	add    $0x10,%esp
   139d1:	89 45 e4             	mov    %eax,-0x1c(%ebp)
   139d4:	83 ec 08             	sub    $0x8,%esp
   139d7:	ff 75 e4             	pushl  -0x1c(%ebp)
   139da:	68 34 81 01 00       	push   $0x18134
   139df:	e8 71 de ff ff       	call   11855 <c_printf>
   139e4:	83 c4 10             	add    $0x10,%esp
   139e7:	eb 1b                	jmp    13a04 <_sio_isr+0x235>
   139e9:	83 ec 08             	sub    $0x8,%esp
   139ec:	68 55 81 01 00       	push   $0x18155
   139f1:	68 05 81 01 00       	push   $0x18105
   139f6:	e8 44 e8 ff ff       	call   1223f <_kpanic>
   139fb:	83 c4 10             	add    $0x10,%esp
   139fe:	e9 d2 fd ff ff       	jmp    137d5 <_sio_isr+0x6>
   13a03:	90                   	nop
   13a04:	e9 cc fd ff ff       	jmp    137d5 <_sio_isr+0x6>
   13a09:	c9                   	leave  
   13a0a:	c3                   	ret    

00013a0b <_sio_init>:
   13a0b:	55                   	push   %ebp
   13a0c:	89 e5                	mov    %esp,%ebp
   13a0e:	83 ec 08             	sub    $0x8,%esp
   13a11:	83 ec 0c             	sub    $0xc,%esp
   13a14:	68 a0 81 01 00       	push   $0x181a0
   13a19:	e8 f5 d5 ff ff       	call   11013 <c_puts>
   13a1e:	83 c4 10             	add    $0x10,%esp
   13a21:	83 ec 04             	sub    $0x4,%esp
   13a24:	6a 00                	push   $0x0
   13a26:	68 00 08 00 00       	push   $0x800
   13a2b:	68 c0 b6 01 00       	push   $0x1b6c0
   13a30:	e8 11 e7 ff ff       	call   12146 <_kmemset>
   13a35:	83 c4 10             	add    $0x10,%esp
   13a38:	c7 05 c4 be 01 00 c0 	movl   $0x1b6c0,0x1bec4
   13a3f:	b6 01 00 
   13a42:	a1 c4 be 01 00       	mov    0x1bec4,%eax
   13a47:	a3 c0 be 01 00       	mov    %eax,0x1bec0
   13a4c:	c7 05 c8 be 01 00 00 	movl   $0x0,0x1bec8
   13a53:	00 00 00 
   13a56:	83 ec 04             	sub    $0x4,%esp
   13a59:	6a 00                	push   $0x0
   13a5b:	68 00 08 00 00       	push   $0x800
   13a60:	68 e0 be 01 00       	push   $0x1bee0
   13a65:	e8 dc e6 ff ff       	call   12146 <_kmemset>
   13a6a:	83 c4 10             	add    $0x10,%esp
   13a6d:	c7 05 e4 c6 01 00 e0 	movl   $0x1bee0,0x1c6e4
   13a74:	be 01 00 
   13a77:	a1 e4 c6 01 00       	mov    0x1c6e4,%eax
   13a7c:	a3 e0 c6 01 00       	mov    %eax,0x1c6e0
